
finale.elf:     file format elf32-littlenios2
finale.elf
architecture: nios2:r1, flags 0x00000112:
EXEC_P, HAS_SYMS, D_PAGED
start address 0x0c000230

Program Header:
    LOAD off    0x00001000 vaddr 0x0c000000 paddr 0x0c000000 align 2**12
         filesz 0x00000020 memsz 0x00000020 flags r-x
    LOAD off    0x00001020 vaddr 0x0c000020 paddr 0x0c000020 align 2**12
         filesz 0x00018af8 memsz 0x00018af8 flags r-x
    LOAD off    0x00019b18 vaddr 0x0c018b18 paddr 0x0c01a934 align 2**12
         filesz 0x00001e1c memsz 0x00001e1c flags rw-
    LOAD off    0x0001c750 vaddr 0x0c01c750 paddr 0x0c01c750 align 2**12
         filesz 0x00000000 memsz 0x000098e8 flags rw-

Sections:
Idx Name          Size      VMA       LMA       File off  Algn
  0 .entry        00000020  0c000000  0c000000  00001000  2**5
                  CONTENTS, ALLOC, LOAD, READONLY, CODE
  1 .exceptions   00000210  0c000020  0c000020  00001020  2**2
                  CONTENTS, ALLOC, LOAD, READONLY, CODE
  2 .text         00018334  0c000230  0c000230  00001230  2**2
                  CONTENTS, ALLOC, LOAD, READONLY, CODE
  3 .rodata       000005b4  0c018564  0c018564  00019564  2**2
                  CONTENTS, ALLOC, LOAD, READONLY, DATA
  4 .rwdata       00001e1c  0c018b18  0c01a934  00019b18  2**2
                  CONTENTS, ALLOC, LOAD, DATA, SMALL_DATA
  5 .bss          000098e8  0c01c750  0c01c750  0001c750  2**2
                  ALLOC, SMALL_DATA
  6 .onchip_memory2_0 00000000  00000000  00000000  0001b934  2**0
                  CONTENTS
  7 .sdram        00000000  0c026038  0c026038  0001b934  2**0
                  CONTENTS
  8 .comment      00000023  00000000  00000000  0001b934  2**0
                  CONTENTS, READONLY
  9 .debug_aranges 000010d8  00000000  00000000  0001b958  2**3
                  CONTENTS, READONLY, DEBUGGING
 10 .debug_info   0002aa4f  00000000  00000000  0001ca30  2**0
                  CONTENTS, READONLY, DEBUGGING
 11 .debug_abbrev 0000aa53  00000000  00000000  0004747f  2**0
                  CONTENTS, READONLY, DEBUGGING
 12 .debug_line   0000e074  00000000  00000000  00051ed2  2**0
                  CONTENTS, READONLY, DEBUGGING
 13 .debug_frame  00002d3c  00000000  00000000  0005ff48  2**2
                  CONTENTS, READONLY, DEBUGGING
 14 .debug_str    0000450f  00000000  00000000  00062c84  2**0
                  CONTENTS, READONLY, DEBUGGING
 15 .debug_loc    0001cd0a  00000000  00000000  00067193  2**0
                  CONTENTS, READONLY, DEBUGGING
 16 .debug_alt_sim_info 00000040  00000000  00000000  00083ea0  2**2
                  CONTENTS, READONLY, DEBUGGING
 17 .debug_ranges 00001b40  00000000  00000000  00083ee0  2**3
                  CONTENTS, READONLY, DEBUGGING
 18 .thread_model 00000003  00000000  00000000  00089771  2**0
                  CONTENTS, READONLY
 19 .cpu          0000000c  00000000  00000000  00089774  2**0
                  CONTENTS, READONLY
 20 .qsys         00000001  00000000  00000000  00089780  2**0
                  CONTENTS, READONLY
 21 .simulation_enabled 00000001  00000000  00000000  00089781  2**0
                  CONTENTS, READONLY
 22 .sysid_hash   00000004  00000000  00000000  00089782  2**0
                  CONTENTS, READONLY
 23 .sysid_base   00000004  00000000  00000000  00089786  2**0
                  CONTENTS, READONLY
 24 .sysid_time   00000004  00000000  00000000  0008978a  2**0
                  CONTENTS, READONLY
 25 .stderr_dev   0000000b  00000000  00000000  0008978e  2**0
                  CONTENTS, READONLY
 26 .stdin_dev    0000000b  00000000  00000000  00089799  2**0
                  CONTENTS, READONLY
 27 .stdout_dev   0000000b  00000000  00000000  000897a4  2**0
                  CONTENTS, READONLY
 28 .sopc_system_name 00000006  00000000  00000000  000897af  2**0
                  CONTENTS, READONLY
 29 .quartus_project_dir 0000000f  00000000  00000000  000897b5  2**0
                  CONTENTS, READONLY
 30 .sopcinfo     0008a4ea  00000000  00000000  000897c4  2**0
                  CONTENTS, READONLY
SYMBOL TABLE:
0c000000 l    d  .entry	00000000 .entry
0c000020 l    d  .exceptions	00000000 .exceptions
0c000230 l    d  .text	00000000 .text
0c018564 l    d  .rodata	00000000 .rodata
0c018b18 l    d  .rwdata	00000000 .rwdata
0c01c750 l    d  .bss	00000000 .bss
00000000 l    d  .onchip_memory2_0	00000000 .onchip_memory2_0
0c026038 l    d  .sdram	00000000 .sdram
00000000 l    d  .comment	00000000 .comment
00000000 l    d  .debug_aranges	00000000 .debug_aranges
00000000 l    d  .debug_info	00000000 .debug_info
00000000 l    d  .debug_abbrev	00000000 .debug_abbrev
00000000 l    d  .debug_line	00000000 .debug_line
00000000 l    d  .debug_frame	00000000 .debug_frame
00000000 l    d  .debug_str	00000000 .debug_str
00000000 l    d  .debug_loc	00000000 .debug_loc
00000000 l    d  .debug_alt_sim_info	00000000 .debug_alt_sim_info
00000000 l    d  .debug_ranges	00000000 .debug_ranges
00000000 l    df *ABS*	00000000 ../finale_bsp//obj/HAL/src/crt0.o
0c000268 l       .text	00000000 alt_after_alt_main
00000000 l    df *ABS*	00000000 alt_irq_handler.c
00000000 l    df *ABS*	00000000 alt_instruction_exception_entry.c
00000000 l    df *ABS*	00000000 USB_drive.c
0c01a8d4 l     O .rwdata	00000001 addr
00000000 l    df *ABS*	00000000 main.c
0c01a8e0 l     O .rwdata	00000004 vga_ctrl
0c018b18 l     O .rwdata	00000170 colors
00000000 l    df *ABS*	00000000 text_mode_vga_color.c
0c01a8e4 l     O .rwdata	00000004 vga_ctrl
0c018c88 l     O .rwdata	00000170 colors
00000000 l    df *ABS*	00000000 HID.c
00000000 l    df *ABS*	00000000 MAX3421E.c
00000000 l    df *ABS*	00000000 transfer.c
0c01c760 l     O .bss	00000004 usb_delay.2608
0c01c764 l     O .bss	00000001 tmp_addr.2609
00000000 l    df *ABS*	00000000 lib2-divmod.c
00000000 l    df *ABS*	00000000 lib2-mul.c
00000000 l    df *ABS*	00000000 printf.c
00000000 l    df *ABS*	00000000 puts.c
00000000 l    df *ABS*	00000000 rand.c
00000000 l    df *ABS*	00000000 sprintf.c
00000000 l    df *ABS*	00000000 strlen.c
00000000 l    df *ABS*	00000000 vfprintf.c
0c01881e l     O .rodata	00000010 zeroes.4389
0c01882e l     O .rodata	00000010 blanks.4388
00000000 l    df *ABS*	00000000 vfprintf.c
0c01883e l     O .rodata	00000010 zeroes.4404
0c00975c l     F .text	000000bc __sbprintf
0c01884e l     O .rodata	00000010 blanks.4403
00000000 l    df *ABS*	00000000 wsetup.c
00000000 l    df *ABS*	00000000 dtoa.c
0c00996c l     F .text	00000228 quorem
00000000 l    df *ABS*	00000000 fflush.c
00000000 l    df *ABS*	00000000 findfp.c
0c00b4c4 l     F .text	00000008 __fp_unlock
0c00b4d8 l     F .text	0000019c __sinit.part.1
0c00b674 l     F .text	00000008 __fp_lock
00000000 l    df *ABS*	00000000 mallocr.c
00000000 l    df *ABS*	00000000 fvwrite.c
00000000 l    df *ABS*	00000000 fwalk.c
00000000 l    df *ABS*	00000000 impure.c
0c018e28 l     O .rwdata	00000424 impure_data
00000000 l    df *ABS*	00000000 locale.c
0c01926c l     O .rwdata	00000020 lc_ctype_charset
0c01924c l     O .rwdata	00000020 lc_message_charset
0c01928c l     O .rwdata	00000038 lconv
00000000 l    df *ABS*	00000000 makebuf.c
00000000 l    df *ABS*	00000000 mallocr.c
00000000 l    df *ABS*	00000000 memchr.c
00000000 l    df *ABS*	00000000 memcpy.c
00000000 l    df *ABS*	00000000 memmove.c
00000000 l    df *ABS*	00000000 memset.c
00000000 l    df *ABS*	00000000 mprec.c
0c018880 l     O .rodata	0000000c p05.2768
00000000 l    df *ABS*	00000000 mallocr.c
00000000 l    df *ABS*	00000000 s_fpclassify.c
00000000 l    df *ABS*	00000000 sbrkr.c
00000000 l    df *ABS*	00000000 stdio.c
00000000 l    df *ABS*	00000000 strcmp.c
00000000 l    df *ABS*	00000000 vfprintf.c
0c0189a4 l     O .rodata	00000010 zeroes.4333
0c0189b4 l     O .rodata	00000010 blanks.4332
00000000 l    df *ABS*	00000000 vfprintf.c
0c0100b8 l     F .text	000000fc __sprint_r.part.0
0c0189c4 l     O .rodata	00000010 zeroes.4349
0c0116f4 l     F .text	000000bc __sbprintf
0c0189d4 l     O .rodata	00000010 blanks.4348
00000000 l    df *ABS*	00000000 writer.c
00000000 l    df *ABS*	00000000 closer.c
00000000 l    df *ABS*	00000000 mallocr.c
00000000 l    df *ABS*	00000000 fclose.c
00000000 l    df *ABS*	00000000 fputwc.c
00000000 l    df *ABS*	00000000 fstatr.c
00000000 l    df *ABS*	00000000 int_errno.c
00000000 l    df *ABS*	00000000 isattyr.c
00000000 l    df *ABS*	00000000 lseekr.c
00000000 l    df *ABS*	00000000 readr.c
00000000 l    df *ABS*	00000000 wbuf.c
00000000 l    df *ABS*	00000000 wcrtomb.c
00000000 l    df *ABS*	00000000 wctomb_r.c
00000000 l    df *ABS*	00000000 libgcc2.c
00000000 l    df *ABS*	00000000 libgcc2.c
00000000 l    df *ABS*	00000000 libgcc2.c
00000000 l    df *ABS*	00000000 adddf3.c
00000000 l    df *ABS*	00000000 divdf3.c
00000000 l    df *ABS*	00000000 eqdf2.c
00000000 l    df *ABS*	00000000 gedf2.c
00000000 l    df *ABS*	00000000 ledf2.c
00000000 l    df *ABS*	00000000 muldf3.c
00000000 l    df *ABS*	00000000 subdf3.c
00000000 l    df *ABS*	00000000 fixdfsi.c
00000000 l    df *ABS*	00000000 floatsidf.c
00000000 l    df *ABS*	00000000 floatunsidf.c
00000000 l    df *ABS*	00000000 libgcc2.c
00000000 l    df *ABS*	00000000 libgcc2.c
00000000 l    df *ABS*	00000000 alt_close.c
0c01566c l     F .text	0000003c alt_get_errno
00000000 l    df *ABS*	00000000 alt_dev.c
0c015780 l     F .text	0000002c alt_dev_null_write
00000000 l    df *ABS*	00000000 alt_errno.c
00000000 l    df *ABS*	00000000 alt_fstat.c
0c0157ac l     F .text	0000003c alt_get_errno
00000000 l    df *ABS*	00000000 alt_isatty.c
0c0158a0 l     F .text	0000003c alt_get_errno
00000000 l    df *ABS*	00000000 alt_load.c
0c015988 l     F .text	00000068 alt_load_section
00000000 l    df *ABS*	00000000 alt_lseek.c
0c015a74 l     F .text	0000003c alt_get_errno
00000000 l    df *ABS*	00000000 alt_main.c
00000000 l    df *ABS*	00000000 alt_malloc_lock.c
00000000 l    df *ABS*	00000000 alt_printf.c
00000000 l    df *ABS*	00000000 alt_putchar.c
00000000 l    df *ABS*	00000000 alt_read.c
0c015eb8 l     F .text	0000003c alt_get_errno
00000000 l    df *ABS*	00000000 alt_release_fd.c
00000000 l    df *ABS*	00000000 alt_sbrk.c
0c01a924 l     O .rwdata	00000004 heap_end
00000000 l    df *ABS*	00000000 alt_tick.c
00000000 l    df *ABS*	00000000 alt_usleep.c
00000000 l    df *ABS*	00000000 alt_write.c
0c016300 l     F .text	0000003c alt_get_errno
00000000 l    df *ABS*	00000000 alt_sys_init.c
0c01643c l     F .text	00000034 alt_dev_reg
0c019874 l     O .rwdata	00001060 jtag_uart_0
00000000 l    df *ABS*	00000000 altera_avalon_jtag_uart_fd.c
00000000 l    df *ABS*	00000000 altera_avalon_jtag_uart_init.c
0c016730 l     F .text	0000020c altera_avalon_jtag_uart_irq
0c01693c l     F .text	000000a0 altera_avalon_jtag_uart_timeout
00000000 l    df *ABS*	00000000 altera_avalon_jtag_uart_ioctl.c
00000000 l    df *ABS*	00000000 altera_avalon_jtag_uart_read.c
00000000 l    df *ABS*	00000000 altera_avalon_jtag_uart_write.c
00000000 l    df *ABS*	00000000 altera_avalon_spi.c
00000000 l    df *ABS*	00000000 altera_avalon_timer_sc.c
0c017170 l     F .text	00000078 alt_avalon_timer_sc_irq
00000000 l    df *ABS*	00000000 alt_alarm_start.c
00000000 l    df *ABS*	00000000 alt_busy_sleep.c
00000000 l    df *ABS*	00000000 alt_dcache_flush_all.c
00000000 l    df *ABS*	00000000 alt_dev_llist_insert.c
0c017508 l     F .text	0000003c alt_get_errno
00000000 l    df *ABS*	00000000 alt_do_ctors.c
00000000 l    df *ABS*	00000000 alt_do_dtors.c
00000000 l    df *ABS*	00000000 alt_icache_flush_all.c
00000000 l    df *ABS*	00000000 alt_iic.c
00000000 l    df *ABS*	00000000 alt_iic_isr_register.c
00000000 l    df *ABS*	00000000 alt_io_redirect.c
0c017968 l     F .text	000000e4 alt_open_fd
00000000 l    df *ABS*	00000000 alt_irq_vars.c
00000000 l    df *ABS*	00000000 alt_open.c
0c017ac8 l     F .text	0000003c alt_get_errno
0c017b04 l     F .text	000000ec alt_file_locked
00000000 l    df *ABS*	00000000 altera_nios2_gen2_irq.c
00000000 l    df *ABS*	00000000 alt_find_dev.c
00000000 l    df *ABS*	00000000 alt_find_file.c
00000000 l    df *ABS*	00000000 alt_get_fd.c
00000000 l    df *ABS*	00000000 atexit.c
00000000 l    df *ABS*	00000000 exit.c
00000000 l    df *ABS*	00000000 memcmp.c
00000000 l    df *ABS*	00000000 putc.c
00000000 l    df *ABS*	00000000 __atexit.c
00000000 l    df *ABS*	00000000 __call_atexit.c
00000000 l    df *ABS*	00000000 alt_exit.c
0c01c79c g     O .bss	00000004 alt_instruction_exception_handler
0c00e18c g     F .text	00000074 _mprec_log10
0c00e278 g     F .text	0000008c __any_on
0c011ca8 g     F .text	00000054 _isatty_r
0c01888c g     O .rodata	00000028 __mprec_tinytens
0c015b8c g     F .text	0000007c alt_main
0c01a8e8 g     O .rwdata	00000008 ctrl_xfers
0c004efc g     F .text	000000c0 _puts_r
0c025f38 g     O .bss	00000100 alt_irq
0c011cfc g     F .text	00000060 _lseek_r
0c004468 g     F .text	00000644 USB_Task
0c01a934 g       *ABS*	00000000 __flash_rwdata_start
0c014044 g     F .text	00000088 .hidden __eqdf2
0c026038 g       *ABS*	00000000 __alt_heap_start
0c004ec0 g     F .text	0000003c printf
0c011f14 g     F .text	0000009c _wcrtomb_r
0c003518 g     F .text	00000088 kbdPoll
0c01a8dc g     O .rwdata	00000004 yGol
0c00ea08 g     F .text	0000005c __sseek
0c00b824 g     F .text	00000010 __sinit
0c011dbc g     F .text	00000140 __swbuf_r
0c00c2f8 g     F .text	0000007c _setlocale_r
0c00b67c g     F .text	00000078 __sfmoreglue
0c015c2c g     F .text	00000024 __malloc_unlock
0c00251c g     F .text	00000280 textVGAColorScreenSaver
0c00026c g     F .text	000001f0 GetDriverandReport
0c00076c g     F .text	00000d58 keyInput
0c00cfc8 g     F .text	0000015c memmove
0c00b80c g     F .text	00000018 _cleanup
0c00d24c g     F .text	000000a8 _Balloc
0c00366c g     F .text	00000088 MAXreg_wr
0c018df8 g     O .rwdata	00000030 ClientDriverTable
0c0140cc g     F .text	000000dc .hidden __gtdf2
0c017d4c g     F .text	00000024 altera_nios2_gen2_irq_init
0c004aac g     F .text	0000002c MSDProbe
0c000000 g     F .entry	0000000c __reset
0c003f68 g     F .text	000000e8 XferCtrlData
0c000020 g       *ABS*	00000000 __flash_exceptions_start
0c01c7a0 g     O .bss	00000010 hid_ep
0c011c4c g     F .text	0000005c _fstat_r
0c01c780 g     O .bss	00000004 errno
0c00e984 g     F .text	00000008 __seofread
0c00ed18 g     F .text	000013a0 ___svfiprintf_internal_r
0c01c788 g     O .bss	00000004 alt_argv
0c0228d4 g       *ABS*	00000000 _gp
0c0162d0 g     F .text	00000030 usleep
0c00385c g     F .text	00000074 MAXreg_rd
0c002194 g     F .text	00000050 textVGAColorClr
0c0196f4 g     O .rwdata	00000180 alt_fd_list
0c003450 g     F .text	00000040 HID_init
0c017d70 g     F .text	00000090 alt_find_dev
0c00ce80 g     F .text	00000148 memcpy
0c00b4cc g     F .text	0000000c _cleanup_r
0c015484 g     F .text	000000dc .hidden __floatsidf
0c017a4c g     F .text	0000007c alt_io_redirect
0c0141a8 g     F .text	000000f4 .hidden __ltdf2
0c018564 g       *ABS*	00000000 __DTOR_END__
0c004fbc g     F .text	00000014 puts
0c017fcc g     F .text	0000009c alt_exception_cause_generated_bad_addr
0c00e868 g     F .text	00000074 __fpclassifyd
0c00e0e8 g     F .text	000000a4 __ratio
0c0014c4 g     F .text	00000070 setEdge
0c0116d8 g     F .text	0000001c __vfiprintf_internal
0c016b34 g     F .text	0000021c altera_avalon_jtag_uart_read
0c004e90 g     F .text	00000030 _printf_r
00000000 g       *ABS*	00000000 __alt_mem_onchip_memory2_0
0c004dac g     F .text	00000064 .hidden __udivsi3
0c0158dc g     F .text	000000ac isatty
0c0188dc g     O .rodata	000000c8 __mprec_tens
0c00c374 g     F .text	0000000c __locale_charset
0c01c77c g     O .bss	00000004 __malloc_top_pad
0c01a8f0 g     O .rwdata	00000001 usb_task_state
0c01a8fc g     O .rwdata	00000004 __mb_cur_max
0c00c3a4 g     F .text	0000000c _localeconv_r
0c00d680 g     F .text	0000003c __i2b
0c00bca8 g     F .text	000004c8 __sfvwrite_r
0c00e8dc g     F .text	00000054 _sbrk_r
0c011d5c g     F .text	00000060 _read_r
0c003c24 g     F .text	00000094 MAX3421E_init
0c01c7f0 g     O .bss	00004b00 grid
0c000738 g     F .text	00000034 setKeycode
0c01a91c g     O .rwdata	00000004 alt_max_fd
0c011940 g     F .text	000000f0 _fclose_r
0c00b494 g     F .text	00000030 fflush
0c01c778 g     O .bss	00000004 __malloc_max_sbrked_mem
0c012dc8 g     F .text	000008ac .hidden __adddf3
0c00de90 g     F .text	0000010c __b2d
0c012804 g     F .text	000005c4 .hidden __umoddi3
0c015ab0 g     F .text	000000dc lseek
0c01a8f4 g     O .rwdata	00000004 _global_impure_ptr
0c0015a0 g     F .text	00000074 setColor
0c00e304 g     F .text	00000564 _realloc_r
0c026038 g       *ABS*	00000000 __bss_end
0c017878 g     F .text	000000f0 alt_iic_isr_register
0c0161c8 g     F .text	00000108 alt_tick
0c012208 g     F .text	000005fc .hidden __udivdi3
0c011ba8 g     F .text	00000024 _fputwc_r
0c0188b4 g     O .rodata	00000028 __mprec_bigtens
0c00d464 g     F .text	00000104 __s2b
0c015560 g     F .text	000000a8 .hidden __floatunsidf
0c00dbd0 g     F .text	00000060 __mcmp
0c00b844 g     F .text	00000018 __fp_lock_all
0c01782c g     F .text	0000004c alt_ic_irq_enabled
0c001e1c g     F .text	00000148 readjustScreen
0c01612c g     F .text	0000009c alt_alarm_stop
0c01c798 g     O .bss	00000004 alt_irq_active
0c004b74 g     F .text	0000002c DummyProbe
0c0000fc g     F .exceptions	000000d4 alt_irq_handler
0c0196cc g     O .rwdata	00000028 alt_dev_null
0c003490 g     F .text	00000088 mousePoll
0c003a78 g     F .text	00000024 Vbus_power
0c0174e8 g     F .text	00000020 alt_dcache_flush_all
0c00d568 g     F .text	00000068 __hi0bits
0c015404 g     F .text	00000080 .hidden __fixdfsi
0c01a8d8 g     O .rwdata	00000004 xGol
0c01a934 g       *ABS*	00000000 __ram_rwdata_end
0c01a914 g     O .rwdata	00000008 alt_dev_list
0c01633c g     F .text	00000100 write
0c018130 g     F .text	000000a0 _putc_r
0c018b18 g       *ABS*	00000000 __ram_rodata_end
0c01c765 g     O .bss	00000001 usb_error
0c0157e8 g     F .text	000000b8 fstat
0c0141a8 g     F .text	000000f4 .hidden __ledf2
0c0212f0 g     O .bss	00004b00 colorValue
0c00d948 g     F .text	00000140 __pow5mult
0c0101cc g     F .text	0000150c ___vfiprintf_internal_r
0c01c770 g     O .bss	00000004 __nlocale_changed
0c004e10 g     F .text	00000058 .hidden __umodsi3
0c026038 g       *ABS*	00000000 end
0c016670 g     F .text	000000c0 altera_avalon_jtag_uart_init
0c0001d0 g     F .exceptions	00000060 alt_instruction_exception_entry
0c0040c4 g     F .text	0000017c XferDispatchPkt
0c018564 g       *ABS*	00000000 __CTOR_LIST__
10000000 g       *ABS*	00000000 __alt_stack_pointer
0c0171e8 g     F .text	0000007c alt_avalon_timer_sc_init
0c015608 g     F .text	00000064 .hidden __clzsi2
0c002808 g     F .text	00000438 userControlledBlock
0c016d50 g     F .text	00000224 altera_avalon_jtag_uart_write
0c00b834 g     F .text	00000004 __sfp_lock_acquire
0c00cd9c g     F .text	000000e4 memchr
0c007464 g     F .text	000022dc ___vfprintf_internal_r
0c003de8 g     F .text	00000034 MaxGpxHandler
0c00504c g     F .text	00000058 _sprintf_r
0c00b998 g     F .text	00000310 _free_r
0c015c50 g     F .text	0000022c alt_printf
0c00c380 g     F .text	00000010 __locale_mb_cur_max
0c0183b0 g     F .text	00000180 __call_exitprocs
0c01c76c g     O .bss	00000004 __mlocale_changed
0c01a900 g     O .rwdata	00000004 __malloc_sbrk_base
0c000230 g     F .text	0000003c _start
0c01c790 g     O .bss	00000004 _alt_tick_rate
0c0038d0 g     F .text	00000108 MAXbytes_rd
0c004fe8 g     F .text	00000064 rand
0c00da88 g     F .text	00000148 __lshift
0c016f74 g     F .text	000001fc alt_avalon_spi_command
0c01c794 g     O .bss	00000004 _alt_nticks
0c015ef4 g     F .text	00000104 read
0c0164a8 g     F .text	00000064 alt_sys_init
0c00eb48 g     F .text	000001d0 __ssprint_r
0c025ef0 g     O .bss	00000048 devtable
0c018298 g     F .text	00000118 __register_exitproc
0c003048 g     F .text	00000408 HIDKProbe
0c01c7b0 g     O .bss	00000018 msd_ep
0c00d6bc g     F .text	0000028c __multiply
0c0169dc g     F .text	00000068 altera_avalon_jtag_uart_close
0c0043d0 g     F .text	00000098 USB_init
0c025df0 g     O .bss	00000100 bigbuf
0c004e68 g     F .text	00000028 .hidden __mulsi3
0c018b18 g       *ABS*	00000000 __ram_rwdata_start
0c018564 g       *ABS*	00000000 __ram_rodata_start
0c01c7c8 g     O .bss	00000028 __malloc_current_mallinfo
0c01c75c g     O .bss	00000001 last_usb_task_state
0c00df9c g     F .text	0000014c __d2b
0c01c754 g     O .bss	00000008 dev0ep
0c0004a0 g     F .text	00000048 clearLED
0c01650c g     F .text	00000060 altera_avalon_jtag_uart_read_fd
0c017f08 g     F .text	000000c4 alt_get_fd
0c017390 g     F .text	00000158 alt_busy_sleep
0c004ad8 g     F .text	00000038 MSDEventHandler
0c011810 g     F .text	00000054 _close_r
0c0180b4 g     F .text	0000007c memcmp
0c0165cc g     F .text	00000050 altera_avalon_jtag_uart_close_fd
0c026038 g       *ABS*	00000000 __alt_stack_base
0c01661c g     F .text	00000054 altera_avalon_jtag_uart_ioctl_fd
0c009818 g     F .text	00000154 __swsetup_r
0c001d88 g     F .text	00000094 checkRow
0c013674 g     F .text	000009d0 .hidden __divdf3
0c001534 g     F .text	0000006c clearEdge
0c00b6f4 g     F .text	00000118 __sfp
0c00e200 g     F .text	00000078 __copybits
0c0192c4 g     O .rwdata	00000408 __malloc_av_
0c00b840 g     F .text	00000004 __sinit_lock_release
0c004b3c g     F .text	00000038 CDCEventHandler
0c01429c g     F .text	0000086c .hidden __muldf3
0c004ba0 g     F .text	00000038 DummyEventHandler
0c00e930 g     F .text	00000054 __sread
0c017e00 g     F .text	00000108 alt_find_file
0c017544 g     F .text	000000a4 alt_dev_llist_insert
0c015c08 g     F .text	00000024 __malloc_lock
0c01607c g     F .text	000000b0 sbrk
0c0051a8 g     F .text	000022bc ___svfprintf_internal_r
0c00b438 g     F .text	0000005c _fflush_r
0c011864 g     F .text	000000dc _calloc_r
0c01c750 g       *ABS*	00000000 __bss_start
0c003a9c g     F .text	00000188 MAX_busprobe
0c01c750 g     O .bss	00000002 hid_device
0c00d124 g     F .text	00000128 memset
0c002018 g     F .text	0000017c main
0c003cb8 g     F .text	00000064 MAX3421E_Task
0c01c78c g     O .bss	00000004 alt_envp
0c01c774 g     O .bss	00000004 __malloc_max_total_mem
0c01656c g     F .text	00000060 altera_avalon_jtag_uart_write_fd
0c011efc g     F .text	00000018 __swbuf
0c004fd0 g     F .text	00000018 srand
0c004c30 g     F .text	00000084 ConvUTF8ToStr
0c00ea64 g     F .text	00000008 __sclose
10000000 g       *ABS*	00000000 __alt_heap_limit
0c00241c g     F .text	00000100 screenVGAinitializer
0c011a30 g     F .text	00000014 fclose
0c00279c g     F .text	0000006c VGADrawColorBox
0c009b94 g     F .text	00001688 _dtoa_r
0c00c590 g     F .text	0000080c _malloc_r
0c012070 g     F .text	00000030 __ascii_wctomb
0c01a920 g     O .rwdata	00000004 alt_errno
0c00c170 g     F .text	000000c4 _fwalk
0c0181d0 g     F .text	000000c8 putc
0c004cb4 g     F .text	00000084 .hidden __divsi3
0c004240 g     F .text	00000190 XferInTransfer
0c0022f4 g     F .text	00000128 setColorPalette
0c000600 g     F .text	00000138 printSignedHex1
0c00b874 g     F .text	00000124 _malloc_trim_r
0c018564 g       *ABS*	00000000 __CTOR_END__
0c004bf8 g     F .text	00000038 GetDevtable
0c00ea6c g     F .text	000000dc strcmp
0c018564 g       *ABS*	00000000 __flash_rodata_start
0c018564 g       *ABS*	00000000 __DTOR_LIST__
0c004050 g     F .text	00000074 XferCtrlND
0c014044 g     F .text	00000088 .hidden __nedf2
0c0039d8 g     F .text	000000a0 MAX3421E_reset
0c016470 g     F .text	00000038 alt_irq_init
0c015ff8 g     F .text	00000084 alt_release_fd
0c0050a4 g     F .text	0000006c sprintf
0c0189e4 g     O .rodata	00000100 .hidden __clz_tab
0c01c768 g     O .bss	00000004 _PathLocale
0c018068 g     F .text	00000014 atexit
0c0117b0 g     F .text	00000060 _write_r
0c00c3b0 g     F .text	00000018 setlocale
0c01a8f8 g     O .rwdata	00000004 _impure_ptr
0c01c784 g     O .bss	00000004 alt_argc
0c00b21c g     F .text	0000021c __sflush_r
0c017648 g     F .text	00000060 _do_dtors
0c00c39c g     F .text	00000008 __locale_cjk_lang
0c0036f4 g     F .text	00000168 MAXbytes_wr
0c000020 g       .exceptions	00000000 alt_irq_entry
0c00de2c g     F .text	00000064 __ulp
0c00b85c g     F .text	00000018 __fp_unlock_all
0c001614 g     F .text	00000774 userControlledBlockGrid
0c01a90c g     O .rwdata	00000008 alt_fs_list
0c004b10 g     F .text	0000002c CDCProbe
0c000020 g       *ABS*	00000000 __ram_exceptions_start
0c00c3c8 g     F .text	0000000c localeconv
0c00045c g     F .text	00000044 setLED
0c004bd8 g     F .text	00000020 GetUsbTaskState
0c001f64 g     F .text	000000b4 paintScreen
0c0176c8 g     F .text	00000050 alt_ic_isr_register
0c0185a0 g     O .rodata	00000010 devclasses
0c01a934 g       *ABS*	00000000 _edata
0c0035d8 g     F .text	00000038 HIDKEventHandler
0c026038 g       *ABS*	00000000 _end
0c003d1c g     F .text	000000cc MaxIntHandler
0c011a44 g     F .text	00000164 __fputwc
0c000230 g       *ABS*	00000000 __ram_exceptions_end
0c016a44 g     F .text	000000f0 altera_avalon_jtag_uart_ioctl
0c0021e4 g     F .text	00000110 textVGADrawColorText
0c003610 g     F .text	00000034 SPI_init
0c0177a0 g     F .text	0000008c alt_ic_irq_disable
0c00e98c g     F .text	0000007c __swrite
0c01a904 g     O .rwdata	00000004 __malloc_trim_threshold
0c00c390 g     F .text	0000000c __locale_msgcharset
0c01807c g     F .text	00000038 exit
0c00c234 g     F .text	000000c4 _fwalk_reent
0c00dc30 g     F .text	000001fc __mdiff
0c004d38 g     F .text	00000074 .hidden __modsi3
10000000 g       *ABS*	00000000 __alt_data_end
0c000020 g     F .exceptions	00000000 alt_exception
0c00b838 g     F .text	00000004 __sfp_lock_release
0c000000 g       *ABS*	00000000 __alt_mem_sdram
0c0035a0 g     F .text	00000038 HIDMEventHandler
0c018530 g     F .text	00000034 _exit
0c017264 g     F .text	0000012c alt_alarm_start
0c0004e8 g     F .text	00000118 printSignedHex0
0c0120fc g     F .text	0000010c .hidden __muldi3
0c00c3d4 g     F .text	000001bc __smakebuf_r
0c005110 g     F .text	00000098 strlen
0c017bf0 g     F .text	0000015c open
0c0140cc g     F .text	000000dc .hidden __gedf2
0c015e7c g     F .text	0000003c alt_putchar
0c01a908 g     O .rwdata	00000004 __wctomb
0c0101b4 g     F .text	00000018 __sprint_r
0c0176a8 g     F .text	00000020 alt_icache_flush_all
0c01a930 g     O .rwdata	00000004 alt_priority_mask
0c017718 g     F .text	00000088 alt_ic_irq_enable
0c009740 g     F .text	0000001c __vfprintf_internal
0c002c40 g     F .text	00000408 HIDMProbe
0c0120a0 g     F .text	0000005c _wctomb_r
0c003644 g     F .text	00000028 SPI_wr
0c014b08 g     F .text	000008fc .hidden __subdf3
0c00d5d0 g     F .text	000000b0 __lo0bits
0c01a928 g     O .rwdata	00000008 alt_alarm_list
0c0175e8 g     F .text	00000060 _do_ctors
0c011fb0 g     F .text	000000c0 wcrtomb
0c0156a8 g     F .text	000000d8 close
0c0159f0 g     F .text	00000084 alt_load
0c011bcc g     F .text	00000080 fputwc
0c00b83c g     F .text	00000004 __sinit_lock_acquire
0c003e1c g     F .text	0000014c XferCtrlReq
0c00d31c g     F .text	00000148 __multadd
0c00d2f4 g     F .text	00000028 _Bfree



Disassembly of section .entry:

0c000000 <__reset>:
 * Jump to the _start entry point in the .text section if reset code
 * is allowed or if optimizing for RTL simulation.
 */
#if defined(ALT_ALLOW_CODE_AT_RESET) || defined(ALT_SIM_OPTIMIZE)
    /* Jump to the _start entry point in the .text section. */
    movhi r1, %hi(_start)
 c000000:	00430034 	movhi	at,3072
    ori r1, r1, %lo(_start)
 c000004:	08408c14 	ori	at,at,560
    jmp r1
 c000008:	0800683a 	jmp	at
	...

Disassembly of section .exceptions:

0c000020 <alt_exception>:

#else /* ALT_EXCEPTION_STACK disabled */
        /* 
         * Reserve space on normal stack for registers about to be pushed.
         */
        addi  sp, sp, -76
 c000020:	deffed04 	addi	sp,sp,-76
         * documentation for details).
         *
         * Leave a gap in the stack frame at 4(sp) for the muldiv handler to
         * store zero into.
         */
        stw   ra,  0(sp)
 c000024:	dfc00015 	stw	ra,0(sp)
        stw   r1,   8(sp)
 c000028:	d8400215 	stw	at,8(sp)
        stw   r2,  12(sp)
 c00002c:	d8800315 	stw	r2,12(sp)
        stw   r3,  16(sp)
 c000030:	d8c00415 	stw	r3,16(sp)
        stw   r4,  20(sp)
 c000034:	d9000515 	stw	r4,20(sp)
        stw   r5,  24(sp)
 c000038:	d9400615 	stw	r5,24(sp)
        stw   r6,  28(sp)
 c00003c:	d9800715 	stw	r6,28(sp)
        stw   r7,  32(sp)
 c000040:	d9c00815 	stw	r7,32(sp)
        rdctl r5, estatus   /* Read early to avoid usage stall */
 c000044:	000b307a 	rdctl	r5,estatus
        stw   r8,  36(sp)
 c000048:	da000915 	stw	r8,36(sp)
        stw   r9,  40(sp)
 c00004c:	da400a15 	stw	r9,40(sp)
        stw   r10, 44(sp)
 c000050:	da800b15 	stw	r10,44(sp)
        stw   r11, 48(sp)
 c000054:	dac00c15 	stw	r11,48(sp)
        stw   r12, 52(sp)
 c000058:	db000d15 	stw	r12,52(sp)
        stw   r13, 56(sp)
 c00005c:	db400e15 	stw	r13,56(sp)
        stw   r14, 60(sp)
 c000060:	db800f15 	stw	r14,60(sp)
        stw   r15, 64(sp)
 c000064:	dbc01015 	stw	r15,64(sp)
        /*
         * ea-4 contains the address of the instruction being executed
         * when the exception occured. For interrupt exceptions, we will
         * will be re-issue the isntruction. Store it in 72(sp)
         */
        stw   r5,  68(sp)  /* estatus */
 c000068:	d9401115 	stw	r5,68(sp)
        addi  r15, ea, -4  /* instruction that caused exception */
 c00006c:	ebffff04 	addi	r15,ea,-4
        stw   r15,  72(sp)
 c000070:	dbc01215 	stw	r15,72(sp)
#else
        /*
         * Test to see if the exception was a software exception or caused 
         * by an external interrupt, and vector accordingly.
         */
        rdctl r4, ipending
 c000074:	0009313a 	rdctl	r4,ipending
        andi  r2, r5, 1
 c000078:	2880004c 	andi	r2,r5,1
        beq   r2, zero, .Lnot_irq
 c00007c:	10000326 	beq	r2,zero,c00008c <alt_exception+0x6c>
        beq   r4, zero, .Lnot_irq
 c000080:	20000226 	beq	r4,zero,c00008c <alt_exception+0x6c>
        /*
         * Now that all necessary registers have been preserved, call 
         * alt_irq_handler() to process the interrupts.
         */

        call alt_irq_handler
 c000084:	c0000fc0 	call	c0000fc <alt_irq_handler>

        .section .exceptions.irqreturn, "xa"

        br    .Lexception_exit
 c000088:	00000706 	br	c0000a8 <alt_exception+0x88>
         * upon completion, so we write ea (address of instruction *after*
         * the one where the exception occured) into 72(sp). The actual
         * instruction that caused the exception is written in r2, which these
         * handlers will utilize.
         */
        stw ea, 72(sp) /* EA is PC+4 so will skip over instruction causing exception */
 c00008c:	df401215 	stw	ea,72(sp)
.Lunknown_16bit:
        addi.n r4, r4, 2 /* Need PC+2 to skip over instruction causing exception */
        stw r4, 72(sp)

#else /* CDX is not Enabled and all instructions are 32bits */
        ldw r2, -4(ea) /* Instruction value that caused exception */
 c000090:	e8bfff17 	ldw	r2,-4(ea)
         * debugger is present) or go into an infinite loop since the
         * handling behavior is undefined; in that case we will not return here.
         */

        /* Load exception-causing address as first argument (r4) */
        addi   r4, ea, -4
 c000094:	e93fff04 	addi	r4,ea,-4

        /* Call the instruction-exception entry */
        call   alt_instruction_exception_entry
 c000098:	c0001d00 	call	c0001d0 <alt_instruction_exception_entry>
         * instruction
         *
         * Return code was 0: Skip. The instruction after the exception is
         * already stored in 72(sp).
         */
        bne   r2, r0, .Lexception_exit
 c00009c:	1000021e 	bne	r2,zero,c0000a8 <alt_exception+0x88>

        /*
         * Otherwise, modify 72(sp) to re-issue the instruction that caused the
         * exception.
         */
        addi  r15, ea, -4  /* instruction that caused exception */
 c0000a0:	ebffff04 	addi	r15,ea,-4
        stw   r15,  72(sp)
 c0000a4:	dbc01215 	stw	r15,72(sp)
        /* 
         * Restore the saved registers, so that all general purpose registers 
         * have been restored to their state at the time the interrupt occured.
         */

        ldw   r5,  68(sp)
 c0000a8:	d9401117 	ldw	r5,68(sp)
        ldw   ea,  72(sp)  /* This becomes the PC once eret is executed */
 c0000ac:	df401217 	ldw	ea,72(sp)
        ldw   ra,   0(sp)
 c0000b0:	dfc00017 	ldw	ra,0(sp)

        wrctl estatus, r5
 c0000b4:	2801707a 	wrctl	estatus,r5

        ldw   r1,   8(sp)
 c0000b8:	d8400217 	ldw	at,8(sp)
        ldw   r2,  12(sp)
 c0000bc:	d8800317 	ldw	r2,12(sp)
        ldw   r3,  16(sp)
 c0000c0:	d8c00417 	ldw	r3,16(sp)
        ldw   r4,  20(sp)
 c0000c4:	d9000517 	ldw	r4,20(sp)
        ldw   r5,  24(sp)
 c0000c8:	d9400617 	ldw	r5,24(sp)
        ldw   r6,  28(sp)
 c0000cc:	d9800717 	ldw	r6,28(sp)
        ldw   r7,  32(sp)
 c0000d0:	d9c00817 	ldw	r7,32(sp)

#if defined(ALT_EXCEPTION_STACK) && defined(ALT_STACK_CHECK)
        ldw   et, %gprel(alt_exception_old_stack_limit)(gp)
#endif

        ldw   r8,  36(sp)
 c0000d4:	da000917 	ldw	r8,36(sp)
        ldw   r9,  40(sp)
 c0000d8:	da400a17 	ldw	r9,40(sp)
        ldw   r10, 44(sp)
 c0000dc:	da800b17 	ldw	r10,44(sp)
        ldw   r11, 48(sp)
 c0000e0:	dac00c17 	ldw	r11,48(sp)
        ldw   r12, 52(sp)
 c0000e4:	db000d17 	ldw	r12,52(sp)
        ldw   r13, 56(sp)
 c0000e8:	db400e17 	ldw	r13,56(sp)
        ldw   r14, 60(sp)
 c0000ec:	db800f17 	ldw	r14,60(sp)
        ldw   r15, 64(sp)
 c0000f0:	dbc01017 	ldw	r15,64(sp)
        stw   et, %gprel(alt_stack_limit_value)(gp)
        stw   zero, %gprel(alt_exception_old_stack_limit)(gp)
#endif /* ALT_STACK_CHECK */
        ldw   sp,  76(sp)
#else /* ALT_EXCEPTION_STACK disabled */
        addi  sp, sp, 76
 c0000f4:	dec01304 	addi	sp,sp,76

        /*
         * Return to the interrupted instruction.
         */

        eret
 c0000f8:	ef80083a 	eret

0c0000fc <alt_irq_handler>:
 * instruction is present if the macro ALT_CI_INTERRUPT_VECTOR defined.
 */

void alt_irq_handler (void) __attribute__ ((section (".exceptions")));
void alt_irq_handler (void)
{
 c0000fc:	defff904 	addi	sp,sp,-28
 c000100:	dfc00615 	stw	ra,24(sp)
 c000104:	df000515 	stw	fp,20(sp)
 c000108:	df000504 	addi	fp,sp,20
  
  /*
   * Notify the operating system that we are at interrupt level.
   */ 
  
  ALT_OS_INT_ENTER();
 c00010c:	0001883a 	nop
#ifndef NIOS2_EIC_PRESENT
static ALT_INLINE alt_u32 ALT_ALWAYS_INLINE alt_irq_pending (void)
{
  alt_u32 active;

  NIOS2_READ_IPENDING (active);
 c000110:	0005313a 	rdctl	r2,ipending
 c000114:	e0bffe15 	stw	r2,-8(fp)

  return active;
 c000118:	e0bffe17 	ldw	r2,-8(fp)
   * Consider the case where the high priority interupt is asserted during
   * the interrupt entry sequence for a lower priority interrupt to see why
   * this is the case.
   */

  active = alt_irq_pending ();
 c00011c:	e0bffb15 	stw	r2,-20(fp)

  do
  {
    i = 0;
 c000120:	e03ffd15 	stw	zero,-12(fp)
    mask = 1;
 c000124:	00800044 	movi	r2,1
 c000128:	e0bffc15 	stw	r2,-16(fp)
     * called to clear the interrupt condition.
     */

    do
    {
      if (active & mask)
 c00012c:	e0fffb17 	ldw	r3,-20(fp)
 c000130:	e0bffc17 	ldw	r2,-16(fp)
 c000134:	1884703a 	and	r2,r3,r2
 c000138:	10001426 	beq	r2,zero,c00018c <alt_irq_handler+0x90>
      { 
#ifdef ALT_ENHANCED_INTERRUPT_API_PRESENT
        alt_irq[i].handler(alt_irq[i].context); 
 c00013c:	008300b4 	movhi	r2,3074
 c000140:	1097ce04 	addi	r2,r2,24376
 c000144:	e0fffd17 	ldw	r3,-12(fp)
 c000148:	180690fa 	slli	r3,r3,3
 c00014c:	10c5883a 	add	r2,r2,r3
 c000150:	10c00017 	ldw	r3,0(r2)
 c000154:	008300b4 	movhi	r2,3074
 c000158:	1097ce04 	addi	r2,r2,24376
 c00015c:	e13ffd17 	ldw	r4,-12(fp)
 c000160:	200890fa 	slli	r4,r4,3
 c000164:	1105883a 	add	r2,r2,r4
 c000168:	10800104 	addi	r2,r2,4
 c00016c:	10800017 	ldw	r2,0(r2)
 c000170:	1009883a 	mov	r4,r2
 c000174:	183ee83a 	callr	r3
#else
        alt_irq[i].handler(alt_irq[i].context, i); 
#endif
        break;
 c000178:	0001883a 	nop
#ifndef NIOS2_EIC_PRESENT
static ALT_INLINE alt_u32 ALT_ALWAYS_INLINE alt_irq_pending (void)
{
  alt_u32 active;

  NIOS2_READ_IPENDING (active);
 c00017c:	0005313a 	rdctl	r2,ipending
 c000180:	e0bfff15 	stw	r2,-4(fp)

  return active;
 c000184:	e0bfff17 	ldw	r2,-4(fp)
 c000188:	00000706 	br	c0001a8 <alt_irq_handler+0xac>
      }
      mask <<= 1;
 c00018c:	e0bffc17 	ldw	r2,-16(fp)
 c000190:	1085883a 	add	r2,r2,r2
 c000194:	e0bffc15 	stw	r2,-16(fp)
      i++;
 c000198:	e0bffd17 	ldw	r2,-12(fp)
 c00019c:	10800044 	addi	r2,r2,1
 c0001a0:	e0bffd15 	stw	r2,-12(fp)

    } while (1);
 c0001a4:	003fe106 	br	c00012c <__alt_data_end+0xfc00012c>

    active = alt_irq_pending ();
 c0001a8:	e0bffb15 	stw	r2,-20(fp)
    
  } while (active);
 c0001ac:	e0bffb17 	ldw	r2,-20(fp)
 c0001b0:	103fdb1e 	bne	r2,zero,c000120 <__alt_data_end+0xfc000120>

  /*
   * Notify the operating system that interrupt processing is complete.
   */ 

  ALT_OS_INT_EXIT();
 c0001b4:	0001883a 	nop
}
 c0001b8:	0001883a 	nop
 c0001bc:	e037883a 	mov	sp,fp
 c0001c0:	dfc00117 	ldw	ra,4(sp)
 c0001c4:	df000017 	ldw	fp,0(sp)
 c0001c8:	dec00204 	addi	sp,sp,8
 c0001cc:	f800283a 	ret

0c0001d0 <alt_instruction_exception_entry>:
 * that handler if it has been registered. Absent a handler, it will
 * break break or hang as discussed below.
 */
int 
alt_instruction_exception_entry (alt_u32 exception_pc)
{
 c0001d0:	defffb04 	addi	sp,sp,-20
 c0001d4:	dfc00415 	stw	ra,16(sp)
 c0001d8:	df000315 	stw	fp,12(sp)
 c0001dc:	df000304 	addi	fp,sp,12
 c0001e0:	e13fff15 	stw	r4,-4(fp)
  cause = ( (cause & NIOS2_EXCEPTION_REG_CAUSE_MASK) >>
              NIOS2_EXCEPTION_REG_CAUSE_OFST );

  NIOS2_READ_BADADDR(badaddr);
#else
  cause = NIOS2_EXCEPTION_CAUSE_NOT_PRESENT;
 c0001e4:	00bfffc4 	movi	r2,-1
 c0001e8:	e0bffd15 	stw	r2,-12(fp)
  badaddr = 0;
 c0001ec:	e03ffe15 	stw	zero,-8(fp)
#endif /* NIOS2_HAS_EXTRA_EXCEPTION_INFO */

  if(alt_instruction_exception_handler) {
 c0001f0:	d0a7b217 	ldw	r2,-24888(gp)
 c0001f4:	10000726 	beq	r2,zero,c000214 <alt_instruction_exception_entry+0x44>
     * Call handler. Its return value indicates whether the exception-causing
     * instruction should be re-issued. The code that called us,
     * alt_eceptions_entry.S, will look at this value and adjust the ea
     * register as necessary
     */
    return alt_instruction_exception_handler(cause, exception_pc, badaddr);
 c0001f8:	d0a7b217 	ldw	r2,-24888(gp)
 c0001fc:	e0fffd17 	ldw	r3,-12(fp)
 c000200:	e1bffe17 	ldw	r6,-8(fp)
 c000204:	e17fff17 	ldw	r5,-4(fp)
 c000208:	1809883a 	mov	r4,r3
 c00020c:	103ee83a 	callr	r2
 c000210:	00000206 	br	c00021c <alt_instruction_exception_entry+0x4c>
   *    (a peripheral which negates its interrupt output before its
   *    interrupt handler has been executed will cause spurious interrupts)
   */
  else {
#ifdef NIOS2_HAS_DEBUG_STUB
    NIOS2_BREAK();
 c000214:	003da03a 	break	0
      ;
#endif /* NIOS2_HAS_DEBUG_STUB */
  }

  /* We should not get here. Remove compiler warning. */
  return NIOS2_EXCEPTION_RETURN_REISSUE_INST;
 c000218:	0005883a 	mov	r2,zero
}
 c00021c:	e037883a 	mov	sp,fp
 c000220:	dfc00117 	ldw	ra,4(sp)
 c000224:	df000017 	ldw	fp,0(sp)
 c000228:	dec00204 	addi	sp,sp,8
 c00022c:	f800283a 	ret

Disassembly of section .text:

0c000230 <_start>:

    /*
     * Now that the caches are initialized, set up the stack pointer and global pointer.
     * The values provided by the linker are assumed to be correctly aligned.
     */
    movhi sp, %hi(__alt_stack_pointer)
 c000230:	06c40034 	movhi	sp,4096
    ori sp, sp, %lo(__alt_stack_pointer)
 c000234:	dec00014 	ori	sp,sp,0
    movhi gp, %hi(_gp)
 c000238:	068300b4 	movhi	gp,3074
    ori gp, gp, %lo(_gp)
 c00023c:	d68a3514 	ori	gp,gp,10452
 */
#ifndef ALT_SIM_OPTIMIZE
    /* Log that the BSS is about to be cleared. */
    ALT_LOG_PUTS(alt_log_msg_bss)

    movhi r2, %hi(__bss_start)
 c000240:	00830074 	movhi	r2,3073
    ori r2, r2, %lo(__bss_start)
 c000244:	10b1d414 	ori	r2,r2,51024

    movhi r3, %hi(__bss_end)
 c000248:	00c300b4 	movhi	r3,3074
    ori r3, r3, %lo(__bss_end)
 c00024c:	18d80e14 	ori	r3,r3,24632

    beq r2, r3, 1f
 c000250:	10c00326 	beq	r2,r3,c000260 <_start+0x30>

0:
    stw zero, (r2)
 c000254:	10000015 	stw	zero,0(r2)
    addi r2, r2, 4
 c000258:	10800104 	addi	r2,r2,4
    bltu r2, r3, 0b
 c00025c:	10fffd36 	bltu	r2,r3,c000254 <__alt_data_end+0xfc000254>
     * section aren't defined until alt_load() has been called).
     */
    mov   et, zero
#endif

    call alt_load
 c000260:	c0159f00 	call	c0159f0 <alt_load>

    /* Log that alt_main is about to be called. */
    ALT_LOG_PUTS(alt_log_msg_alt_main)

    /* Call the C entry point. It should never return. */
    call alt_main
 c000264:	c015b8c0 	call	c015b8c <alt_main>

0c000268 <alt_after_alt_main>:

    /* Wait in infinite loop in case alt_main does return. */
alt_after_alt_main:
    br alt_after_alt_main
 c000268:	003fff06 	br	c000268 <__alt_data_end+0xfc000268>

0c00026c <GetDriverandReport>:
//the bottom if
int grid[60][80];
int colorValue[60][80];
int xGol = 40, yGol = 30;

BYTE GetDriverandReport() {
 c00026c:	defff604 	addi	sp,sp,-40
 c000270:	dfc00915 	stw	ra,36(sp)
 c000274:	df000815 	stw	fp,32(sp)
 c000278:	df000804 	addi	fp,sp,32
	BYTE i;
	BYTE rcode;
	BYTE device = 0xFF;
 c00027c:	00bfffc4 	movi	r2,-1
 c000280:	e0bffd45 	stb	r2,-11(fp)
	BYTE tmpbyte;

	DEV_RECORD* tpl_ptr;
	printf("Reached USB_STATE_RUNNING (0x40)\n");
 c000284:	010300b4 	movhi	r4,3074
 c000288:	21216c04 	addi	r4,r4,-31312
 c00028c:	c004fbc0 	call	c004fbc <puts>
	for (i = 1; i < USB_NUMDEVICES; i++) {
 c000290:	00800044 	movi	r2,1
 c000294:	e0bffd05 	stb	r2,-12(fp)
 c000298:	00001f06 	br	c000318 <GetDriverandReport+0xac>
		tpl_ptr = GetDevtable(i);
 c00029c:	e0bffd03 	ldbu	r2,-12(fp)
 c0002a0:	1009883a 	mov	r4,r2
 c0002a4:	c004bf80 	call	c004bf8 <GetDevtable>
 c0002a8:	e0bffe15 	stw	r2,-8(fp)
		if (tpl_ptr->epinfo != NULL) {
 c0002ac:	e0bffe17 	ldw	r2,-8(fp)
 c0002b0:	10800017 	ldw	r2,0(r2)
 c0002b4:	10001526 	beq	r2,zero,c00030c <GetDriverandReport+0xa0>
			printf("Device: %d", i);
 c0002b8:	e0bffd03 	ldbu	r2,-12(fp)
 c0002bc:	100b883a 	mov	r5,r2
 c0002c0:	010300b4 	movhi	r4,3074
 c0002c4:	21217504 	addi	r4,r4,-31276
 c0002c8:	c004ec00 	call	c004ec0 <printf>
			printf("%s \n", devclasses[tpl_ptr->devclass]);
 c0002cc:	e0bffe17 	ldw	r2,-8(fp)
 c0002d0:	10800103 	ldbu	r2,4(r2)
 c0002d4:	10c03fcc 	andi	r3,r2,255
 c0002d8:	008300b4 	movhi	r2,3074
 c0002dc:	10a16804 	addi	r2,r2,-31328
 c0002e0:	18c7883a 	add	r3,r3,r3
 c0002e4:	18c7883a 	add	r3,r3,r3
 c0002e8:	10c5883a 	add	r2,r2,r3
 c0002ec:	10800017 	ldw	r2,0(r2)
 c0002f0:	100b883a 	mov	r5,r2
 c0002f4:	010300b4 	movhi	r4,3074
 c0002f8:	21217804 	addi	r4,r4,-31264
 c0002fc:	c004ec00 	call	c004ec0 <printf>
			device = tpl_ptr->devclass;
 c000300:	e0bffe17 	ldw	r2,-8(fp)
 c000304:	10800103 	ldbu	r2,4(r2)
 c000308:	e0bffd45 	stb	r2,-11(fp)
	BYTE device = 0xFF;
	BYTE tmpbyte;

	DEV_RECORD* tpl_ptr;
	printf("Reached USB_STATE_RUNNING (0x40)\n");
	for (i = 1; i < USB_NUMDEVICES; i++) {
 c00030c:	e0bffd03 	ldbu	r2,-12(fp)
 c000310:	10800044 	addi	r2,r2,1
 c000314:	e0bffd05 	stb	r2,-12(fp)
 c000318:	e0bffd03 	ldbu	r2,-12(fp)
 c00031c:	10800230 	cmpltui	r2,r2,8
 c000320:	103fde1e 	bne	r2,zero,c00029c <__alt_data_end+0xfc00029c>
			printf("%s \n", devclasses[tpl_ptr->devclass]);
			device = tpl_ptr->devclass;
		}
	}
	//Query rate and protocol
	rcode = XferGetIdle(addr, 0, hid_device.interface, 0, &tmpbyte);
 c000324:	d0a00003 	ldbu	r2,-32768(gp)
 c000328:	11003fcc 	andi	r4,r2,255
 c00032c:	d0a79f43 	ldbu	r2,-24963(gp)
 c000330:	10803fcc 	andi	r2,r2,255
 c000334:	e0ffff44 	addi	r3,fp,-3
 c000338:	d8c00415 	stw	r3,16(sp)
 c00033c:	00c00044 	movi	r3,1
 c000340:	d8c00315 	stw	r3,12(sp)
 c000344:	d8800215 	stw	r2,8(sp)
 c000348:	d8000115 	stw	zero,4(sp)
 c00034c:	d8000015 	stw	zero,0(sp)
 c000350:	01c00084 	movi	r7,2
 c000354:	01802844 	movi	r6,161
 c000358:	000b883a 	mov	r5,zero
 c00035c:	c003e1c0 	call	c003e1c <XferCtrlReq>
 c000360:	e0bfff05 	stb	r2,-4(fp)
	if (rcode) {   //error handling
 c000364:	e0bfff03 	ldbu	r2,-4(fp)
 c000368:	10000926 	beq	r2,zero,c000390 <GetDriverandReport+0x124>
		printf("GetIdle Error. Error code: ");
 c00036c:	010300b4 	movhi	r4,3074
 c000370:	21217a04 	addi	r4,r4,-31256
 c000374:	c004ec00 	call	c004ec0 <printf>
		printf("%x \n", rcode);
 c000378:	e0bfff03 	ldbu	r2,-4(fp)
 c00037c:	100b883a 	mov	r5,r2
 c000380:	010300b4 	movhi	r4,3074
 c000384:	21218104 	addi	r4,r4,-31228
 c000388:	c004ec00 	call	c004ec0 <printf>
 c00038c:	00000906 	br	c0003b4 <GetDriverandReport+0x148>
	} else {
		printf("Update rate: ");
 c000390:	010300b4 	movhi	r4,3074
 c000394:	21218304 	addi	r4,r4,-31220
 c000398:	c004ec00 	call	c004ec0 <printf>
		printf("%x \n", tmpbyte);
 c00039c:	e0bfff43 	ldbu	r2,-3(fp)
 c0003a0:	10803fcc 	andi	r2,r2,255
 c0003a4:	100b883a 	mov	r5,r2
 c0003a8:	010300b4 	movhi	r4,3074
 c0003ac:	21218104 	addi	r4,r4,-31228
 c0003b0:	c004ec00 	call	c004ec0 <printf>
	}
	printf("Protocol: ");
 c0003b4:	010300b4 	movhi	r4,3074
 c0003b8:	21218704 	addi	r4,r4,-31204
 c0003bc:	c004ec00 	call	c004ec0 <printf>
	rcode = XferGetProto(addr, 0, hid_device.interface, &tmpbyte);
 c0003c0:	d0a00003 	ldbu	r2,-32768(gp)
 c0003c4:	11003fcc 	andi	r4,r2,255
 c0003c8:	d0a79f43 	ldbu	r2,-24963(gp)
 c0003cc:	10803fcc 	andi	r2,r2,255
 c0003d0:	e0ffff44 	addi	r3,fp,-3
 c0003d4:	d8c00415 	stw	r3,16(sp)
 c0003d8:	00c00044 	movi	r3,1
 c0003dc:	d8c00315 	stw	r3,12(sp)
 c0003e0:	d8800215 	stw	r2,8(sp)
 c0003e4:	d8000115 	stw	zero,4(sp)
 c0003e8:	d8000015 	stw	zero,0(sp)
 c0003ec:	01c000c4 	movi	r7,3
 c0003f0:	01802844 	movi	r6,161
 c0003f4:	000b883a 	mov	r5,zero
 c0003f8:	c003e1c0 	call	c003e1c <XferCtrlReq>
 c0003fc:	e0bfff05 	stb	r2,-4(fp)
	if (rcode) {   //error handling
 c000400:	e0bfff03 	ldbu	r2,-4(fp)
 c000404:	10000926 	beq	r2,zero,c00042c <GetDriverandReport+0x1c0>
		printf("GetProto Error. Error code ");
 c000408:	010300b4 	movhi	r4,3074
 c00040c:	21218a04 	addi	r4,r4,-31192
 c000410:	c004ec00 	call	c004ec0 <printf>
		printf("%x \n", rcode);
 c000414:	e0bfff03 	ldbu	r2,-4(fp)
 c000418:	100b883a 	mov	r5,r2
 c00041c:	010300b4 	movhi	r4,3074
 c000420:	21218104 	addi	r4,r4,-31228
 c000424:	c004ec00 	call	c004ec0 <printf>
 c000428:	00000606 	br	c000444 <GetDriverandReport+0x1d8>
	} else {
		printf("%d \n", tmpbyte);
 c00042c:	e0bfff43 	ldbu	r2,-3(fp)
 c000430:	10803fcc 	andi	r2,r2,255
 c000434:	100b883a 	mov	r5,r2
 c000438:	010300b4 	movhi	r4,3074
 c00043c:	21219104 	addi	r4,r4,-31164
 c000440:	c004ec00 	call	c004ec0 <printf>
	}
	return device;
 c000444:	e0bffd43 	ldbu	r2,-11(fp)
}
 c000448:	e037883a 	mov	sp,fp
 c00044c:	dfc00117 	ldw	ra,4(sp)
 c000450:	df000017 	ldw	fp,0(sp)
 c000454:	dec00204 	addi	sp,sp,8
 c000458:	f800283a 	ret

0c00045c <setLED>:

void setLED(int LED) {
 c00045c:	defffe04 	addi	sp,sp,-8
 c000460:	df000115 	stw	fp,4(sp)
 c000464:	df000104 	addi	fp,sp,4
 c000468:	e13fff15 	stw	r4,-4(fp)
	IOWR_ALTERA_AVALON_PIO_DATA(LEDS_PIO_BASE,
 c00046c:	00806804 	movi	r2,416
 c000470:	10c00037 	ldwio	r3,0(r2)
 c000474:	01000044 	movi	r4,1
 c000478:	e0bfff17 	ldw	r2,-4(fp)
 c00047c:	2084983a 	sll	r2,r4,r2
 c000480:	1886b03a 	or	r3,r3,r2
 c000484:	00806804 	movi	r2,416
 c000488:	10c00035 	stwio	r3,0(r2)
			(IORD_ALTERA_AVALON_PIO_DATA(LEDS_PIO_BASE) | (0x001 << LED)));
}
 c00048c:	0001883a 	nop
 c000490:	e037883a 	mov	sp,fp
 c000494:	df000017 	ldw	fp,0(sp)
 c000498:	dec00104 	addi	sp,sp,4
 c00049c:	f800283a 	ret

0c0004a0 <clearLED>:

void clearLED(int LED) {
 c0004a0:	defffe04 	addi	sp,sp,-8
 c0004a4:	df000115 	stw	fp,4(sp)
 c0004a8:	df000104 	addi	fp,sp,4
 c0004ac:	e13fff15 	stw	r4,-4(fp)
	IOWR_ALTERA_AVALON_PIO_DATA(LEDS_PIO_BASE,
 c0004b0:	00806804 	movi	r2,416
 c0004b4:	10c00037 	ldwio	r3,0(r2)
 c0004b8:	01000044 	movi	r4,1
 c0004bc:	e0bfff17 	ldw	r2,-4(fp)
 c0004c0:	2084983a 	sll	r2,r4,r2
 c0004c4:	0084303a 	nor	r2,zero,r2
 c0004c8:	1886703a 	and	r3,r3,r2
 c0004cc:	00806804 	movi	r2,416
 c0004d0:	10c00035 	stwio	r3,0(r2)
			(IORD_ALTERA_AVALON_PIO_DATA(LEDS_PIO_BASE) & ~(0x001 << LED)));

}
 c0004d4:	0001883a 	nop
 c0004d8:	e037883a 	mov	sp,fp
 c0004dc:	df000017 	ldw	fp,0(sp)
 c0004e0:	dec00104 	addi	sp,sp,4
 c0004e4:	f800283a 	ret

0c0004e8 <printSignedHex0>:

void printSignedHex0(signed char value) {
 c0004e8:	defffc04 	addi	sp,sp,-16
 c0004ec:	dfc00315 	stw	ra,12(sp)
 c0004f0:	df000215 	stw	fp,8(sp)
 c0004f4:	df000204 	addi	fp,sp,8
 c0004f8:	2005883a 	mov	r2,r4
 c0004fc:	e0bfff05 	stb	r2,-4(fp)
	BYTE tens = 0;
 c000500:	e03ffe05 	stb	zero,-8(fp)
	BYTE ones = 0;
 c000504:	e03ffe45 	stb	zero,-7(fp)
	WORD pio_val = IORD_ALTERA_AVALON_PIO_DATA(HEX_DIGITS_PIO_BASE);
 c000508:	00805404 	movi	r2,336
 c00050c:	10800037 	ldwio	r2,0(r2)
 c000510:	e0bffe8d 	sth	r2,-6(fp)
	if (value < 0) {
 c000514:	e0bfff07 	ldb	r2,-4(fp)
 c000518:	1000060e 	bge	r2,zero,c000534 <printSignedHex0+0x4c>
		setLED(11);
 c00051c:	010002c4 	movi	r4,11
 c000520:	c00045c0 	call	c00045c <setLED>
		value = -value;
 c000524:	e0bfff03 	ldbu	r2,-4(fp)
 c000528:	0085c83a 	sub	r2,zero,r2
 c00052c:	e0bfff05 	stb	r2,-4(fp)
 c000530:	00000206 	br	c00053c <printSignedHex0+0x54>
	} else {
		clearLED(11);
 c000534:	010002c4 	movi	r4,11
 c000538:	c0004a00 	call	c0004a0 <clearLED>
	}
	//handled hundreds
	if (value / 100)
 c00053c:	e0bfff03 	ldbu	r2,-4(fp)
 c000540:	108018c4 	addi	r2,r2,99
 c000544:	10803fcc 	andi	r2,r2,255
 c000548:	108031f0 	cmpltui	r2,r2,199
 c00054c:	1000031e 	bne	r2,zero,c00055c <printSignedHex0+0x74>
		setLED(13);
 c000550:	01000344 	movi	r4,13
 c000554:	c00045c0 	call	c00045c <setLED>
 c000558:	00000206 	br	c000564 <printSignedHex0+0x7c>
	else
		clearLED(13);
 c00055c:	01000344 	movi	r4,13
 c000560:	c0004a00 	call	c0004a0 <clearLED>

	value = value % 100;
 c000564:	e0bfff07 	ldb	r2,-4(fp)
 c000568:	01401904 	movi	r5,100
 c00056c:	1009883a 	mov	r4,r2
 c000570:	c004d380 	call	c004d38 <__modsi3>
 c000574:	e0bfff05 	stb	r2,-4(fp)
	tens = value / 10;
 c000578:	e0bfff07 	ldb	r2,-4(fp)
 c00057c:	01400284 	movi	r5,10
 c000580:	1009883a 	mov	r4,r2
 c000584:	c004cb40 	call	c004cb4 <__divsi3>
 c000588:	e0bffe05 	stb	r2,-8(fp)
	ones = value % 10;
 c00058c:	e0bfff07 	ldb	r2,-4(fp)
 c000590:	01400284 	movi	r5,10
 c000594:	1009883a 	mov	r4,r2
 c000598:	c004d380 	call	c004d38 <__modsi3>
 c00059c:	e0bffe45 	stb	r2,-7(fp)

	pio_val &= 0x00FF;
 c0005a0:	e0bffe8b 	ldhu	r2,-6(fp)
 c0005a4:	10803fcc 	andi	r2,r2,255
 c0005a8:	e0bffe8d 	sth	r2,-6(fp)
	pio_val |= (tens << 12);
 c0005ac:	e0bffe03 	ldbu	r2,-8(fp)
 c0005b0:	1004933a 	slli	r2,r2,12
 c0005b4:	1007883a 	mov	r3,r2
 c0005b8:	e0bffe8b 	ldhu	r2,-6(fp)
 c0005bc:	1884b03a 	or	r2,r3,r2
 c0005c0:	e0bffe8d 	sth	r2,-6(fp)
	pio_val |= (ones << 8);
 c0005c4:	e0bffe43 	ldbu	r2,-7(fp)
 c0005c8:	1004923a 	slli	r2,r2,8
 c0005cc:	1007883a 	mov	r3,r2
 c0005d0:	e0bffe8b 	ldhu	r2,-6(fp)
 c0005d4:	1884b03a 	or	r2,r3,r2
 c0005d8:	e0bffe8d 	sth	r2,-6(fp)

	IOWR_ALTERA_AVALON_PIO_DATA(HEX_DIGITS_PIO_BASE, pio_val);
 c0005dc:	e0fffe8b 	ldhu	r3,-6(fp)
 c0005e0:	00805404 	movi	r2,336
 c0005e4:	10c00035 	stwio	r3,0(r2)
}
 c0005e8:	0001883a 	nop
 c0005ec:	e037883a 	mov	sp,fp
 c0005f0:	dfc00117 	ldw	ra,4(sp)
 c0005f4:	df000017 	ldw	fp,0(sp)
 c0005f8:	dec00204 	addi	sp,sp,8
 c0005fc:	f800283a 	ret

0c000600 <printSignedHex1>:

void printSignedHex1(signed char value) {
 c000600:	defffb04 	addi	sp,sp,-20
 c000604:	dfc00415 	stw	ra,16(sp)
 c000608:	df000315 	stw	fp,12(sp)
 c00060c:	df000304 	addi	fp,sp,12
 c000610:	2005883a 	mov	r2,r4
 c000614:	e0bfff05 	stb	r2,-4(fp)
	BYTE tens = 0;
 c000618:	e03ffd05 	stb	zero,-12(fp)
	BYTE ones = 0;
 c00061c:	e03ffd45 	stb	zero,-11(fp)
	DWORD pio_val = IORD_ALTERA_AVALON_PIO_DATA(HEX_DIGITS_PIO_BASE);
 c000620:	00805404 	movi	r2,336
 c000624:	10800037 	ldwio	r2,0(r2)
 c000628:	e0bffe15 	stw	r2,-8(fp)
	if (value < 0) {
 c00062c:	e0bfff07 	ldb	r2,-4(fp)
 c000630:	1000060e 	bge	r2,zero,c00064c <printSignedHex1+0x4c>
		setLED(10);
 c000634:	01000284 	movi	r4,10
 c000638:	c00045c0 	call	c00045c <setLED>
		value = -value;
 c00063c:	e0bfff03 	ldbu	r2,-4(fp)
 c000640:	0085c83a 	sub	r2,zero,r2
 c000644:	e0bfff05 	stb	r2,-4(fp)
 c000648:	00000206 	br	c000654 <printSignedHex1+0x54>
	} else {
		clearLED(10);
 c00064c:	01000284 	movi	r4,10
 c000650:	c0004a00 	call	c0004a0 <clearLED>
	}
	//handled hundreds
	if (value / 100)
 c000654:	e0bfff03 	ldbu	r2,-4(fp)
 c000658:	108018c4 	addi	r2,r2,99
 c00065c:	10803fcc 	andi	r2,r2,255
 c000660:	108031f0 	cmpltui	r2,r2,199
 c000664:	1000031e 	bne	r2,zero,c000674 <printSignedHex1+0x74>
		setLED(12);
 c000668:	01000304 	movi	r4,12
 c00066c:	c00045c0 	call	c00045c <setLED>
 c000670:	00000206 	br	c00067c <printSignedHex1+0x7c>
	else
		clearLED(12);
 c000674:	01000304 	movi	r4,12
 c000678:	c0004a00 	call	c0004a0 <clearLED>

	value = value % 100;
 c00067c:	e0bfff07 	ldb	r2,-4(fp)
 c000680:	01401904 	movi	r5,100
 c000684:	1009883a 	mov	r4,r2
 c000688:	c004d380 	call	c004d38 <__modsi3>
 c00068c:	e0bfff05 	stb	r2,-4(fp)
	tens = value / 10;
 c000690:	e0bfff07 	ldb	r2,-4(fp)
 c000694:	01400284 	movi	r5,10
 c000698:	1009883a 	mov	r4,r2
 c00069c:	c004cb40 	call	c004cb4 <__divsi3>
 c0006a0:	e0bffd05 	stb	r2,-12(fp)
	ones = value % 10;
 c0006a4:	e0bfff07 	ldb	r2,-4(fp)
 c0006a8:	01400284 	movi	r5,10
 c0006ac:	1009883a 	mov	r4,r2
 c0006b0:	c004d380 	call	c004d38 <__modsi3>
 c0006b4:	e0bffd45 	stb	r2,-11(fp)
	tens = value / 10;
 c0006b8:	e0bfff07 	ldb	r2,-4(fp)
 c0006bc:	01400284 	movi	r5,10
 c0006c0:	1009883a 	mov	r4,r2
 c0006c4:	c004cb40 	call	c004cb4 <__divsi3>
 c0006c8:	e0bffd05 	stb	r2,-12(fp)
	ones = value % 10;
 c0006cc:	e0bfff07 	ldb	r2,-4(fp)
 c0006d0:	01400284 	movi	r5,10
 c0006d4:	1009883a 	mov	r4,r2
 c0006d8:	c004d380 	call	c004d38 <__modsi3>
 c0006dc:	e0bffd45 	stb	r2,-11(fp)

	pio_val &= 0xFF00;
 c0006e0:	e0bffe17 	ldw	r2,-8(fp)
 c0006e4:	10bfc00c 	andi	r2,r2,65280
 c0006e8:	e0bffe15 	stw	r2,-8(fp)
	pio_val |= (tens << 4);
 c0006ec:	e0bffd03 	ldbu	r2,-12(fp)
 c0006f0:	1004913a 	slli	r2,r2,4
 c0006f4:	1007883a 	mov	r3,r2
 c0006f8:	e0bffe17 	ldw	r2,-8(fp)
 c0006fc:	10c4b03a 	or	r2,r2,r3
 c000700:	e0bffe15 	stw	r2,-8(fp)
	pio_val |= (ones << 0);
 c000704:	e0bffd43 	ldbu	r2,-11(fp)
 c000708:	e0fffe17 	ldw	r3,-8(fp)
 c00070c:	1884b03a 	or	r2,r3,r2
 c000710:	e0bffe15 	stw	r2,-8(fp)

	IOWR_ALTERA_AVALON_PIO_DATA(HEX_DIGITS_PIO_BASE, pio_val);
 c000714:	e0fffe17 	ldw	r3,-8(fp)
 c000718:	00805404 	movi	r2,336
 c00071c:	10c00035 	stwio	r3,0(r2)
}
 c000720:	0001883a 	nop
 c000724:	e037883a 	mov	sp,fp
 c000728:	dfc00117 	ldw	ra,4(sp)
 c00072c:	df000017 	ldw	fp,0(sp)
 c000730:	dec00204 	addi	sp,sp,8
 c000734:	f800283a 	ret

0c000738 <setKeycode>:

void setKeycode(WORD keycode)
{
 c000738:	defffe04 	addi	sp,sp,-8
 c00073c:	df000115 	stw	fp,4(sp)
 c000740:	df000104 	addi	fp,sp,4
 c000744:	2005883a 	mov	r2,r4
 c000748:	e0bfff0d 	sth	r2,-4(fp)
	IOWR_ALTERA_AVALON_PIO_DATA(0x00000160, keycode);
 c00074c:	e0ffff0b 	ldhu	r3,-4(fp)
 c000750:	00805804 	movi	r2,352
 c000754:	10c00035 	stwio	r3,0(r2)
}
 c000758:	0001883a 	nop
 c00075c:	e037883a 	mov	sp,fp
 c000760:	df000017 	ldw	fp,0(sp)
 c000764:	dec00104 	addi	sp,sp,4
 c000768:	f800283a 	ret

0c00076c <keyInput>:

void keyInput(int x, int y, int index, int color) {
 c00076c:	deffea04 	addi	sp,sp,-88
 c000770:	dfc01515 	stw	ra,84(sp)
 c000774:	df001415 	stw	fp,80(sp)
 c000778:	dc401315 	stw	r17,76(sp)
 c00077c:	dc001215 	stw	r16,72(sp)
 c000780:	df001404 	addi	fp,sp,80
 c000784:	e13ffa15 	stw	r4,-24(fp)
 c000788:	e17ffb15 	stw	r5,-20(fp)
 c00078c:	e1bffc15 	stw	r6,-16(fp)
 c000790:	e1fffd15 	stw	r7,-12(fp)
	int xChange = 0, yChange = 1, newIndex = 4, newColor = color, maxY = 48;
 c000794:	e03fed15 	stw	zero,-76(fp)
 c000798:	00800044 	movi	r2,1
 c00079c:	e0bfee15 	stw	r2,-72(fp)
 c0007a0:	00800104 	movi	r2,4
 c0007a4:	e0bfef15 	stw	r2,-68(fp)
 c0007a8:	e0bffd17 	ldw	r2,-12(fp)
 c0007ac:	e0bff015 	stw	r2,-64(fp)
 c0007b0:	00800c04 	movi	r2,48
 c0007b4:	e0bff115 	stw	r2,-60(fp)
	BYTE rcode;
	BOOT_MOUSE_REPORT buf;		//USB mouse report
	BOOT_KBD_REPORT kbdbuf;

	BYTE runningdebugflag = 0;//flag to dump out a bunch of information when we first get to USB_STATE_RUNNING
 c0007b8:	e03ff205 	stb	zero,-56(fp)
	BYTE errorflag = 0; //flag once we get an error device so we don't keep dumping out state info
 c0007bc:	e03ff245 	stb	zero,-55(fp)
	BYTE device;
	WORD keycode;

	printf("initializing MAX3421E...\n");
 c0007c0:	010300b4 	movhi	r4,3074
 c0007c4:	21219304 	addi	r4,r4,-31156
 c0007c8:	c004fbc0 	call	c004fbc <puts>
	MAX3421E_init();
 c0007cc:	c003c240 	call	c003c24 <MAX3421E_init>
	printf("initializing USB...\n");
 c0007d0:	010300b4 	movhi	r4,3074
 c0007d4:	21219a04 	addi	r4,r4,-31128
 c0007d8:	c004fbc0 	call	c004fbc <puts>
	USB_init();
 c0007dc:	c0043d00 	call	c0043d0 <USB_init>
	while (1) {
		//printf(".");
		MAX3421E_Task();
 c0007e0:	c003cb80 	call	c003cb8 <MAX3421E_Task>
		USB_Task();
 c0007e4:	c0044680 	call	c004468 <USB_Task>
		//usleep (500000);
		if (GetUsbTaskState() == USB_STATE_RUNNING) {
 c0007e8:	c004bd80 	call	c004bd8 <GetUsbTaskState>
 c0007ec:	10803fcc 	andi	r2,r2,255
 c0007f0:	10801018 	cmpnei	r2,r2,64
 c0007f4:	10030a1e 	bne	r2,zero,c001420 <keyInput+0xcb4>
			if (!runningdebugflag) {
 c0007f8:	e0bff203 	ldbu	r2,-56(fp)
 c0007fc:	1000071e 	bne	r2,zero,c00081c <keyInput+0xb0>
				runningdebugflag = 1;
 c000800:	00800044 	movi	r2,1
 c000804:	e0bff205 	stb	r2,-56(fp)
				setLED(9);
 c000808:	01000244 	movi	r4,9
 c00080c:	c00045c0 	call	c00045c <setLED>
				device = GetDriverandReport();
 c000810:	c00026c0 	call	c00026c <GetDriverandReport>
 c000814:	e0bff285 	stb	r2,-54(fp)
 c000818:	003ff106 	br	c0007e0 <__alt_data_end+0xfc0007e0>
			} else if (device == 1) {
 c00081c:	e0bff283 	ldbu	r2,-54(fp)
 c000820:	10800058 	cmpnei	r2,r2,1
 c000824:	103fee1e 	bne	r2,zero,c0007e0 <__alt_data_end+0xfc0007e0>
				//run keyboard debug polling
				rcode = kbdPoll(&kbdbuf);
 c000828:	e0bff744 	addi	r2,fp,-35
 c00082c:	1009883a 	mov	r4,r2
 c000830:	c0035180 	call	c003518 <kbdPoll>
 c000834:	e0bff505 	stb	r2,-44(fp)
				if (rcode == hrNAK) {
 c000838:	e0bff503 	ldbu	r2,-44(fp)
 c00083c:	10800118 	cmpnei	r2,r2,4
 c000840:	10031726 	beq	r2,zero,c0014a0 <keyInput+0xd34>
					continue; //NAK means no new data
				} else if (rcode) {
 c000844:	e0bff503 	ldbu	r2,-44(fp)
 c000848:	10000926 	beq	r2,zero,c000870 <keyInput+0x104>
					printf("Rcode: ");
 c00084c:	010300b4 	movhi	r4,3074
 c000850:	21219f04 	addi	r4,r4,-31108
 c000854:	c004ec00 	call	c004ec0 <printf>
					printf("%x \n", rcode);
 c000858:	e0bff503 	ldbu	r2,-44(fp)
 c00085c:	100b883a 	mov	r5,r2
 c000860:	010300b4 	movhi	r4,3074
 c000864:	21218104 	addi	r4,r4,-31228
 c000868:	c004ec00 	call	c004ec0 <printf>
					continue;
 c00086c:	00030d06 	br	c0014a4 <keyInput+0xd38>
				}
				//printf("keycodes: ");
				for (int i = 0; i < 6; i++) {
 c000870:	e03ff315 	stw	zero,-52(fp)
 c000874:	00003b06 	br	c000964 <keyInput+0x1f8>
					if (kbdbuf.keycode[i] != 0) {
 c000878:	e0fff7c4 	addi	r3,fp,-33
 c00087c:	e0bff317 	ldw	r2,-52(fp)
 c000880:	1885883a 	add	r2,r3,r2
 c000884:	10800003 	ldbu	r2,0(r2)
 c000888:	10803fcc 	andi	r2,r2,255
 c00088c:	10003226 	beq	r2,zero,c000958 <keyInput+0x1ec>
						printf("%x - ", kbdbuf.keycode[i]);
 c000890:	e0fff7c4 	addi	r3,fp,-33
 c000894:	e0bff317 	ldw	r2,-52(fp)
 c000898:	1885883a 	add	r2,r3,r2
 c00089c:	10800003 	ldbu	r2,0(r2)
 c0008a0:	10803fcc 	andi	r2,r2,255
 c0008a4:	100b883a 	mov	r5,r2
 c0008a8:	010300b4 	movhi	r4,3074
 c0008ac:	2121a104 	addi	r4,r4,-31100
 c0008b0:	c004ec00 	call	c004ec0 <printf>
						if (kbdbuf.keycode[i] == 26) { //W
 c0008b4:	e0fff7c4 	addi	r3,fp,-33
 c0008b8:	e0bff317 	ldw	r2,-52(fp)
 c0008bc:	1885883a 	add	r2,r3,r2
 c0008c0:	10800003 	ldbu	r2,0(r2)
 c0008c4:	10803fcc 	andi	r2,r2,255
 c0008c8:	10800698 	cmpnei	r2,r2,26
 c0008cc:	1000041e 	bne	r2,zero,c0008e0 <keyInput+0x174>
							//printf("W %u , %u - %u ;",x,y, grid[y][x])
							yChange = -1;
 c0008d0:	00bfffc4 	movi	r2,-1
 c0008d4:	e0bfee15 	stw	r2,-72(fp)
							xChange = 0;
 c0008d8:	e03fed15 	stw	zero,-76(fp)
 c0008dc:	00001e06 	br	c000958 <keyInput+0x1ec>
						} else if (kbdbuf.keycode[i] == 4) { //A
 c0008e0:	e0fff7c4 	addi	r3,fp,-33
 c0008e4:	e0bff317 	ldw	r2,-52(fp)
 c0008e8:	1885883a 	add	r2,r3,r2
 c0008ec:	10800003 	ldbu	r2,0(r2)
 c0008f0:	10803fcc 	andi	r2,r2,255
 c0008f4:	10800118 	cmpnei	r2,r2,4
 c0008f8:	1000031e 	bne	r2,zero,c000908 <keyInput+0x19c>
							//printf("A %u , %u - %u ;",x,y, grid[y][x]);
							xChange = -1;
 c0008fc:	00bfffc4 	movi	r2,-1
 c000900:	e0bfed15 	stw	r2,-76(fp)
 c000904:	00001406 	br	c000958 <keyInput+0x1ec>
						} else if (kbdbuf.keycode[i] == 22) { //S
 c000908:	e0fff7c4 	addi	r3,fp,-33
 c00090c:	e0bff317 	ldw	r2,-52(fp)
 c000910:	1885883a 	add	r2,r3,r2
 c000914:	10800003 	ldbu	r2,0(r2)
 c000918:	10803fcc 	andi	r2,r2,255
 c00091c:	10800598 	cmpnei	r2,r2,22
 c000920:	1000041e 	bne	r2,zero,c000934 <keyInput+0x1c8>
							//printf("S %u , %u - %u ;",x,y, grid[y][x])
							yChange = 1;
 c000924:	00800044 	movi	r2,1
 c000928:	e0bfee15 	stw	r2,-72(fp)
							xChange = 0;
 c00092c:	e03fed15 	stw	zero,-76(fp)
 c000930:	00000906 	br	c000958 <keyInput+0x1ec>
						} else if (kbdbuf.keycode[i] == 7) { //D
 c000934:	e0fff7c4 	addi	r3,fp,-33
 c000938:	e0bff317 	ldw	r2,-52(fp)
 c00093c:	1885883a 	add	r2,r3,r2
 c000940:	10800003 	ldbu	r2,0(r2)
 c000944:	10803fcc 	andi	r2,r2,255
 c000948:	108001d8 	cmpnei	r2,r2,7
 c00094c:	1000021e 	bne	r2,zero,c000958 <keyInput+0x1ec>
							//printf("D %u , %u - %u ;",x,y, grid[y][x])
							xChange = 1;
 c000950:	00800044 	movi	r2,1
 c000954:	e0bfed15 	stw	r2,-76(fp)
					printf("Rcode: ");
					printf("%x \n", rcode);
					continue;
				}
				//printf("keycodes: ");
				for (int i = 0; i < 6; i++) {
 c000958:	e0bff317 	ldw	r2,-52(fp)
 c00095c:	10800044 	addi	r2,r2,1
 c000960:	e0bff315 	stw	r2,-52(fp)
 c000964:	e0bff317 	ldw	r2,-52(fp)
 c000968:	10800190 	cmplti	r2,r2,6
 c00096c:	103fc21e 	bne	r2,zero,c000878 <__alt_data_end+0xfc000878>
							xChange = 1;
						}
					}
				}

				if (xChange == 1 && x >=75) {
 c000970:	e0bfed17 	ldw	r2,-76(fp)
 c000974:	10800058 	cmpnei	r2,r2,1
 c000978:	1000071e 	bne	r2,zero,c000998 <keyInput+0x22c>
 c00097c:	e0bffa17 	ldw	r2,-24(fp)
 c000980:	108012d0 	cmplti	r2,r2,75
 c000984:	1000041e 	bne	r2,zero,c000998 <keyInput+0x22c>
					xChange*=-1;
 c000988:	e0bfed17 	ldw	r2,-76(fp)
 c00098c:	0085c83a 	sub	r2,zero,r2
 c000990:	e0bfed15 	stw	r2,-76(fp)
 c000994:	00001b06 	br	c000a04 <keyInput+0x298>
				} else if (xChange == -1 && x <=10) {
 c000998:	e0bfed17 	ldw	r2,-76(fp)
 c00099c:	10bfffd8 	cmpnei	r2,r2,-1
 c0009a0:	1000031e 	bne	r2,zero,c0009b0 <keyInput+0x244>
 c0009a4:	e0bffa17 	ldw	r2,-24(fp)
 c0009a8:	108002c8 	cmpgei	r2,r2,11
 c0009ac:	10001426 	beq	r2,zero,c000a00 <keyInput+0x294>
					xChange*=1;
				} else if (yChange == -1 && y <=10) {
 c0009b0:	e0bfee17 	ldw	r2,-72(fp)
 c0009b4:	10bfffd8 	cmpnei	r2,r2,-1
 c0009b8:	1000071e 	bne	r2,zero,c0009d8 <keyInput+0x26c>
 c0009bc:	e0bffb17 	ldw	r2,-20(fp)
 c0009c0:	108002c8 	cmpgei	r2,r2,11
 c0009c4:	1000041e 	bne	r2,zero,c0009d8 <keyInput+0x26c>
					yChange*=-1;
 c0009c8:	e0bfee17 	ldw	r2,-72(fp)
 c0009cc:	0085c83a 	sub	r2,zero,r2
 c0009d0:	e0bfee15 	stw	r2,-72(fp)
 c0009d4:	00000b06 	br	c000a04 <keyInput+0x298>
				} else if (yChange == 1 && y >=70) {
 c0009d8:	e0bfee17 	ldw	r2,-72(fp)
 c0009dc:	10800058 	cmpnei	r2,r2,1
 c0009e0:	1000081e 	bne	r2,zero,c000a04 <keyInput+0x298>
 c0009e4:	e0bffb17 	ldw	r2,-20(fp)
 c0009e8:	10801190 	cmplti	r2,r2,70
 c0009ec:	1000051e 	bne	r2,zero,c000a04 <keyInput+0x298>
					yChange*=-1;
 c0009f0:	e0bfee17 	ldw	r2,-72(fp)
 c0009f4:	0085c83a 	sub	r2,zero,r2
 c0009f8:	e0bfee15 	stw	r2,-72(fp)
 c0009fc:	00000106 	br	c000a04 <keyInput+0x298>
				}

				if (xChange == 1 && x >=75) {
					xChange*=-1;
				} else if (xChange == -1 && x <=10) {
					xChange*=1;
 c000a00:	0001883a 	nop
				} else if (yChange == -1 && y <=10) {
					yChange*=-1;
				} else if (yChange == 1 && y >=70) {
					yChange*=-1;
				} //VGA screen border
				switch(newIndex) {
 c000a04:	e0bfef17 	ldw	r2,-68(fp)
 c000a08:	108001a8 	cmpgeui	r2,r2,6
 c000a0c:	1001ca1e 	bne	r2,zero,c001138 <keyInput+0x9cc>
 c000a10:	e0bfef17 	ldw	r2,-68(fp)
 c000a14:	100690ba 	slli	r3,r2,2
 c000a18:	00830034 	movhi	r2,3072
 c000a1c:	10828b04 	addi	r2,r2,2604
 c000a20:	1885883a 	add	r2,r3,r2
 c000a24:	10800017 	ldw	r2,0(r2)
 c000a28:	1000683a 	jmp	r2
 c000a2c:	0c000a44 	addi	r16,at,41
 c000a30:	0c000b18 	cmpnei	r16,at,44
 c000a34:	0c000c48 	cmpgei	r16,at,49
 c000a38:	0c000d70 	cmpltui	r16,at,53
 c000a3c:	0c000ec4 	addi	r16,at,59
 c000a40:	0c000fe0 	cmpeqi	r16,at,63
					case 0  :
						if (grid[y+1][x] == 1){//if bottom pixel is going to be an edge
 c000a44:	e0bffb17 	ldw	r2,-20(fp)
 c000a48:	10800044 	addi	r2,r2,1
 c000a4c:	040300b4 	movhi	r16,3074
 c000a50:	8431fc04 	addi	r16,r16,-14352
 c000a54:	01401404 	movi	r5,80
 c000a58:	1009883a 	mov	r4,r2
 c000a5c:	c004e680 	call	c004e68 <__mulsi3>
 c000a60:	1007883a 	mov	r3,r2
 c000a64:	e0bffa17 	ldw	r2,-24(fp)
 c000a68:	1885883a 	add	r2,r3,r2
 c000a6c:	1085883a 	add	r2,r2,r2
 c000a70:	1085883a 	add	r2,r2,r2
 c000a74:	8085883a 	add	r2,r16,r2
 c000a78:	10800017 	ldw	r2,0(r2)
 c000a7c:	10800058 	cmpnei	r2,r2,1
 c000a80:	1002031e 	bne	r2,zero,c001290 <keyInput+0xb24>
							setEdge(x,y);
 c000a84:	e17ffb17 	ldw	r5,-20(fp)
 c000a88:	e13ffa17 	ldw	r4,-24(fp)
 c000a8c:	c0014c40 	call	c0014c4 <setEdge>
							setEdge(x,y-1);
 c000a90:	e0bffb17 	ldw	r2,-20(fp)
 c000a94:	10bfffc4 	addi	r2,r2,-1
 c000a98:	100b883a 	mov	r5,r2
 c000a9c:	e13ffa17 	ldw	r4,-24(fp)
 c000aa0:	c0014c40 	call	c0014c4 <setEdge>
							setEdge(x,y-2);
 c000aa4:	e0bffb17 	ldw	r2,-20(fp)
 c000aa8:	10bfff84 	addi	r2,r2,-2
 c000aac:	100b883a 	mov	r5,r2
 c000ab0:	e13ffa17 	ldw	r4,-24(fp)
 c000ab4:	c0014c40 	call	c0014c4 <setEdge>
							setEdge(x,y-3);//set as edge
 c000ab8:	e0bffb17 	ldw	r2,-20(fp)
 c000abc:	10bfff44 	addi	r2,r2,-3
 c000ac0:	100b883a 	mov	r5,r2
 c000ac4:	e13ffa17 	ldw	r4,-24(fp)
 c000ac8:	c0014c40 	call	c0014c4 <setEdge>
							newIndex = rand()%7;
 c000acc:	c004fe80 	call	c004fe8 <rand>
 c000ad0:	014001c4 	movi	r5,7
 c000ad4:	1009883a 	mov	r4,r2
 c000ad8:	c004d380 	call	c004d38 <__modsi3>
 c000adc:	e0bfef15 	stw	r2,-68(fp)
							newColor = rand()%15+1;
 c000ae0:	c004fe80 	call	c004fe8 <rand>
 c000ae4:	014003c4 	movi	r5,15
 c000ae8:	1009883a 	mov	r4,r2
 c000aec:	c004d380 	call	c004d38 <__modsi3>
 c000af0:	10800044 	addi	r2,r2,1
 c000af4:	e0bff015 	stw	r2,-64(fp)
							y = 13;
 c000af8:	00800344 	movi	r2,13
 c000afc:	e0bffb15 	stw	r2,-20(fp)
							x = 40;
 c000b00:	00800a04 	movi	r2,40
 c000b04:	e0bffa15 	stw	r2,-24(fp)
							maxY-=4;
 c000b08:	e0bff117 	ldw	r2,-60(fp)
 c000b0c:	10bfff04 	addi	r2,r2,-4
 c000b10:	e0bff115 	stw	r2,-60(fp)
						}
						break;
 c000b14:	0001de06 	br	c001290 <keyInput+0xb24>
					case 1  :
						if (grid[y-2][x+1] ==  1|| //if side block is an edge
 c000b18:	e0bffb17 	ldw	r2,-20(fp)
 c000b1c:	10ffff84 	addi	r3,r2,-2
 c000b20:	e0bffa17 	ldw	r2,-24(fp)
 c000b24:	14400044 	addi	r17,r2,1
 c000b28:	040300b4 	movhi	r16,3074
 c000b2c:	8431fc04 	addi	r16,r16,-14352
 c000b30:	01401404 	movi	r5,80
 c000b34:	1809883a 	mov	r4,r3
 c000b38:	c004e680 	call	c004e68 <__mulsi3>
 c000b3c:	1445883a 	add	r2,r2,r17
 c000b40:	1085883a 	add	r2,r2,r2
 c000b44:	1085883a 	add	r2,r2,r2
 c000b48:	8085883a 	add	r2,r16,r2
 c000b4c:	10800017 	ldw	r2,0(r2)
 c000b50:	10800060 	cmpeqi	r2,r2,1
 c000b54:	1000101e 	bne	r2,zero,c000b98 <keyInput+0x42c>
							grid[y+1][x] == 1){//if bottom pixel is going to be an edge
 c000b58:	e0bffb17 	ldw	r2,-20(fp)
 c000b5c:	10800044 	addi	r2,r2,1
 c000b60:	040300b4 	movhi	r16,3074
 c000b64:	8431fc04 	addi	r16,r16,-14352
 c000b68:	01401404 	movi	r5,80
 c000b6c:	1009883a 	mov	r4,r2
 c000b70:	c004e680 	call	c004e68 <__mulsi3>
 c000b74:	1007883a 	mov	r3,r2
 c000b78:	e0bffa17 	ldw	r2,-24(fp)
 c000b7c:	1885883a 	add	r2,r3,r2
 c000b80:	1085883a 	add	r2,r2,r2
 c000b84:	1085883a 	add	r2,r2,r2
 c000b88:	8085883a 	add	r2,r16,r2
 c000b8c:	10800017 	ldw	r2,0(r2)
							x = 40;
							maxY-=4;
						}
						break;
					case 1  :
						if (grid[y-2][x+1] ==  1|| //if side block is an edge
 c000b90:	10800058 	cmpnei	r2,r2,1
 c000b94:	1001c01e 	bne	r2,zero,c001298 <keyInput+0xb2c>
							grid[y+1][x] == 1){//if bottom pixel is going to be an edge
							setEdge(x,y);
 c000b98:	e17ffb17 	ldw	r5,-20(fp)
 c000b9c:	e13ffa17 	ldw	r4,-24(fp)
 c000ba0:	c0014c40 	call	c0014c4 <setEdge>
							setEdge(x,y-1);
 c000ba4:	e0bffb17 	ldw	r2,-20(fp)
 c000ba8:	10bfffc4 	addi	r2,r2,-1
 c000bac:	100b883a 	mov	r5,r2
 c000bb0:	e13ffa17 	ldw	r4,-24(fp)
 c000bb4:	c0014c40 	call	c0014c4 <setEdge>
							setEdge(x,y-2);
 c000bb8:	e0bffb17 	ldw	r2,-20(fp)
 c000bbc:	10bfff84 	addi	r2,r2,-2
 c000bc0:	100b883a 	mov	r5,r2
 c000bc4:	e13ffa17 	ldw	r4,-24(fp)
 c000bc8:	c0014c40 	call	c0014c4 <setEdge>
							setEdge(x,y-3);
 c000bcc:	e0bffb17 	ldw	r2,-20(fp)
 c000bd0:	10bfff44 	addi	r2,r2,-3
 c000bd4:	100b883a 	mov	r5,r2
 c000bd8:	e13ffa17 	ldw	r4,-24(fp)
 c000bdc:	c0014c40 	call	c0014c4 <setEdge>
							setEdge(x+1,y-3);//set as edge
 c000be0:	e0bffa17 	ldw	r2,-24(fp)
 c000be4:	10c00044 	addi	r3,r2,1
 c000be8:	e0bffb17 	ldw	r2,-20(fp)
 c000bec:	10bfff44 	addi	r2,r2,-3
 c000bf0:	100b883a 	mov	r5,r2
 c000bf4:	1809883a 	mov	r4,r3
 c000bf8:	c0014c40 	call	c0014c4 <setEdge>
							newIndex = rand()%7;
 c000bfc:	c004fe80 	call	c004fe8 <rand>
 c000c00:	014001c4 	movi	r5,7
 c000c04:	1009883a 	mov	r4,r2
 c000c08:	c004d380 	call	c004d38 <__modsi3>
 c000c0c:	e0bfef15 	stw	r2,-68(fp)
							newColor = rand()%15+1;
 c000c10:	c004fe80 	call	c004fe8 <rand>
 c000c14:	014003c4 	movi	r5,15
 c000c18:	1009883a 	mov	r4,r2
 c000c1c:	c004d380 	call	c004d38 <__modsi3>
 c000c20:	10800044 	addi	r2,r2,1
 c000c24:	e0bff015 	stw	r2,-64(fp)
							y = 13;
 c000c28:	00800344 	movi	r2,13
 c000c2c:	e0bffb15 	stw	r2,-20(fp)
							x = 40;
 c000c30:	00800a04 	movi	r2,40
 c000c34:	e0bffa15 	stw	r2,-24(fp)
							maxY-=4;
 c000c38:	e0bff117 	ldw	r2,-60(fp)
 c000c3c:	10bfff04 	addi	r2,r2,-4
 c000c40:	e0bff115 	stw	r2,-60(fp)
						}
						break;
 c000c44:	00019406 	br	c001298 <keyInput+0xb2c>
					case 2  :
						if (grid[y+1][x+1] ==  1|| //if side block is an edge
 c000c48:	e0bffb17 	ldw	r2,-20(fp)
 c000c4c:	10c00044 	addi	r3,r2,1
 c000c50:	e0bffa17 	ldw	r2,-24(fp)
 c000c54:	14400044 	addi	r17,r2,1
 c000c58:	040300b4 	movhi	r16,3074
 c000c5c:	8431fc04 	addi	r16,r16,-14352
 c000c60:	01401404 	movi	r5,80
 c000c64:	1809883a 	mov	r4,r3
 c000c68:	c004e680 	call	c004e68 <__mulsi3>
 c000c6c:	1445883a 	add	r2,r2,r17
 c000c70:	1085883a 	add	r2,r2,r2
 c000c74:	1085883a 	add	r2,r2,r2
 c000c78:	8085883a 	add	r2,r16,r2
 c000c7c:	10800017 	ldw	r2,0(r2)
 c000c80:	10800060 	cmpeqi	r2,r2,1
 c000c84:	1000101e 	bne	r2,zero,c000cc8 <keyInput+0x55c>
							grid[y+1][x] == 1){//if bottom pixel is going to be an edge
 c000c88:	e0bffb17 	ldw	r2,-20(fp)
 c000c8c:	10800044 	addi	r2,r2,1
 c000c90:	040300b4 	movhi	r16,3074
 c000c94:	8431fc04 	addi	r16,r16,-14352
 c000c98:	01401404 	movi	r5,80
 c000c9c:	1009883a 	mov	r4,r2
 c000ca0:	c004e680 	call	c004e68 <__mulsi3>
 c000ca4:	1007883a 	mov	r3,r2
 c000ca8:	e0bffa17 	ldw	r2,-24(fp)
 c000cac:	1885883a 	add	r2,r3,r2
 c000cb0:	1085883a 	add	r2,r2,r2
 c000cb4:	1085883a 	add	r2,r2,r2
 c000cb8:	8085883a 	add	r2,r16,r2
 c000cbc:	10800017 	ldw	r2,0(r2)
							x = 40;
							maxY-=4;
						}
						break;
					case 2  :
						if (grid[y+1][x+1] ==  1|| //if side block is an edge
 c000cc0:	10800058 	cmpnei	r2,r2,1
 c000cc4:	1001761e 	bne	r2,zero,c0012a0 <keyInput+0xb34>
							grid[y+1][x] == 1){//if bottom pixel is going to be an edge
							setEdge(x,y);
 c000cc8:	e17ffb17 	ldw	r5,-20(fp)
 c000ccc:	e13ffa17 	ldw	r4,-24(fp)
 c000cd0:	c0014c40 	call	c0014c4 <setEdge>
							setEdge(x,y-1);
 c000cd4:	e0bffb17 	ldw	r2,-20(fp)
 c000cd8:	10bfffc4 	addi	r2,r2,-1
 c000cdc:	100b883a 	mov	r5,r2
 c000ce0:	e13ffa17 	ldw	r4,-24(fp)
 c000ce4:	c0014c40 	call	c0014c4 <setEdge>
							setEdge(x,y-2);
 c000ce8:	e0bffb17 	ldw	r2,-20(fp)
 c000cec:	10bfff84 	addi	r2,r2,-2
 c000cf0:	100b883a 	mov	r5,r2
 c000cf4:	e13ffa17 	ldw	r4,-24(fp)
 c000cf8:	c0014c40 	call	c0014c4 <setEdge>
							setEdge(x,y-3);
 c000cfc:	e0bffb17 	ldw	r2,-20(fp)
 c000d00:	10bfff44 	addi	r2,r2,-3
 c000d04:	100b883a 	mov	r5,r2
 c000d08:	e13ffa17 	ldw	r4,-24(fp)
 c000d0c:	c0014c40 	call	c0014c4 <setEdge>
							setEdge(x+1,y);//set as edge
 c000d10:	e0bffa17 	ldw	r2,-24(fp)
 c000d14:	10800044 	addi	r2,r2,1
 c000d18:	e17ffb17 	ldw	r5,-20(fp)
 c000d1c:	1009883a 	mov	r4,r2
 c000d20:	c0014c40 	call	c0014c4 <setEdge>
							newIndex = rand()%7;
 c000d24:	c004fe80 	call	c004fe8 <rand>
 c000d28:	014001c4 	movi	r5,7
 c000d2c:	1009883a 	mov	r4,r2
 c000d30:	c004d380 	call	c004d38 <__modsi3>
 c000d34:	e0bfef15 	stw	r2,-68(fp)
							newColor = rand()%15+1;
 c000d38:	c004fe80 	call	c004fe8 <rand>
 c000d3c:	014003c4 	movi	r5,15
 c000d40:	1009883a 	mov	r4,r2
 c000d44:	c004d380 	call	c004d38 <__modsi3>
 c000d48:	10800044 	addi	r2,r2,1
 c000d4c:	e0bff015 	stw	r2,-64(fp)
							y = 13;
 c000d50:	00800344 	movi	r2,13
 c000d54:	e0bffb15 	stw	r2,-20(fp)
							x = 40;
 c000d58:	00800a04 	movi	r2,40
 c000d5c:	e0bffa15 	stw	r2,-24(fp)
							maxY-=4;
 c000d60:	e0bff117 	ldw	r2,-60(fp)
 c000d64:	10bfff04 	addi	r2,r2,-4
 c000d68:	e0bff115 	stw	r2,-60(fp)
						}
						break;
 c000d6c:	00014c06 	br	c0012a0 <keyInput+0xb34>
					case 3  :
						if (grid[y+1][x+1] ==  1|| //if side block is an edge
 c000d70:	e0bffb17 	ldw	r2,-20(fp)
 c000d74:	10c00044 	addi	r3,r2,1
 c000d78:	e0bffa17 	ldw	r2,-24(fp)
 c000d7c:	14400044 	addi	r17,r2,1
 c000d80:	040300b4 	movhi	r16,3074
 c000d84:	8431fc04 	addi	r16,r16,-14352
 c000d88:	01401404 	movi	r5,80
 c000d8c:	1809883a 	mov	r4,r3
 c000d90:	c004e680 	call	c004e68 <__mulsi3>
 c000d94:	1445883a 	add	r2,r2,r17
 c000d98:	1085883a 	add	r2,r2,r2
 c000d9c:	1085883a 	add	r2,r2,r2
 c000da0:	8085883a 	add	r2,r16,r2
 c000da4:	10800017 	ldw	r2,0(r2)
 c000da8:	10800060 	cmpeqi	r2,r2,1
 c000dac:	1000201e 	bne	r2,zero,c000e30 <keyInput+0x6c4>
							grid[y+1][x-1] ==  1|| //if side block is an edge
 c000db0:	e0bffb17 	ldw	r2,-20(fp)
 c000db4:	10c00044 	addi	r3,r2,1
 c000db8:	e0bffa17 	ldw	r2,-24(fp)
 c000dbc:	147fffc4 	addi	r17,r2,-1
 c000dc0:	040300b4 	movhi	r16,3074
 c000dc4:	8431fc04 	addi	r16,r16,-14352
 c000dc8:	01401404 	movi	r5,80
 c000dcc:	1809883a 	mov	r4,r3
 c000dd0:	c004e680 	call	c004e68 <__mulsi3>
 c000dd4:	1445883a 	add	r2,r2,r17
 c000dd8:	1085883a 	add	r2,r2,r2
 c000ddc:	1085883a 	add	r2,r2,r2
 c000de0:	8085883a 	add	r2,r16,r2
 c000de4:	10800017 	ldw	r2,0(r2)
							x = 40;
							maxY-=4;
						}
						break;
					case 3  :
						if (grid[y+1][x+1] ==  1|| //if side block is an edge
 c000de8:	10800060 	cmpeqi	r2,r2,1
 c000dec:	1000101e 	bne	r2,zero,c000e30 <keyInput+0x6c4>
							grid[y+1][x-1] ==  1|| //if side block is an edge
							grid[y+1][x] == 1){//if bottom pixel is going to be an edge
 c000df0:	e0bffb17 	ldw	r2,-20(fp)
 c000df4:	10800044 	addi	r2,r2,1
 c000df8:	040300b4 	movhi	r16,3074
 c000dfc:	8431fc04 	addi	r16,r16,-14352
 c000e00:	01401404 	movi	r5,80
 c000e04:	1009883a 	mov	r4,r2
 c000e08:	c004e680 	call	c004e68 <__mulsi3>
 c000e0c:	1007883a 	mov	r3,r2
 c000e10:	e0bffa17 	ldw	r2,-24(fp)
 c000e14:	1885883a 	add	r2,r3,r2
 c000e18:	1085883a 	add	r2,r2,r2
 c000e1c:	1085883a 	add	r2,r2,r2
 c000e20:	8085883a 	add	r2,r16,r2
 c000e24:	10800017 	ldw	r2,0(r2)
							maxY-=4;
						}
						break;
					case 3  :
						if (grid[y+1][x+1] ==  1|| //if side block is an edge
							grid[y+1][x-1] ==  1|| //if side block is an edge
 c000e28:	10800058 	cmpnei	r2,r2,1
 c000e2c:	10011e1e 	bne	r2,zero,c0012a8 <keyInput+0xb3c>
							grid[y+1][x] == 1){//if bottom pixel is going to be an edge
							setEdge(x,y);
 c000e30:	e17ffb17 	ldw	r5,-20(fp)
 c000e34:	e13ffa17 	ldw	r4,-24(fp)
 c000e38:	c0014c40 	call	c0014c4 <setEdge>
							setEdge(x,y-1);
 c000e3c:	e0bffb17 	ldw	r2,-20(fp)
 c000e40:	10bfffc4 	addi	r2,r2,-1
 c000e44:	100b883a 	mov	r5,r2
 c000e48:	e13ffa17 	ldw	r4,-24(fp)
 c000e4c:	c0014c40 	call	c0014c4 <setEdge>
							setEdge(x+1,y);
 c000e50:	e0bffa17 	ldw	r2,-24(fp)
 c000e54:	10800044 	addi	r2,r2,1
 c000e58:	e17ffb17 	ldw	r5,-20(fp)
 c000e5c:	1009883a 	mov	r4,r2
 c000e60:	c0014c40 	call	c0014c4 <setEdge>
							setEdge(x-1,y);//set as edge
 c000e64:	e0bffa17 	ldw	r2,-24(fp)
 c000e68:	10bfffc4 	addi	r2,r2,-1
 c000e6c:	e17ffb17 	ldw	r5,-20(fp)
 c000e70:	1009883a 	mov	r4,r2
 c000e74:	c0014c40 	call	c0014c4 <setEdge>
							newIndex = rand()%7;
 c000e78:	c004fe80 	call	c004fe8 <rand>
 c000e7c:	014001c4 	movi	r5,7
 c000e80:	1009883a 	mov	r4,r2
 c000e84:	c004d380 	call	c004d38 <__modsi3>
 c000e88:	e0bfef15 	stw	r2,-68(fp)
							newColor = rand()%15+1;
 c000e8c:	c004fe80 	call	c004fe8 <rand>
 c000e90:	014003c4 	movi	r5,15
 c000e94:	1009883a 	mov	r4,r2
 c000e98:	c004d380 	call	c004d38 <__modsi3>
 c000e9c:	10800044 	addi	r2,r2,1
 c000ea0:	e0bff015 	stw	r2,-64(fp)
							y = 11;
 c000ea4:	008002c4 	movi	r2,11
 c000ea8:	e0bffb15 	stw	r2,-20(fp)
							x = 40;
 c000eac:	00800a04 	movi	r2,40
 c000eb0:	e0bffa15 	stw	r2,-24(fp)
							maxY-=2;
 c000eb4:	e0bff117 	ldw	r2,-60(fp)
 c000eb8:	10bfff84 	addi	r2,r2,-2
 c000ebc:	e0bff115 	stw	r2,-60(fp)
						}
						break;
 c000ec0:	0000f906 	br	c0012a8 <keyInput+0xb3c>
					case 4  :
						if (grid[y+1][x+1] ==  1|| //if side block is an edge
 c000ec4:	e0bffb17 	ldw	r2,-20(fp)
 c000ec8:	10c00044 	addi	r3,r2,1
 c000ecc:	e0bffa17 	ldw	r2,-24(fp)
 c000ed0:	14400044 	addi	r17,r2,1
 c000ed4:	040300b4 	movhi	r16,3074
 c000ed8:	8431fc04 	addi	r16,r16,-14352
 c000edc:	01401404 	movi	r5,80
 c000ee0:	1809883a 	mov	r4,r3
 c000ee4:	c004e680 	call	c004e68 <__mulsi3>
 c000ee8:	1445883a 	add	r2,r2,r17
 c000eec:	1085883a 	add	r2,r2,r2
 c000ef0:	1085883a 	add	r2,r2,r2
 c000ef4:	8085883a 	add	r2,r16,r2
 c000ef8:	10800017 	ldw	r2,0(r2)
 c000efc:	10800060 	cmpeqi	r2,r2,1
 c000f00:	1000101e 	bne	r2,zero,c000f44 <keyInput+0x7d8>
							grid[y+1][x] == 1){//if bottom pixel is going to be an edge
 c000f04:	e0bffb17 	ldw	r2,-20(fp)
 c000f08:	10800044 	addi	r2,r2,1
 c000f0c:	040300b4 	movhi	r16,3074
 c000f10:	8431fc04 	addi	r16,r16,-14352
 c000f14:	01401404 	movi	r5,80
 c000f18:	1009883a 	mov	r4,r2
 c000f1c:	c004e680 	call	c004e68 <__mulsi3>
 c000f20:	1007883a 	mov	r3,r2
 c000f24:	e0bffa17 	ldw	r2,-24(fp)
 c000f28:	1885883a 	add	r2,r3,r2
 c000f2c:	1085883a 	add	r2,r2,r2
 c000f30:	1085883a 	add	r2,r2,r2
 c000f34:	8085883a 	add	r2,r16,r2
 c000f38:	10800017 	ldw	r2,0(r2)
							x = 40;
							maxY-=2;
						}
						break;
					case 4  :
						if (grid[y+1][x+1] ==  1|| //if side block is an edge
 c000f3c:	10800058 	cmpnei	r2,r2,1
 c000f40:	1000db1e 	bne	r2,zero,c0012b0 <keyInput+0xb44>
							grid[y+1][x] == 1){//if bottom pixel is going to be an edge
							setEdge(x,y);
 c000f44:	e17ffb17 	ldw	r5,-20(fp)
 c000f48:	e13ffa17 	ldw	r4,-24(fp)
 c000f4c:	c0014c40 	call	c0014c4 <setEdge>
							setEdge(x,y-1);
 c000f50:	e0bffb17 	ldw	r2,-20(fp)
 c000f54:	10bfffc4 	addi	r2,r2,-1
 c000f58:	100b883a 	mov	r5,r2
 c000f5c:	e13ffa17 	ldw	r4,-24(fp)
 c000f60:	c0014c40 	call	c0014c4 <setEdge>
							setEdge(x+1,y);
 c000f64:	e0bffa17 	ldw	r2,-24(fp)
 c000f68:	10800044 	addi	r2,r2,1
 c000f6c:	e17ffb17 	ldw	r5,-20(fp)
 c000f70:	1009883a 	mov	r4,r2
 c000f74:	c0014c40 	call	c0014c4 <setEdge>
							setEdge(x+1,y-1);//set as edge
 c000f78:	e0bffa17 	ldw	r2,-24(fp)
 c000f7c:	10c00044 	addi	r3,r2,1
 c000f80:	e0bffb17 	ldw	r2,-20(fp)
 c000f84:	10bfffc4 	addi	r2,r2,-1
 c000f88:	100b883a 	mov	r5,r2
 c000f8c:	1809883a 	mov	r4,r3
 c000f90:	c0014c40 	call	c0014c4 <setEdge>
							newIndex = rand()%7;
 c000f94:	c004fe80 	call	c004fe8 <rand>
 c000f98:	014001c4 	movi	r5,7
 c000f9c:	1009883a 	mov	r4,r2
 c000fa0:	c004d380 	call	c004d38 <__modsi3>
 c000fa4:	e0bfef15 	stw	r2,-68(fp)
							newColor = rand()%15+1;
 c000fa8:	c004fe80 	call	c004fe8 <rand>
 c000fac:	014003c4 	movi	r5,15
 c000fb0:	1009883a 	mov	r4,r2
 c000fb4:	c004d380 	call	c004d38 <__modsi3>
 c000fb8:	10800044 	addi	r2,r2,1
 c000fbc:	e0bff015 	stw	r2,-64(fp)
							y = 11;
 c000fc0:	008002c4 	movi	r2,11
 c000fc4:	e0bffb15 	stw	r2,-20(fp)
							x = 40;
 c000fc8:	00800a04 	movi	r2,40
 c000fcc:	e0bffa15 	stw	r2,-24(fp)
							maxY-=2;
 c000fd0:	e0bff117 	ldw	r2,-60(fp)
 c000fd4:	10bfff84 	addi	r2,r2,-2
 c000fd8:	e0bff115 	stw	r2,-60(fp)
						}
						break;
 c000fdc:	0000b406 	br	c0012b0 <keyInput+0xb44>
					case 5  :
						if (grid[y+1][x+1] ==  1 || //if side block is an edge
 c000fe0:	e0bffb17 	ldw	r2,-20(fp)
 c000fe4:	10c00044 	addi	r3,r2,1
 c000fe8:	e0bffa17 	ldw	r2,-24(fp)
 c000fec:	14400044 	addi	r17,r2,1
 c000ff0:	040300b4 	movhi	r16,3074
 c000ff4:	8431fc04 	addi	r16,r16,-14352
 c000ff8:	01401404 	movi	r5,80
 c000ffc:	1809883a 	mov	r4,r3
 c001000:	c004e680 	call	c004e68 <__mulsi3>
 c001004:	1445883a 	add	r2,r2,r17
 c001008:	1085883a 	add	r2,r2,r2
 c00100c:	1085883a 	add	r2,r2,r2
 c001010:	8085883a 	add	r2,r16,r2
 c001014:	10800017 	ldw	r2,0(r2)
 c001018:	10800060 	cmpeqi	r2,r2,1
 c00101c:	10001f1e 	bne	r2,zero,c00109c <keyInput+0x930>
							grid[y][x-1] ==  1 || //if side block is an edge
 c001020:	e0bffa17 	ldw	r2,-24(fp)
 c001024:	147fffc4 	addi	r17,r2,-1
 c001028:	040300b4 	movhi	r16,3074
 c00102c:	8431fc04 	addi	r16,r16,-14352
 c001030:	e0bffb17 	ldw	r2,-20(fp)
 c001034:	01401404 	movi	r5,80
 c001038:	1009883a 	mov	r4,r2
 c00103c:	c004e680 	call	c004e68 <__mulsi3>
 c001040:	1445883a 	add	r2,r2,r17
 c001044:	1085883a 	add	r2,r2,r2
 c001048:	1085883a 	add	r2,r2,r2
 c00104c:	8085883a 	add	r2,r16,r2
 c001050:	10800017 	ldw	r2,0(r2)
							x = 40;
							maxY-=2;
						}
						break;
					case 5  :
						if (grid[y+1][x+1] ==  1 || //if side block is an edge
 c001054:	10800060 	cmpeqi	r2,r2,1
 c001058:	1000101e 	bne	r2,zero,c00109c <keyInput+0x930>
							grid[y][x-1] ==  1 || //if side block is an edge
							grid[y+1][x] == 1){//if bottom pixel is going to be an edge
 c00105c:	e0bffb17 	ldw	r2,-20(fp)
 c001060:	10800044 	addi	r2,r2,1
 c001064:	040300b4 	movhi	r16,3074
 c001068:	8431fc04 	addi	r16,r16,-14352
 c00106c:	01401404 	movi	r5,80
 c001070:	1009883a 	mov	r4,r2
 c001074:	c004e680 	call	c004e68 <__mulsi3>
 c001078:	1007883a 	mov	r3,r2
 c00107c:	e0bffa17 	ldw	r2,-24(fp)
 c001080:	1885883a 	add	r2,r3,r2
 c001084:	1085883a 	add	r2,r2,r2
 c001088:	1085883a 	add	r2,r2,r2
 c00108c:	8085883a 	add	r2,r16,r2
 c001090:	10800017 	ldw	r2,0(r2)
							maxY-=2;
						}
						break;
					case 5  :
						if (grid[y+1][x+1] ==  1 || //if side block is an edge
							grid[y][x-1] ==  1 || //if side block is an edge
 c001094:	10800058 	cmpnei	r2,r2,1
 c001098:	1000871e 	bne	r2,zero,c0012b8 <keyInput+0xb4c>
							grid[y+1][x] == 1){//if bottom pixel is going to be an edge
							setEdge(x,y);
 c00109c:	e17ffb17 	ldw	r5,-20(fp)
 c0010a0:	e13ffa17 	ldw	r4,-24(fp)
 c0010a4:	c0014c40 	call	c0014c4 <setEdge>
							setEdge(x,y-1);
 c0010a8:	e0bffb17 	ldw	r2,-20(fp)
 c0010ac:	10bfffc4 	addi	r2,r2,-1
 c0010b0:	100b883a 	mov	r5,r2
 c0010b4:	e13ffa17 	ldw	r4,-24(fp)
 c0010b8:	c0014c40 	call	c0014c4 <setEdge>
							setEdge(x-1,y-1);
 c0010bc:	e0bffa17 	ldw	r2,-24(fp)
 c0010c0:	10ffffc4 	addi	r3,r2,-1
 c0010c4:	e0bffb17 	ldw	r2,-20(fp)
 c0010c8:	10bfffc4 	addi	r2,r2,-1
 c0010cc:	100b883a 	mov	r5,r2
 c0010d0:	1809883a 	mov	r4,r3
 c0010d4:	c0014c40 	call	c0014c4 <setEdge>
							setEdge(x+1,y);//set as edge
 c0010d8:	e0bffa17 	ldw	r2,-24(fp)
 c0010dc:	10800044 	addi	r2,r2,1
 c0010e0:	e17ffb17 	ldw	r5,-20(fp)
 c0010e4:	1009883a 	mov	r4,r2
 c0010e8:	c0014c40 	call	c0014c4 <setEdge>
							newIndex = rand()%7;
 c0010ec:	c004fe80 	call	c004fe8 <rand>
 c0010f0:	014001c4 	movi	r5,7
 c0010f4:	1009883a 	mov	r4,r2
 c0010f8:	c004d380 	call	c004d38 <__modsi3>
 c0010fc:	e0bfef15 	stw	r2,-68(fp)
							newColor = rand()%15+1;
 c001100:	c004fe80 	call	c004fe8 <rand>
 c001104:	014003c4 	movi	r5,15
 c001108:	1009883a 	mov	r4,r2
 c00110c:	c004d380 	call	c004d38 <__modsi3>
 c001110:	10800044 	addi	r2,r2,1
 c001114:	e0bff015 	stw	r2,-64(fp)
							y = 11;
 c001118:	008002c4 	movi	r2,11
 c00111c:	e0bffb15 	stw	r2,-20(fp)
							x = 40;
 c001120:	00800a04 	movi	r2,40
 c001124:	e0bffa15 	stw	r2,-24(fp)
							maxY-=2;
 c001128:	e0bff117 	ldw	r2,-60(fp)
 c00112c:	10bfff84 	addi	r2,r2,-2
 c001130:	e0bff115 	stw	r2,-60(fp)
						}
						break;
 c001134:	00006006 	br	c0012b8 <keyInput+0xb4c>
					default :
						if (grid[y+1][x-1] ==  1|| //if side block is an edge
 c001138:	e0bffb17 	ldw	r2,-20(fp)
 c00113c:	10c00044 	addi	r3,r2,1
 c001140:	e0bffa17 	ldw	r2,-24(fp)
 c001144:	147fffc4 	addi	r17,r2,-1
 c001148:	040300b4 	movhi	r16,3074
 c00114c:	8431fc04 	addi	r16,r16,-14352
 c001150:	01401404 	movi	r5,80
 c001154:	1809883a 	mov	r4,r3
 c001158:	c004e680 	call	c004e68 <__mulsi3>
 c00115c:	1445883a 	add	r2,r2,r17
 c001160:	1085883a 	add	r2,r2,r2
 c001164:	1085883a 	add	r2,r2,r2
 c001168:	8085883a 	add	r2,r16,r2
 c00116c:	10800017 	ldw	r2,0(r2)
 c001170:	10800060 	cmpeqi	r2,r2,1
 c001174:	10001f1e 	bne	r2,zero,c0011f4 <keyInput+0xa88>
							grid[y][x+1] ==  1|| //if side block is an edge
 c001178:	e0bffa17 	ldw	r2,-24(fp)
 c00117c:	14400044 	addi	r17,r2,1
 c001180:	040300b4 	movhi	r16,3074
 c001184:	8431fc04 	addi	r16,r16,-14352
 c001188:	e0bffb17 	ldw	r2,-20(fp)
 c00118c:	01401404 	movi	r5,80
 c001190:	1009883a 	mov	r4,r2
 c001194:	c004e680 	call	c004e68 <__mulsi3>
 c001198:	1445883a 	add	r2,r2,r17
 c00119c:	1085883a 	add	r2,r2,r2
 c0011a0:	1085883a 	add	r2,r2,r2
 c0011a4:	8085883a 	add	r2,r16,r2
 c0011a8:	10800017 	ldw	r2,0(r2)
							x = 40;
							maxY-=2;
						}
						break;
					default :
						if (grid[y+1][x-1] ==  1|| //if side block is an edge
 c0011ac:	10800060 	cmpeqi	r2,r2,1
 c0011b0:	1000101e 	bne	r2,zero,c0011f4 <keyInput+0xa88>
							grid[y][x+1] ==  1|| //if side block is an edge
							grid[y+1][x] == 1){//if bottom pixel is going to be an edge
 c0011b4:	e0bffb17 	ldw	r2,-20(fp)
 c0011b8:	10800044 	addi	r2,r2,1
 c0011bc:	040300b4 	movhi	r16,3074
 c0011c0:	8431fc04 	addi	r16,r16,-14352
 c0011c4:	01401404 	movi	r5,80
 c0011c8:	1009883a 	mov	r4,r2
 c0011cc:	c004e680 	call	c004e68 <__mulsi3>
 c0011d0:	1007883a 	mov	r3,r2
 c0011d4:	e0bffa17 	ldw	r2,-24(fp)
 c0011d8:	1885883a 	add	r2,r3,r2
 c0011dc:	1085883a 	add	r2,r2,r2
 c0011e0:	1085883a 	add	r2,r2,r2
 c0011e4:	8085883a 	add	r2,r16,r2
 c0011e8:	10800017 	ldw	r2,0(r2)
							maxY-=2;
						}
						break;
					default :
						if (grid[y+1][x-1] ==  1|| //if side block is an edge
							grid[y][x+1] ==  1|| //if side block is an edge
 c0011ec:	10800058 	cmpnei	r2,r2,1
 c0011f0:	1000321e 	bne	r2,zero,c0012bc <keyInput+0xb50>
							grid[y+1][x] == 1){//if bottom pixel is going to be an edge
							setEdge(x,y);
 c0011f4:	e17ffb17 	ldw	r5,-20(fp)
 c0011f8:	e13ffa17 	ldw	r4,-24(fp)
 c0011fc:	c0014c40 	call	c0014c4 <setEdge>
							setEdge(x,y-1);
 c001200:	e0bffb17 	ldw	r2,-20(fp)
 c001204:	10bfffc4 	addi	r2,r2,-1
 c001208:	100b883a 	mov	r5,r2
 c00120c:	e13ffa17 	ldw	r4,-24(fp)
 c001210:	c0014c40 	call	c0014c4 <setEdge>
							setEdge(x+1,y-1);
 c001214:	e0bffa17 	ldw	r2,-24(fp)
 c001218:	10c00044 	addi	r3,r2,1
 c00121c:	e0bffb17 	ldw	r2,-20(fp)
 c001220:	10bfffc4 	addi	r2,r2,-1
 c001224:	100b883a 	mov	r5,r2
 c001228:	1809883a 	mov	r4,r3
 c00122c:	c0014c40 	call	c0014c4 <setEdge>
							setEdge(x-1,y);//set as edge
 c001230:	e0bffa17 	ldw	r2,-24(fp)
 c001234:	10bfffc4 	addi	r2,r2,-1
 c001238:	e17ffb17 	ldw	r5,-20(fp)
 c00123c:	1009883a 	mov	r4,r2
 c001240:	c0014c40 	call	c0014c4 <setEdge>
							newIndex = rand()%7;
 c001244:	c004fe80 	call	c004fe8 <rand>
 c001248:	014001c4 	movi	r5,7
 c00124c:	1009883a 	mov	r4,r2
 c001250:	c004d380 	call	c004d38 <__modsi3>
 c001254:	e0bfef15 	stw	r2,-68(fp)
							newColor = rand()%15+1;
 c001258:	c004fe80 	call	c004fe8 <rand>
 c00125c:	014003c4 	movi	r5,15
 c001260:	1009883a 	mov	r4,r2
 c001264:	c004d380 	call	c004d38 <__modsi3>
 c001268:	10800044 	addi	r2,r2,1
 c00126c:	e0bff015 	stw	r2,-64(fp)
							y = 11;
 c001270:	008002c4 	movi	r2,11
 c001274:	e0bffb15 	stw	r2,-20(fp)
							x = 40;
 c001278:	00800a04 	movi	r2,40
 c00127c:	e0bffa15 	stw	r2,-24(fp)
							maxY-=2;
 c001280:	e0bff117 	ldw	r2,-60(fp)
 c001284:	10bfff84 	addi	r2,r2,-2
 c001288:	e0bff115 	stw	r2,-60(fp)
 c00128c:	00000b06 	br	c0012bc <keyInput+0xb50>
							newColor = rand()%15+1;
							y = 13;
							x = 40;
							maxY-=4;
						}
						break;
 c001290:	0001883a 	nop
 c001294:	00000906 	br	c0012bc <keyInput+0xb50>
							newColor = rand()%15+1;
							y = 13;
							x = 40;
							maxY-=4;
						}
						break;
 c001298:	0001883a 	nop
 c00129c:	00000706 	br	c0012bc <keyInput+0xb50>
							newColor = rand()%15+1;
							y = 13;
							x = 40;
							maxY-=4;
						}
						break;
 c0012a0:	0001883a 	nop
 c0012a4:	00000506 	br	c0012bc <keyInput+0xb50>
							newColor = rand()%15+1;
							y = 11;
							x = 40;
							maxY-=2;
						}
						break;
 c0012a8:	0001883a 	nop
 c0012ac:	00000306 	br	c0012bc <keyInput+0xb50>
							newColor = rand()%15+1;
							y = 11;
							x = 40;
							maxY-=2;
						}
						break;
 c0012b0:	0001883a 	nop
 c0012b4:	00000106 	br	c0012bc <keyInput+0xb50>
							newColor = rand()%15+1;
							y = 11;
							x = 40;
							maxY-=2;
						}
						break;
 c0012b8:	0001883a 	nop
							y = 11;
							x = 40;
							maxY-=2;
						}
					}
				userControlledBlockGrid(x, y, newIndex,0);
 c0012bc:	000f883a 	mov	r7,zero
 c0012c0:	e1bfef17 	ldw	r6,-68(fp)
 c0012c4:	e17ffb17 	ldw	r5,-20(fp)
 c0012c8:	e13ffa17 	ldw	r4,-24(fp)
 c0012cc:	c0016140 	call	c001614 <userControlledBlockGrid>
				x+=xChange; //update X
 c0012d0:	e0fffa17 	ldw	r3,-24(fp)
 c0012d4:	e0bfed17 	ldw	r2,-76(fp)
 c0012d8:	1885883a 	add	r2,r3,r2
 c0012dc:	e0bffa15 	stw	r2,-24(fp)
				y+=yChange; //update Y
 c0012e0:	e0fffb17 	ldw	r3,-20(fp)
 c0012e4:	e0bfee17 	ldw	r2,-72(fp)
 c0012e8:	1885883a 	add	r2,r3,r2
 c0012ec:	e0bffb15 	stw	r2,-20(fp)
				if (maxY > 10) {
 c0012f0:	e0bff117 	ldw	r2,-60(fp)
 c0012f4:	108002d0 	cmplti	r2,r2,11
 c0012f8:	1000441e 	bne	r2,zero,c00140c <keyInput+0xca0>
					xChange = 0;
 c0012fc:	e03fed15 	stw	zero,-76(fp)
					for (int holderY = 47; holderY > maxY; holderY--) {
 c001300:	00800bc4 	movi	r2,47
 c001304:	e0bff415 	stw	r2,-48(fp)
 c001308:	00000f06 	br	c001348 <keyInput+0xbdc>
						if (checkRow(holderY) == 1) {
 c00130c:	e13ff417 	ldw	r4,-48(fp)
 c001310:	c001d880 	call	c001d88 <checkRow>
 c001314:	10800058 	cmpnei	r2,r2,1
 c001318:	1000081e 	bne	r2,zero,c00133c <keyInput+0xbd0>
							printf("/n filled screen at %u", holderY);
 c00131c:	e17ff417 	ldw	r5,-48(fp)
 c001320:	010300b4 	movhi	r4,3074
 c001324:	2121a304 	addi	r4,r4,-31092
 c001328:	c004ec00 	call	c004ec0 <printf>
							readjustScreen(holderY, maxY);
 c00132c:	e17ff117 	ldw	r5,-60(fp)
 c001330:	e13ff417 	ldw	r4,-48(fp)
 c001334:	c001e1c0 	call	c001e1c <readjustScreen>
							break;
 c001338:	00000606 	br	c001354 <keyInput+0xbe8>
				userControlledBlockGrid(x, y, newIndex,0);
				x+=xChange; //update X
				y+=yChange; //update Y
				if (maxY > 10) {
					xChange = 0;
					for (int holderY = 47; holderY > maxY; holderY--) {
 c00133c:	e0bff417 	ldw	r2,-48(fp)
 c001340:	10bfffc4 	addi	r2,r2,-1
 c001344:	e0bff415 	stw	r2,-48(fp)
 c001348:	e0bff417 	ldw	r2,-48(fp)
 c00134c:	e0fff117 	ldw	r3,-60(fp)
 c001350:	18bfee16 	blt	r3,r2,c00130c <__alt_data_end+0xfc00130c>
							printf("/n filled screen at %u", holderY);
							readjustScreen(holderY, maxY);
							break;
						}
					}
					newIndex = 4;
 c001354:	00800104 	movi	r2,4
 c001358:	e0bfef15 	stw	r2,-68(fp)
					userControlledBlockGrid(x, y, newIndex, newColor);
 c00135c:	e1fff017 	ldw	r7,-64(fp)
 c001360:	e1bfef17 	ldw	r6,-68(fp)
 c001364:	e17ffb17 	ldw	r5,-20(fp)
 c001368:	e13ffa17 	ldw	r4,-24(fp)
 c00136c:	c0016140 	call	c001614 <userControlledBlockGrid>
					paintScreen();
 c001370:	c001f640 	call	c001f64 <paintScreen>
					printf("(%u,%u) - %u ; top: %u \n",x,y, grid[y][x], maxY);
 c001374:	040300b4 	movhi	r16,3074
 c001378:	8431fc04 	addi	r16,r16,-14352
 c00137c:	e0bffb17 	ldw	r2,-20(fp)
 c001380:	01401404 	movi	r5,80
 c001384:	1009883a 	mov	r4,r2
 c001388:	c004e680 	call	c004e68 <__mulsi3>
 c00138c:	1007883a 	mov	r3,r2
 c001390:	e0bffa17 	ldw	r2,-24(fp)
 c001394:	1885883a 	add	r2,r3,r2
 c001398:	1085883a 	add	r2,r2,r2
 c00139c:	1085883a 	add	r2,r2,r2
 c0013a0:	8085883a 	add	r2,r16,r2
 c0013a4:	10c00017 	ldw	r3,0(r2)
 c0013a8:	e0bff117 	ldw	r2,-60(fp)
 c0013ac:	d8800015 	stw	r2,0(sp)
 c0013b0:	180f883a 	mov	r7,r3
 c0013b4:	e1bffb17 	ldw	r6,-20(fp)
 c0013b8:	e17ffa17 	ldw	r5,-24(fp)
 c0013bc:	010300b4 	movhi	r4,3074
 c0013c0:	2121a904 	addi	r4,r4,-31068
 c0013c4:	c004ec00 	call	c004ec0 <printf>
				} else {
					printf("' %u + gameOver'",maxY);
					return;
				}

				setKeycode(kbdbuf.keycode[0]);
 c0013c8:	e0bff7c3 	ldbu	r2,-33(fp)
 c0013cc:	10803fcc 	andi	r2,r2,255
 c0013d0:	1009883a 	mov	r4,r2
 c0013d4:	c0007380 	call	c000738 <setKeycode>
				printSignedHex0(kbdbuf.keycode[0]);
 c0013d8:	e0bff7c3 	ldbu	r2,-33(fp)
 c0013dc:	10803fcc 	andi	r2,r2,255
 c0013e0:	1080201c 	xori	r2,r2,128
 c0013e4:	10bfe004 	addi	r2,r2,-128
 c0013e8:	1009883a 	mov	r4,r2
 c0013ec:	c0004e80 	call	c0004e8 <printSignedHex0>
				printSignedHex1(kbdbuf.keycode[1]);
 c0013f0:	e0bff803 	ldbu	r2,-32(fp)
 c0013f4:	10803fcc 	andi	r2,r2,255
 c0013f8:	1080201c 	xori	r2,r2,128
 c0013fc:	10bfe004 	addi	r2,r2,-128
 c001400:	1009883a 	mov	r4,r2
 c001404:	c0006000 	call	c000600 <printSignedHex1>
 c001408:	003cf506 	br	c0007e0 <__alt_data_end+0xfc0007e0>
					newIndex = 4;
					userControlledBlockGrid(x, y, newIndex, newColor);
					paintScreen();
					printf("(%u,%u) - %u ; top: %u \n",x,y, grid[y][x], maxY);
				} else {
					printf("' %u + gameOver'",maxY);
 c00140c:	e17ff117 	ldw	r5,-60(fp)
 c001410:	010300b4 	movhi	r4,3074
 c001414:	2121b004 	addi	r4,r4,-31040
 c001418:	c004ec00 	call	c004ec0 <printf>
					return;
 c00141c:	00002206 	br	c0014a8 <keyInput+0xd3c>

				setKeycode(kbdbuf.keycode[0]);
				printSignedHex0(kbdbuf.keycode[0]);
				printSignedHex1(kbdbuf.keycode[1]);
			}
		} else if (GetUsbTaskState() == USB_STATE_ERROR) {
 c001420:	c004bd80 	call	c004bd8 <GetUsbTaskState>
 c001424:	10803fcc 	andi	r2,r2,255
 c001428:	10803fd8 	cmpnei	r2,r2,255
 c00142c:	10000a1e 	bne	r2,zero,c001458 <keyInput+0xcec>
			if (!errorflag) {
 c001430:	e0bff243 	ldbu	r2,-55(fp)
 c001434:	103cea1e 	bne	r2,zero,c0007e0 <__alt_data_end+0xfc0007e0>
				errorflag = 1;
 c001438:	00800044 	movi	r2,1
 c00143c:	e0bff245 	stb	r2,-55(fp)
				clearLED(9);
 c001440:	01000244 	movi	r4,9
 c001444:	c0004a00 	call	c0004a0 <clearLED>
				printf("USB Error State\n");
 c001448:	010300b4 	movhi	r4,3074
 c00144c:	2121b504 	addi	r4,r4,-31020
 c001450:	c004fbc0 	call	c004fbc <puts>
 c001454:	003ce206 	br	c0007e0 <__alt_data_end+0xfc0007e0>
				//print out string descriptor here
			}
		} else //not in USB running state
		{

			printf("USB task state: ");
 c001458:	010300b4 	movhi	r4,3074
 c00145c:	2121b904 	addi	r4,r4,-31004
 c001460:	c004ec00 	call	c004ec0 <printf>
			printf("%x\n", GetUsbTaskState());
 c001464:	c004bd80 	call	c004bd8 <GetUsbTaskState>
 c001468:	10803fcc 	andi	r2,r2,255
 c00146c:	100b883a 	mov	r5,r2
 c001470:	010300b4 	movhi	r4,3074
 c001474:	2121be04 	addi	r4,r4,-30984
 c001478:	c004ec00 	call	c004ec0 <printf>
			if (runningdebugflag) {	//previously running, reset USB hardware just to clear out any funky state, HS/FS etc
 c00147c:	e0bff203 	ldbu	r2,-56(fp)
 c001480:	10000326 	beq	r2,zero,c001490 <keyInput+0xd24>
				runningdebugflag = 0;
 c001484:	e03ff205 	stb	zero,-56(fp)
				MAX3421E_init();
 c001488:	c003c240 	call	c003c24 <MAX3421E_init>
				USB_init();
 c00148c:	c0043d00 	call	c0043d0 <USB_init>
			}
			errorflag = 0;
 c001490:	e03ff245 	stb	zero,-55(fp)
			clearLED(9);
 c001494:	01000244 	movi	r4,9
 c001498:	c0004a00 	call	c0004a0 <clearLED>
 c00149c:	003cd006 	br	c0007e0 <__alt_data_end+0xfc0007e0>
				device = GetDriverandReport();
			} else if (device == 1) {
				//run keyboard debug polling
				rcode = kbdPoll(&kbdbuf);
				if (rcode == hrNAK) {
					continue; //NAK means no new data
 c0014a0:	0001883a 	nop
				USB_init();
			}
			errorflag = 0;
			clearLED(9);
		}
	}
 c0014a4:	003cce06 	br	c0007e0 <__alt_data_end+0xfc0007e0>
}
 c0014a8:	e6fffe04 	addi	sp,fp,-8
 c0014ac:	dfc00317 	ldw	ra,12(sp)
 c0014b0:	df000217 	ldw	fp,8(sp)
 c0014b4:	dc400117 	ldw	r17,4(sp)
 c0014b8:	dc000017 	ldw	r16,0(sp)
 c0014bc:	dec00404 	addi	sp,sp,16
 c0014c0:	f800283a 	ret

0c0014c4 <setEdge>:

void setEdge(int x, int y) {
 c0014c4:	defffb04 	addi	sp,sp,-20
 c0014c8:	dfc00415 	stw	ra,16(sp)
 c0014cc:	df000315 	stw	fp,12(sp)
 c0014d0:	dc000215 	stw	r16,8(sp)
 c0014d4:	df000304 	addi	fp,sp,12
 c0014d8:	e13ffd15 	stw	r4,-12(fp)
 c0014dc:	e17ffe15 	stw	r5,-8(fp)
	grid[y][x] = 1;
 c0014e0:	040300b4 	movhi	r16,3074
 c0014e4:	8431fc04 	addi	r16,r16,-14352
 c0014e8:	e0bffe17 	ldw	r2,-8(fp)
 c0014ec:	01401404 	movi	r5,80
 c0014f0:	1009883a 	mov	r4,r2
 c0014f4:	c004e680 	call	c004e68 <__mulsi3>
 c0014f8:	1007883a 	mov	r3,r2
 c0014fc:	e0bffd17 	ldw	r2,-12(fp)
 c001500:	1885883a 	add	r2,r3,r2
 c001504:	1085883a 	add	r2,r2,r2
 c001508:	1085883a 	add	r2,r2,r2
 c00150c:	8085883a 	add	r2,r16,r2
 c001510:	00c00044 	movi	r3,1
 c001514:	10c00015 	stw	r3,0(r2)
	//printf("set at: %u,%u; ",x,y);
}
 c001518:	0001883a 	nop
 c00151c:	e6ffff04 	addi	sp,fp,-4
 c001520:	dfc00217 	ldw	ra,8(sp)
 c001524:	df000117 	ldw	fp,4(sp)
 c001528:	dc000017 	ldw	r16,0(sp)
 c00152c:	dec00304 	addi	sp,sp,12
 c001530:	f800283a 	ret

0c001534 <clearEdge>:

void clearEdge(int x, int y) {
 c001534:	defffb04 	addi	sp,sp,-20
 c001538:	dfc00415 	stw	ra,16(sp)
 c00153c:	df000315 	stw	fp,12(sp)
 c001540:	dc000215 	stw	r16,8(sp)
 c001544:	df000304 	addi	fp,sp,12
 c001548:	e13ffd15 	stw	r4,-12(fp)
 c00154c:	e17ffe15 	stw	r5,-8(fp)
	grid[y][x] = 0;
 c001550:	040300b4 	movhi	r16,3074
 c001554:	8431fc04 	addi	r16,r16,-14352
 c001558:	e0bffe17 	ldw	r2,-8(fp)
 c00155c:	01401404 	movi	r5,80
 c001560:	1009883a 	mov	r4,r2
 c001564:	c004e680 	call	c004e68 <__mulsi3>
 c001568:	1007883a 	mov	r3,r2
 c00156c:	e0bffd17 	ldw	r2,-12(fp)
 c001570:	1885883a 	add	r2,r3,r2
 c001574:	1085883a 	add	r2,r2,r2
 c001578:	1085883a 	add	r2,r2,r2
 c00157c:	8085883a 	add	r2,r16,r2
 c001580:	10000015 	stw	zero,0(r2)
	//printf("set at: %u,%u; ",x,y);
}
 c001584:	0001883a 	nop
 c001588:	e6ffff04 	addi	sp,fp,-4
 c00158c:	dfc00217 	ldw	ra,8(sp)
 c001590:	df000117 	ldw	fp,4(sp)
 c001594:	dc000017 	ldw	r16,0(sp)
 c001598:	dec00304 	addi	sp,sp,12
 c00159c:	f800283a 	ret

0c0015a0 <setColor>:

void setColor(int x, int y, int color) {
 c0015a0:	defffa04 	addi	sp,sp,-24
 c0015a4:	dfc00515 	stw	ra,20(sp)
 c0015a8:	df000415 	stw	fp,16(sp)
 c0015ac:	dc000315 	stw	r16,12(sp)
 c0015b0:	df000404 	addi	fp,sp,16
 c0015b4:	e13ffc15 	stw	r4,-16(fp)
 c0015b8:	e17ffd15 	stw	r5,-12(fp)
 c0015bc:	e1bffe15 	stw	r6,-8(fp)
	colorValue[y][x] = color;
 c0015c0:	040300b4 	movhi	r16,3074
 c0015c4:	8404bc04 	addi	r16,r16,4848
 c0015c8:	e0bffd17 	ldw	r2,-12(fp)
 c0015cc:	01401404 	movi	r5,80
 c0015d0:	1009883a 	mov	r4,r2
 c0015d4:	c004e680 	call	c004e68 <__mulsi3>
 c0015d8:	1007883a 	mov	r3,r2
 c0015dc:	e0bffc17 	ldw	r2,-16(fp)
 c0015e0:	1885883a 	add	r2,r3,r2
 c0015e4:	1085883a 	add	r2,r2,r2
 c0015e8:	1085883a 	add	r2,r2,r2
 c0015ec:	8085883a 	add	r2,r16,r2
 c0015f0:	e0fffe17 	ldw	r3,-8(fp)
 c0015f4:	10c00015 	stw	r3,0(r2)
	//printf("set at: %u,%u; ",x,y);
}
 c0015f8:	0001883a 	nop
 c0015fc:	e6ffff04 	addi	sp,fp,-4
 c001600:	dfc00217 	ldw	ra,8(sp)
 c001604:	df000117 	ldw	fp,4(sp)
 c001608:	dc000017 	ldw	r16,0(sp)
 c00160c:	dec00304 	addi	sp,sp,12
 c001610:	f800283a 	ret

0c001614 <userControlledBlockGrid>:

void userControlledBlockGrid(int x, int y, int index, int color) {
 c001614:	defff804 	addi	sp,sp,-32
 c001618:	dfc00715 	stw	ra,28(sp)
 c00161c:	df000615 	stw	fp,24(sp)
 c001620:	dc400515 	stw	r17,20(sp)
 c001624:	dc000415 	stw	r16,16(sp)
 c001628:	df000604 	addi	fp,sp,24
 c00162c:	e13ffa15 	stw	r4,-24(fp)
 c001630:	e17ffb15 	stw	r5,-20(fp)
 c001634:	e1bffc15 	stw	r6,-16(fp)
 c001638:	e1fffd15 	stw	r7,-12(fp)
	switch(index) {
 c00163c:	e0bffc17 	ldw	r2,-16(fp)
 c001640:	108001a8 	cmpgeui	r2,r2,6
 c001644:	10018e1e 	bne	r2,zero,c001c80 <userControlledBlockGrid+0x66c>
 c001648:	e0bffc17 	ldw	r2,-16(fp)
 c00164c:	100690ba 	slli	r3,r2,2
 c001650:	00830034 	movhi	r2,3072
 c001654:	10859904 	addi	r2,r2,5732
 c001658:	1885883a 	add	r2,r3,r2
 c00165c:	10800017 	ldw	r2,0(r2)
 c001660:	1000683a 	jmp	r2
 c001664:	0c00167c 	xorhi	r16,at,89
 c001668:	0c00176c 	andhi	r16,at,93
 c00166c:	0c001898 	cmpnei	r16,at,98
 c001670:	0c0019c0 	call	c0019c <__alt_mem_onchip_memory2_0+0xc0019c>
 c001674:	0c001aa8 	cmpgeui	r16,at,106
 c001678:	0c001b94 	ori	r16,at,110
	   case 0  :
		   colorValue[y-3][x] = color;//VGADrawColorBox(x,y-3,color);
 c00167c:	e0bffb17 	ldw	r2,-20(fp)
 c001680:	10bfff44 	addi	r2,r2,-3
 c001684:	040300b4 	movhi	r16,3074
 c001688:	8404bc04 	addi	r16,r16,4848
 c00168c:	01401404 	movi	r5,80
 c001690:	1009883a 	mov	r4,r2
 c001694:	c004e680 	call	c004e68 <__mulsi3>
 c001698:	1007883a 	mov	r3,r2
 c00169c:	e0bffa17 	ldw	r2,-24(fp)
 c0016a0:	1885883a 	add	r2,r3,r2
 c0016a4:	1085883a 	add	r2,r2,r2
 c0016a8:	1085883a 	add	r2,r2,r2
 c0016ac:	8085883a 	add	r2,r16,r2
 c0016b0:	e0fffd17 	ldw	r3,-12(fp)
 c0016b4:	10c00015 	stw	r3,0(r2)
		   colorValue[y-2][x] = color;//VGADrawColorBox(x,y-2,color);
 c0016b8:	e0bffb17 	ldw	r2,-20(fp)
 c0016bc:	10bfff84 	addi	r2,r2,-2
 c0016c0:	040300b4 	movhi	r16,3074
 c0016c4:	8404bc04 	addi	r16,r16,4848
 c0016c8:	01401404 	movi	r5,80
 c0016cc:	1009883a 	mov	r4,r2
 c0016d0:	c004e680 	call	c004e68 <__mulsi3>
 c0016d4:	1007883a 	mov	r3,r2
 c0016d8:	e0bffa17 	ldw	r2,-24(fp)
 c0016dc:	1885883a 	add	r2,r3,r2
 c0016e0:	1085883a 	add	r2,r2,r2
 c0016e4:	1085883a 	add	r2,r2,r2
 c0016e8:	8085883a 	add	r2,r16,r2
 c0016ec:	e0fffd17 	ldw	r3,-12(fp)
 c0016f0:	10c00015 	stw	r3,0(r2)
		   colorValue[y-1][x] = color;//VGADrawColorBox(x,y-1,color);
 c0016f4:	e0bffb17 	ldw	r2,-20(fp)
 c0016f8:	10bfffc4 	addi	r2,r2,-1
 c0016fc:	040300b4 	movhi	r16,3074
 c001700:	8404bc04 	addi	r16,r16,4848
 c001704:	01401404 	movi	r5,80
 c001708:	1009883a 	mov	r4,r2
 c00170c:	c004e680 	call	c004e68 <__mulsi3>
 c001710:	1007883a 	mov	r3,r2
 c001714:	e0bffa17 	ldw	r2,-24(fp)
 c001718:	1885883a 	add	r2,r3,r2
 c00171c:	1085883a 	add	r2,r2,r2
 c001720:	1085883a 	add	r2,r2,r2
 c001724:	8085883a 	add	r2,r16,r2
 c001728:	e0fffd17 	ldw	r3,-12(fp)
 c00172c:	10c00015 	stw	r3,0(r2)
		   colorValue[y][x] = color;//VGADrawColorBox(x,y,color);
 c001730:	040300b4 	movhi	r16,3074
 c001734:	8404bc04 	addi	r16,r16,4848
 c001738:	e0bffb17 	ldw	r2,-20(fp)
 c00173c:	01401404 	movi	r5,80
 c001740:	1009883a 	mov	r4,r2
 c001744:	c004e680 	call	c004e68 <__mulsi3>
 c001748:	1007883a 	mov	r3,r2
 c00174c:	e0bffa17 	ldw	r2,-24(fp)
 c001750:	1885883a 	add	r2,r3,r2
 c001754:	1085883a 	add	r2,r2,r2
 c001758:	1085883a 	add	r2,r2,r2
 c00175c:	8085883a 	add	r2,r16,r2
 c001760:	e0fffd17 	ldw	r3,-12(fp)
 c001764:	10c00015 	stw	r3,0(r2)
	      break;
 c001768:	00017f06 	br	c001d68 <userControlledBlockGrid+0x754>
	   case 1  :
		   colorValue[y-3][x+1] = color;//VGADrawColorBox(x+1,y-3,color);
 c00176c:	e0bffb17 	ldw	r2,-20(fp)
 c001770:	10ffff44 	addi	r3,r2,-3
 c001774:	e0bffa17 	ldw	r2,-24(fp)
 c001778:	14400044 	addi	r17,r2,1
 c00177c:	040300b4 	movhi	r16,3074
 c001780:	8404bc04 	addi	r16,r16,4848
 c001784:	01401404 	movi	r5,80
 c001788:	1809883a 	mov	r4,r3
 c00178c:	c004e680 	call	c004e68 <__mulsi3>
 c001790:	1445883a 	add	r2,r2,r17
 c001794:	1085883a 	add	r2,r2,r2
 c001798:	1085883a 	add	r2,r2,r2
 c00179c:	8085883a 	add	r2,r16,r2
 c0017a0:	e0fffd17 	ldw	r3,-12(fp)
 c0017a4:	10c00015 	stw	r3,0(r2)
		   colorValue[y-3][x] = color;//VGADrawColorBox(x,y-3,color);
 c0017a8:	e0bffb17 	ldw	r2,-20(fp)
 c0017ac:	10bfff44 	addi	r2,r2,-3
 c0017b0:	040300b4 	movhi	r16,3074
 c0017b4:	8404bc04 	addi	r16,r16,4848
 c0017b8:	01401404 	movi	r5,80
 c0017bc:	1009883a 	mov	r4,r2
 c0017c0:	c004e680 	call	c004e68 <__mulsi3>
 c0017c4:	1007883a 	mov	r3,r2
 c0017c8:	e0bffa17 	ldw	r2,-24(fp)
 c0017cc:	1885883a 	add	r2,r3,r2
 c0017d0:	1085883a 	add	r2,r2,r2
 c0017d4:	1085883a 	add	r2,r2,r2
 c0017d8:	8085883a 	add	r2,r16,r2
 c0017dc:	e0fffd17 	ldw	r3,-12(fp)
 c0017e0:	10c00015 	stw	r3,0(r2)
		   colorValue[y-2][x] = color;//VGADrawColorBox(x,y-2,color);
 c0017e4:	e0bffb17 	ldw	r2,-20(fp)
 c0017e8:	10bfff84 	addi	r2,r2,-2
 c0017ec:	040300b4 	movhi	r16,3074
 c0017f0:	8404bc04 	addi	r16,r16,4848
 c0017f4:	01401404 	movi	r5,80
 c0017f8:	1009883a 	mov	r4,r2
 c0017fc:	c004e680 	call	c004e68 <__mulsi3>
 c001800:	1007883a 	mov	r3,r2
 c001804:	e0bffa17 	ldw	r2,-24(fp)
 c001808:	1885883a 	add	r2,r3,r2
 c00180c:	1085883a 	add	r2,r2,r2
 c001810:	1085883a 	add	r2,r2,r2
 c001814:	8085883a 	add	r2,r16,r2
 c001818:	e0fffd17 	ldw	r3,-12(fp)
 c00181c:	10c00015 	stw	r3,0(r2)
		   colorValue[y-1][x] = color;//VGADrawColorBoxx,y-1,color);
 c001820:	e0bffb17 	ldw	r2,-20(fp)
 c001824:	10bfffc4 	addi	r2,r2,-1
 c001828:	040300b4 	movhi	r16,3074
 c00182c:	8404bc04 	addi	r16,r16,4848
 c001830:	01401404 	movi	r5,80
 c001834:	1009883a 	mov	r4,r2
 c001838:	c004e680 	call	c004e68 <__mulsi3>
 c00183c:	1007883a 	mov	r3,r2
 c001840:	e0bffa17 	ldw	r2,-24(fp)
 c001844:	1885883a 	add	r2,r3,r2
 c001848:	1085883a 	add	r2,r2,r2
 c00184c:	1085883a 	add	r2,r2,r2
 c001850:	8085883a 	add	r2,r16,r2
 c001854:	e0fffd17 	ldw	r3,-12(fp)
 c001858:	10c00015 	stw	r3,0(r2)
		   colorValue[y][x] = color;//VGADrawColorBox(x,y,color);
 c00185c:	040300b4 	movhi	r16,3074
 c001860:	8404bc04 	addi	r16,r16,4848
 c001864:	e0bffb17 	ldw	r2,-20(fp)
 c001868:	01401404 	movi	r5,80
 c00186c:	1009883a 	mov	r4,r2
 c001870:	c004e680 	call	c004e68 <__mulsi3>
 c001874:	1007883a 	mov	r3,r2
 c001878:	e0bffa17 	ldw	r2,-24(fp)
 c00187c:	1885883a 	add	r2,r3,r2
 c001880:	1085883a 	add	r2,r2,r2
 c001884:	1085883a 	add	r2,r2,r2
 c001888:	8085883a 	add	r2,r16,r2
 c00188c:	e0fffd17 	ldw	r3,-12(fp)
 c001890:	10c00015 	stw	r3,0(r2)
	      break;
 c001894:	00013406 	br	c001d68 <userControlledBlockGrid+0x754>
	   case 2  :
		   colorValue[y-3][x] = color;//VGADrawColorBox(x,y-3,color);
 c001898:	e0bffb17 	ldw	r2,-20(fp)
 c00189c:	10bfff44 	addi	r2,r2,-3
 c0018a0:	040300b4 	movhi	r16,3074
 c0018a4:	8404bc04 	addi	r16,r16,4848
 c0018a8:	01401404 	movi	r5,80
 c0018ac:	1009883a 	mov	r4,r2
 c0018b0:	c004e680 	call	c004e68 <__mulsi3>
 c0018b4:	1007883a 	mov	r3,r2
 c0018b8:	e0bffa17 	ldw	r2,-24(fp)
 c0018bc:	1885883a 	add	r2,r3,r2
 c0018c0:	1085883a 	add	r2,r2,r2
 c0018c4:	1085883a 	add	r2,r2,r2
 c0018c8:	8085883a 	add	r2,r16,r2
 c0018cc:	e0fffd17 	ldw	r3,-12(fp)
 c0018d0:	10c00015 	stw	r3,0(r2)
		   colorValue[y-2][x] = color;//VGADrawColorBox(x,y-2,color);
 c0018d4:	e0bffb17 	ldw	r2,-20(fp)
 c0018d8:	10bfff84 	addi	r2,r2,-2
 c0018dc:	040300b4 	movhi	r16,3074
 c0018e0:	8404bc04 	addi	r16,r16,4848
 c0018e4:	01401404 	movi	r5,80
 c0018e8:	1009883a 	mov	r4,r2
 c0018ec:	c004e680 	call	c004e68 <__mulsi3>
 c0018f0:	1007883a 	mov	r3,r2
 c0018f4:	e0bffa17 	ldw	r2,-24(fp)
 c0018f8:	1885883a 	add	r2,r3,r2
 c0018fc:	1085883a 	add	r2,r2,r2
 c001900:	1085883a 	add	r2,r2,r2
 c001904:	8085883a 	add	r2,r16,r2
 c001908:	e0fffd17 	ldw	r3,-12(fp)
 c00190c:	10c00015 	stw	r3,0(r2)
		   colorValue[y-1][x] = color;//VGADrawColorBox(x,y-1,color);
 c001910:	e0bffb17 	ldw	r2,-20(fp)
 c001914:	10bfffc4 	addi	r2,r2,-1
 c001918:	040300b4 	movhi	r16,3074
 c00191c:	8404bc04 	addi	r16,r16,4848
 c001920:	01401404 	movi	r5,80
 c001924:	1009883a 	mov	r4,r2
 c001928:	c004e680 	call	c004e68 <__mulsi3>
 c00192c:	1007883a 	mov	r3,r2
 c001930:	e0bffa17 	ldw	r2,-24(fp)
 c001934:	1885883a 	add	r2,r3,r2
 c001938:	1085883a 	add	r2,r2,r2
 c00193c:	1085883a 	add	r2,r2,r2
 c001940:	8085883a 	add	r2,r16,r2
 c001944:	e0fffd17 	ldw	r3,-12(fp)
 c001948:	10c00015 	stw	r3,0(r2)
		   colorValue[y][x+1] = color;//VGADrawColorBox(x+1,y-3,color);
 c00194c:	e0bffa17 	ldw	r2,-24(fp)
 c001950:	14400044 	addi	r17,r2,1
 c001954:	040300b4 	movhi	r16,3074
 c001958:	8404bc04 	addi	r16,r16,4848
 c00195c:	e0bffb17 	ldw	r2,-20(fp)
 c001960:	01401404 	movi	r5,80
 c001964:	1009883a 	mov	r4,r2
 c001968:	c004e680 	call	c004e68 <__mulsi3>
 c00196c:	1445883a 	add	r2,r2,r17
 c001970:	1085883a 	add	r2,r2,r2
 c001974:	1085883a 	add	r2,r2,r2
 c001978:	8085883a 	add	r2,r16,r2
 c00197c:	e0fffd17 	ldw	r3,-12(fp)
 c001980:	10c00015 	stw	r3,0(r2)
		   colorValue[y][x] = color;//VGADrawColorBox(x,y,color);
 c001984:	040300b4 	movhi	r16,3074
 c001988:	8404bc04 	addi	r16,r16,4848
 c00198c:	e0bffb17 	ldw	r2,-20(fp)
 c001990:	01401404 	movi	r5,80
 c001994:	1009883a 	mov	r4,r2
 c001998:	c004e680 	call	c004e68 <__mulsi3>
 c00199c:	1007883a 	mov	r3,r2
 c0019a0:	e0bffa17 	ldw	r2,-24(fp)
 c0019a4:	1885883a 	add	r2,r3,r2
 c0019a8:	1085883a 	add	r2,r2,r2
 c0019ac:	1085883a 	add	r2,r2,r2
 c0019b0:	8085883a 	add	r2,r16,r2
 c0019b4:	e0fffd17 	ldw	r3,-12(fp)
 c0019b8:	10c00015 	stw	r3,0(r2)
	      break;
 c0019bc:	0000ea06 	br	c001d68 <userControlledBlockGrid+0x754>
	   case 3  :
		   colorValue[y-1][x] = color;//VGADrawColorBox(x,y-1,color);
 c0019c0:	e0bffb17 	ldw	r2,-20(fp)
 c0019c4:	10bfffc4 	addi	r2,r2,-1
 c0019c8:	040300b4 	movhi	r16,3074
 c0019cc:	8404bc04 	addi	r16,r16,4848
 c0019d0:	01401404 	movi	r5,80
 c0019d4:	1009883a 	mov	r4,r2
 c0019d8:	c004e680 	call	c004e68 <__mulsi3>
 c0019dc:	1007883a 	mov	r3,r2
 c0019e0:	e0bffa17 	ldw	r2,-24(fp)
 c0019e4:	1885883a 	add	r2,r3,r2
 c0019e8:	1085883a 	add	r2,r2,r2
 c0019ec:	1085883a 	add	r2,r2,r2
 c0019f0:	8085883a 	add	r2,r16,r2
 c0019f4:	e0fffd17 	ldw	r3,-12(fp)
 c0019f8:	10c00015 	stw	r3,0(r2)
		   colorValue[y][x] = color;//VGADrawColorBox(x,y,color);
 c0019fc:	040300b4 	movhi	r16,3074
 c001a00:	8404bc04 	addi	r16,r16,4848
 c001a04:	e0bffb17 	ldw	r2,-20(fp)
 c001a08:	01401404 	movi	r5,80
 c001a0c:	1009883a 	mov	r4,r2
 c001a10:	c004e680 	call	c004e68 <__mulsi3>
 c001a14:	1007883a 	mov	r3,r2
 c001a18:	e0bffa17 	ldw	r2,-24(fp)
 c001a1c:	1885883a 	add	r2,r3,r2
 c001a20:	1085883a 	add	r2,r2,r2
 c001a24:	1085883a 	add	r2,r2,r2
 c001a28:	8085883a 	add	r2,r16,r2
 c001a2c:	e0fffd17 	ldw	r3,-12(fp)
 c001a30:	10c00015 	stw	r3,0(r2)
		   colorValue[y][x-1] = color;//VGADrawColorBox(x-1,y,color);
 c001a34:	e0bffa17 	ldw	r2,-24(fp)
 c001a38:	147fffc4 	addi	r17,r2,-1
 c001a3c:	040300b4 	movhi	r16,3074
 c001a40:	8404bc04 	addi	r16,r16,4848
 c001a44:	e0bffb17 	ldw	r2,-20(fp)
 c001a48:	01401404 	movi	r5,80
 c001a4c:	1009883a 	mov	r4,r2
 c001a50:	c004e680 	call	c004e68 <__mulsi3>
 c001a54:	1445883a 	add	r2,r2,r17
 c001a58:	1085883a 	add	r2,r2,r2
 c001a5c:	1085883a 	add	r2,r2,r2
 c001a60:	8085883a 	add	r2,r16,r2
 c001a64:	e0fffd17 	ldw	r3,-12(fp)
 c001a68:	10c00015 	stw	r3,0(r2)
		   colorValue[y][x+1] = color;//VGADrawColorBox(x+1,y,color);
 c001a6c:	e0bffa17 	ldw	r2,-24(fp)
 c001a70:	14400044 	addi	r17,r2,1
 c001a74:	040300b4 	movhi	r16,3074
 c001a78:	8404bc04 	addi	r16,r16,4848
 c001a7c:	e0bffb17 	ldw	r2,-20(fp)
 c001a80:	01401404 	movi	r5,80
 c001a84:	1009883a 	mov	r4,r2
 c001a88:	c004e680 	call	c004e68 <__mulsi3>
 c001a8c:	1445883a 	add	r2,r2,r17
 c001a90:	1085883a 	add	r2,r2,r2
 c001a94:	1085883a 	add	r2,r2,r2
 c001a98:	8085883a 	add	r2,r16,r2
 c001a9c:	e0fffd17 	ldw	r3,-12(fp)
 c001aa0:	10c00015 	stw	r3,0(r2)
	      break;
 c001aa4:	0000b006 	br	c001d68 <userControlledBlockGrid+0x754>
	   case 4  :
		   colorValue[y][x+1] = color;//VGADrawColorBox(x+1,y,color);
 c001aa8:	e0bffa17 	ldw	r2,-24(fp)
 c001aac:	14400044 	addi	r17,r2,1
 c001ab0:	040300b4 	movhi	r16,3074
 c001ab4:	8404bc04 	addi	r16,r16,4848
 c001ab8:	e0bffb17 	ldw	r2,-20(fp)
 c001abc:	01401404 	movi	r5,80
 c001ac0:	1009883a 	mov	r4,r2
 c001ac4:	c004e680 	call	c004e68 <__mulsi3>
 c001ac8:	1445883a 	add	r2,r2,r17
 c001acc:	1085883a 	add	r2,r2,r2
 c001ad0:	1085883a 	add	r2,r2,r2
 c001ad4:	8085883a 	add	r2,r16,r2
 c001ad8:	e0fffd17 	ldw	r3,-12(fp)
 c001adc:	10c00015 	stw	r3,0(r2)
		   colorValue[y-1][x+1] = color;//VGADrawColorBox(x+1,y-1,color);
 c001ae0:	e0bffb17 	ldw	r2,-20(fp)
 c001ae4:	10ffffc4 	addi	r3,r2,-1
 c001ae8:	e0bffa17 	ldw	r2,-24(fp)
 c001aec:	14400044 	addi	r17,r2,1
 c001af0:	040300b4 	movhi	r16,3074
 c001af4:	8404bc04 	addi	r16,r16,4848
 c001af8:	01401404 	movi	r5,80
 c001afc:	1809883a 	mov	r4,r3
 c001b00:	c004e680 	call	c004e68 <__mulsi3>
 c001b04:	1445883a 	add	r2,r2,r17
 c001b08:	1085883a 	add	r2,r2,r2
 c001b0c:	1085883a 	add	r2,r2,r2
 c001b10:	8085883a 	add	r2,r16,r2
 c001b14:	e0fffd17 	ldw	r3,-12(fp)
 c001b18:	10c00015 	stw	r3,0(r2)
		   colorValue[y-1][x] = color;//VGADrawColorBox(x,y-1,color);
 c001b1c:	e0bffb17 	ldw	r2,-20(fp)
 c001b20:	10bfffc4 	addi	r2,r2,-1
 c001b24:	040300b4 	movhi	r16,3074
 c001b28:	8404bc04 	addi	r16,r16,4848
 c001b2c:	01401404 	movi	r5,80
 c001b30:	1009883a 	mov	r4,r2
 c001b34:	c004e680 	call	c004e68 <__mulsi3>
 c001b38:	1007883a 	mov	r3,r2
 c001b3c:	e0bffa17 	ldw	r2,-24(fp)
 c001b40:	1885883a 	add	r2,r3,r2
 c001b44:	1085883a 	add	r2,r2,r2
 c001b48:	1085883a 	add	r2,r2,r2
 c001b4c:	8085883a 	add	r2,r16,r2
 c001b50:	e0fffd17 	ldw	r3,-12(fp)
 c001b54:	10c00015 	stw	r3,0(r2)
		   colorValue[y][x] = color;//VGADrawColorBox(x,y,color);
 c001b58:	040300b4 	movhi	r16,3074
 c001b5c:	8404bc04 	addi	r16,r16,4848
 c001b60:	e0bffb17 	ldw	r2,-20(fp)
 c001b64:	01401404 	movi	r5,80
 c001b68:	1009883a 	mov	r4,r2
 c001b6c:	c004e680 	call	c004e68 <__mulsi3>
 c001b70:	1007883a 	mov	r3,r2
 c001b74:	e0bffa17 	ldw	r2,-24(fp)
 c001b78:	1885883a 	add	r2,r3,r2
 c001b7c:	1085883a 	add	r2,r2,r2
 c001b80:	1085883a 	add	r2,r2,r2
 c001b84:	8085883a 	add	r2,r16,r2
 c001b88:	e0fffd17 	ldw	r3,-12(fp)
 c001b8c:	10c00015 	stw	r3,0(r2)
	      break;
 c001b90:	00007506 	br	c001d68 <userControlledBlockGrid+0x754>
	   case 5  :
		   colorValue[y][x+1] = color;//VGADrawColorBox(x+1,y,color);
 c001b94:	e0bffa17 	ldw	r2,-24(fp)
 c001b98:	14400044 	addi	r17,r2,1
 c001b9c:	040300b4 	movhi	r16,3074
 c001ba0:	8404bc04 	addi	r16,r16,4848
 c001ba4:	e0bffb17 	ldw	r2,-20(fp)
 c001ba8:	01401404 	movi	r5,80
 c001bac:	1009883a 	mov	r4,r2
 c001bb0:	c004e680 	call	c004e68 <__mulsi3>
 c001bb4:	1445883a 	add	r2,r2,r17
 c001bb8:	1085883a 	add	r2,r2,r2
 c001bbc:	1085883a 	add	r2,r2,r2
 c001bc0:	8085883a 	add	r2,r16,r2
 c001bc4:	e0fffd17 	ldw	r3,-12(fp)
 c001bc8:	10c00015 	stw	r3,0(r2)
		   colorValue[y-1][x] = color;//VGADrawColorBox(x,y-1,color);
 c001bcc:	e0bffb17 	ldw	r2,-20(fp)
 c001bd0:	10bfffc4 	addi	r2,r2,-1
 c001bd4:	040300b4 	movhi	r16,3074
 c001bd8:	8404bc04 	addi	r16,r16,4848
 c001bdc:	01401404 	movi	r5,80
 c001be0:	1009883a 	mov	r4,r2
 c001be4:	c004e680 	call	c004e68 <__mulsi3>
 c001be8:	1007883a 	mov	r3,r2
 c001bec:	e0bffa17 	ldw	r2,-24(fp)
 c001bf0:	1885883a 	add	r2,r3,r2
 c001bf4:	1085883a 	add	r2,r2,r2
 c001bf8:	1085883a 	add	r2,r2,r2
 c001bfc:	8085883a 	add	r2,r16,r2
 c001c00:	e0fffd17 	ldw	r3,-12(fp)
 c001c04:	10c00015 	stw	r3,0(r2)
		   colorValue[y-1][x-1] = color;//VGADrawColorBox(x-1,y-1,color);
 c001c08:	e0bffb17 	ldw	r2,-20(fp)
 c001c0c:	10ffffc4 	addi	r3,r2,-1
 c001c10:	e0bffa17 	ldw	r2,-24(fp)
 c001c14:	147fffc4 	addi	r17,r2,-1
 c001c18:	040300b4 	movhi	r16,3074
 c001c1c:	8404bc04 	addi	r16,r16,4848
 c001c20:	01401404 	movi	r5,80
 c001c24:	1809883a 	mov	r4,r3
 c001c28:	c004e680 	call	c004e68 <__mulsi3>
 c001c2c:	1445883a 	add	r2,r2,r17
 c001c30:	1085883a 	add	r2,r2,r2
 c001c34:	1085883a 	add	r2,r2,r2
 c001c38:	8085883a 	add	r2,r16,r2
 c001c3c:	e0fffd17 	ldw	r3,-12(fp)
 c001c40:	10c00015 	stw	r3,0(r2)
		   colorValue[y][x] = color;//VGADrawColorBox(x,y,color);
 c001c44:	040300b4 	movhi	r16,3074
 c001c48:	8404bc04 	addi	r16,r16,4848
 c001c4c:	e0bffb17 	ldw	r2,-20(fp)
 c001c50:	01401404 	movi	r5,80
 c001c54:	1009883a 	mov	r4,r2
 c001c58:	c004e680 	call	c004e68 <__mulsi3>
 c001c5c:	1007883a 	mov	r3,r2
 c001c60:	e0bffa17 	ldw	r2,-24(fp)
 c001c64:	1885883a 	add	r2,r3,r2
 c001c68:	1085883a 	add	r2,r2,r2
 c001c6c:	1085883a 	add	r2,r2,r2
 c001c70:	8085883a 	add	r2,r16,r2
 c001c74:	e0fffd17 	ldw	r3,-12(fp)
 c001c78:	10c00015 	stw	r3,0(r2)
	      break;
 c001c7c:	00003a06 	br	c001d68 <userControlledBlockGrid+0x754>
	   default :
		   colorValue[y-1][x] = color;//VGADrawColorBox(x,y-1,color);
 c001c80:	e0bffb17 	ldw	r2,-20(fp)
 c001c84:	10bfffc4 	addi	r2,r2,-1
 c001c88:	040300b4 	movhi	r16,3074
 c001c8c:	8404bc04 	addi	r16,r16,4848
 c001c90:	01401404 	movi	r5,80
 c001c94:	1009883a 	mov	r4,r2
 c001c98:	c004e680 	call	c004e68 <__mulsi3>
 c001c9c:	1007883a 	mov	r3,r2
 c001ca0:	e0bffa17 	ldw	r2,-24(fp)
 c001ca4:	1885883a 	add	r2,r3,r2
 c001ca8:	1085883a 	add	r2,r2,r2
 c001cac:	1085883a 	add	r2,r2,r2
 c001cb0:	8085883a 	add	r2,r16,r2
 c001cb4:	e0fffd17 	ldw	r3,-12(fp)
 c001cb8:	10c00015 	stw	r3,0(r2)
		   colorValue[y-1][x+1] = color;//VGADrawColorBox(x+1,y-1,color);
 c001cbc:	e0bffb17 	ldw	r2,-20(fp)
 c001cc0:	10ffffc4 	addi	r3,r2,-1
 c001cc4:	e0bffa17 	ldw	r2,-24(fp)
 c001cc8:	14400044 	addi	r17,r2,1
 c001ccc:	040300b4 	movhi	r16,3074
 c001cd0:	8404bc04 	addi	r16,r16,4848
 c001cd4:	01401404 	movi	r5,80
 c001cd8:	1809883a 	mov	r4,r3
 c001cdc:	c004e680 	call	c004e68 <__mulsi3>
 c001ce0:	1445883a 	add	r2,r2,r17
 c001ce4:	1085883a 	add	r2,r2,r2
 c001ce8:	1085883a 	add	r2,r2,r2
 c001cec:	8085883a 	add	r2,r16,r2
 c001cf0:	e0fffd17 	ldw	r3,-12(fp)
 c001cf4:	10c00015 	stw	r3,0(r2)
		   colorValue[y][x+1] = color;//VGADrawColorBox(x+1,y,color);
 c001cf8:	e0bffa17 	ldw	r2,-24(fp)
 c001cfc:	14400044 	addi	r17,r2,1
 c001d00:	040300b4 	movhi	r16,3074
 c001d04:	8404bc04 	addi	r16,r16,4848
 c001d08:	e0bffb17 	ldw	r2,-20(fp)
 c001d0c:	01401404 	movi	r5,80
 c001d10:	1009883a 	mov	r4,r2
 c001d14:	c004e680 	call	c004e68 <__mulsi3>
 c001d18:	1445883a 	add	r2,r2,r17
 c001d1c:	1085883a 	add	r2,r2,r2
 c001d20:	1085883a 	add	r2,r2,r2
 c001d24:	8085883a 	add	r2,r16,r2
 c001d28:	e0fffd17 	ldw	r3,-12(fp)
 c001d2c:	10c00015 	stw	r3,0(r2)
		   colorValue[y][x] = color;//VGADrawColorBox(x,y,color);
 c001d30:	040300b4 	movhi	r16,3074
 c001d34:	8404bc04 	addi	r16,r16,4848
 c001d38:	e0bffb17 	ldw	r2,-20(fp)
 c001d3c:	01401404 	movi	r5,80
 c001d40:	1009883a 	mov	r4,r2
 c001d44:	c004e680 	call	c004e68 <__mulsi3>
 c001d48:	1007883a 	mov	r3,r2
 c001d4c:	e0bffa17 	ldw	r2,-24(fp)
 c001d50:	1885883a 	add	r2,r3,r2
 c001d54:	1085883a 	add	r2,r2,r2
 c001d58:	1085883a 	add	r2,r2,r2
 c001d5c:	8085883a 	add	r2,r16,r2
 c001d60:	e0fffd17 	ldw	r3,-12(fp)
 c001d64:	10c00015 	stw	r3,0(r2)
	}
}
 c001d68:	0001883a 	nop
 c001d6c:	e6fffe04 	addi	sp,fp,-8
 c001d70:	dfc00317 	ldw	ra,12(sp)
 c001d74:	df000217 	ldw	fp,8(sp)
 c001d78:	dc400117 	ldw	r17,4(sp)
 c001d7c:	dc000017 	ldw	r16,0(sp)
 c001d80:	dec00404 	addi	sp,sp,16
 c001d84:	f800283a 	ret

0c001d88 <checkRow>:

int checkRow(int y) {
 c001d88:	defffb04 	addi	sp,sp,-20
 c001d8c:	dfc00415 	stw	ra,16(sp)
 c001d90:	df000315 	stw	fp,12(sp)
 c001d94:	dc000215 	stw	r16,8(sp)
 c001d98:	df000304 	addi	fp,sp,12
 c001d9c:	e13ffe15 	stw	r4,-8(fp)
	for (int x = 0; x < 10; x++) {
 c001da0:	e03ffd15 	stw	zero,-12(fp)
 c001da4:	00001306 	br	c001df4 <checkRow+0x6c>
		if (grid[y][x] == 0) {
 c001da8:	040300b4 	movhi	r16,3074
 c001dac:	8431fc04 	addi	r16,r16,-14352
 c001db0:	e0bffe17 	ldw	r2,-8(fp)
 c001db4:	01401404 	movi	r5,80
 c001db8:	1009883a 	mov	r4,r2
 c001dbc:	c004e680 	call	c004e68 <__mulsi3>
 c001dc0:	1007883a 	mov	r3,r2
 c001dc4:	e0bffd17 	ldw	r2,-12(fp)
 c001dc8:	1885883a 	add	r2,r3,r2
 c001dcc:	1085883a 	add	r2,r2,r2
 c001dd0:	1085883a 	add	r2,r2,r2
 c001dd4:	8085883a 	add	r2,r16,r2
 c001dd8:	10800017 	ldw	r2,0(r2)
 c001ddc:	1000021e 	bne	r2,zero,c001de8 <checkRow+0x60>
			return 0;
 c001de0:	0005883a 	mov	r2,zero
 c001de4:	00000706 	br	c001e04 <checkRow+0x7c>
		   colorValue[y][x] = color;//VGADrawColorBox(x,y,color);
	}
}

int checkRow(int y) {
	for (int x = 0; x < 10; x++) {
 c001de8:	e0bffd17 	ldw	r2,-12(fp)
 c001dec:	10800044 	addi	r2,r2,1
 c001df0:	e0bffd15 	stw	r2,-12(fp)
 c001df4:	e0bffd17 	ldw	r2,-12(fp)
 c001df8:	10800290 	cmplti	r2,r2,10
 c001dfc:	103fea1e 	bne	r2,zero,c001da8 <__alt_data_end+0xfc001da8>
		if (grid[y][x] == 0) {
			return 0;
		}
	}
	return 1;
 c001e00:	00800044 	movi	r2,1
}
 c001e04:	e6ffff04 	addi	sp,fp,-4
 c001e08:	dfc00217 	ldw	ra,8(sp)
 c001e0c:	df000117 	ldw	fp,4(sp)
 c001e10:	dc000017 	ldw	r16,0(sp)
 c001e14:	dec00304 	addi	sp,sp,12
 c001e18:	f800283a 	ret

0c001e1c <readjustScreen>:

void readjustScreen(int startY, int endY) {
 c001e1c:	defff804 	addi	sp,sp,-32
 c001e20:	dfc00715 	stw	ra,28(sp)
 c001e24:	df000615 	stw	fp,24(sp)
 c001e28:	dc400515 	stw	r17,20(sp)
 c001e2c:	dc000415 	stw	r16,16(sp)
 c001e30:	df000604 	addi	fp,sp,24
 c001e34:	e13ffc15 	stw	r4,-16(fp)
 c001e38:	e17ffd15 	stw	r5,-12(fp)
	for (int y = startY; y >= endY; y--) {
 c001e3c:	e0bffc17 	ldw	r2,-16(fp)
 c001e40:	e0bffa15 	stw	r2,-24(fp)
 c001e44:	00003c06 	br	c001f38 <readjustScreen+0x11c>
		for (int x = 10; x < 10; x++) {
 c001e48:	00800284 	movi	r2,10
 c001e4c:	e0bffb15 	stw	r2,-20(fp)
 c001e50:	00003306 	br	c001f20 <readjustScreen+0x104>
			if (y != endY) {
 c001e54:	e0fffa17 	ldw	r3,-24(fp)
 c001e58:	e0bffd17 	ldw	r2,-12(fp)
 c001e5c:	18801c26 	beq	r3,r2,c001ed0 <readjustScreen+0xb4>
				colorValue[y][x] = colorValue[y-1][x];
 c001e60:	e0bffa17 	ldw	r2,-24(fp)
 c001e64:	10bfffc4 	addi	r2,r2,-1
 c001e68:	040300b4 	movhi	r16,3074
 c001e6c:	8404bc04 	addi	r16,r16,4848
 c001e70:	01401404 	movi	r5,80
 c001e74:	1009883a 	mov	r4,r2
 c001e78:	c004e680 	call	c004e68 <__mulsi3>
 c001e7c:	1007883a 	mov	r3,r2
 c001e80:	e0bffb17 	ldw	r2,-20(fp)
 c001e84:	1885883a 	add	r2,r3,r2
 c001e88:	1085883a 	add	r2,r2,r2
 c001e8c:	1085883a 	add	r2,r2,r2
 c001e90:	8085883a 	add	r2,r16,r2
 c001e94:	14400017 	ldw	r17,0(r2)
 c001e98:	040300b4 	movhi	r16,3074
 c001e9c:	8404bc04 	addi	r16,r16,4848
 c001ea0:	e0bffa17 	ldw	r2,-24(fp)
 c001ea4:	01401404 	movi	r5,80
 c001ea8:	1009883a 	mov	r4,r2
 c001eac:	c004e680 	call	c004e68 <__mulsi3>
 c001eb0:	1007883a 	mov	r3,r2
 c001eb4:	e0bffb17 	ldw	r2,-20(fp)
 c001eb8:	1885883a 	add	r2,r3,r2
 c001ebc:	1085883a 	add	r2,r2,r2
 c001ec0:	1085883a 	add	r2,r2,r2
 c001ec4:	8085883a 	add	r2,r16,r2
 c001ec8:	14400015 	stw	r17,0(r2)
 c001ecc:	00000d06 	br	c001f04 <readjustScreen+0xe8>
			} else {
				colorValue[y][x] = 0;
 c001ed0:	040300b4 	movhi	r16,3074
 c001ed4:	8404bc04 	addi	r16,r16,4848
 c001ed8:	e0bffa17 	ldw	r2,-24(fp)
 c001edc:	01401404 	movi	r5,80
 c001ee0:	1009883a 	mov	r4,r2
 c001ee4:	c004e680 	call	c004e68 <__mulsi3>
 c001ee8:	1007883a 	mov	r3,r2
 c001eec:	e0bffb17 	ldw	r2,-20(fp)
 c001ef0:	1885883a 	add	r2,r3,r2
 c001ef4:	1085883a 	add	r2,r2,r2
 c001ef8:	1085883a 	add	r2,r2,r2
 c001efc:	8085883a 	add	r2,r16,r2
 c001f00:	10000015 	stw	zero,0(r2)
			}
			printf("/n reset row: %u",y);
 c001f04:	e17ffa17 	ldw	r5,-24(fp)
 c001f08:	010300b4 	movhi	r4,3074
 c001f0c:	2121bf04 	addi	r4,r4,-30980
 c001f10:	c004ec00 	call	c004ec0 <printf>
	return 1;
}

void readjustScreen(int startY, int endY) {
	for (int y = startY; y >= endY; y--) {
		for (int x = 10; x < 10; x++) {
 c001f14:	e0bffb17 	ldw	r2,-20(fp)
 c001f18:	10800044 	addi	r2,r2,1
 c001f1c:	e0bffb15 	stw	r2,-20(fp)
 c001f20:	e0bffb17 	ldw	r2,-20(fp)
 c001f24:	10800290 	cmplti	r2,r2,10
 c001f28:	103fca1e 	bne	r2,zero,c001e54 <__alt_data_end+0xfc001e54>
	}
	return 1;
}

void readjustScreen(int startY, int endY) {
	for (int y = startY; y >= endY; y--) {
 c001f2c:	e0bffa17 	ldw	r2,-24(fp)
 c001f30:	10bfffc4 	addi	r2,r2,-1
 c001f34:	e0bffa15 	stw	r2,-24(fp)
 c001f38:	e0fffa17 	ldw	r3,-24(fp)
 c001f3c:	e0bffd17 	ldw	r2,-12(fp)
 c001f40:	18bfc10e 	bge	r3,r2,c001e48 <__alt_data_end+0xfc001e48>
				colorValue[y][x] = 0;
			}
			printf("/n reset row: %u",y);
		}
	}
}
 c001f44:	0001883a 	nop
 c001f48:	e6fffe04 	addi	sp,fp,-8
 c001f4c:	dfc00317 	ldw	ra,12(sp)
 c001f50:	df000217 	ldw	fp,8(sp)
 c001f54:	dc400117 	ldw	r17,4(sp)
 c001f58:	dc000017 	ldw	r16,0(sp)
 c001f5c:	dec00404 	addi	sp,sp,16
 c001f60:	f800283a 	ret

0c001f64 <paintScreen>:

void paintScreen() {
 c001f64:	defffb04 	addi	sp,sp,-20
 c001f68:	dfc00415 	stw	ra,16(sp)
 c001f6c:	df000315 	stw	fp,12(sp)
 c001f70:	dc000215 	stw	r16,8(sp)
 c001f74:	df000304 	addi	fp,sp,12
	for (int x = 0; x < 80; x++) {
 c001f78:	e03ffd15 	stw	zero,-12(fp)
 c001f7c:	00001c06 	br	c001ff0 <paintScreen+0x8c>
		for (int y = 0; y < 60; y++) {
 c001f80:	e03ffe15 	stw	zero,-8(fp)
 c001f84:	00001406 	br	c001fd8 <paintScreen+0x74>
			VGADrawColorBox(x,y,colorValue[y][x]);
 c001f88:	040300b4 	movhi	r16,3074
 c001f8c:	8404bc04 	addi	r16,r16,4848
 c001f90:	e0bffe17 	ldw	r2,-8(fp)
 c001f94:	01401404 	movi	r5,80
 c001f98:	1009883a 	mov	r4,r2
 c001f9c:	c004e680 	call	c004e68 <__mulsi3>
 c001fa0:	1007883a 	mov	r3,r2
 c001fa4:	e0bffd17 	ldw	r2,-12(fp)
 c001fa8:	1885883a 	add	r2,r3,r2
 c001fac:	1085883a 	add	r2,r2,r2
 c001fb0:	1085883a 	add	r2,r2,r2
 c001fb4:	8085883a 	add	r2,r16,r2
 c001fb8:	10800017 	ldw	r2,0(r2)
 c001fbc:	100d883a 	mov	r6,r2
 c001fc0:	e17ffe17 	ldw	r5,-8(fp)
 c001fc4:	e13ffd17 	ldw	r4,-12(fp)
 c001fc8:	c00279c0 	call	c00279c <VGADrawColorBox>
	}
}

void paintScreen() {
	for (int x = 0; x < 80; x++) {
		for (int y = 0; y < 60; y++) {
 c001fcc:	e0bffe17 	ldw	r2,-8(fp)
 c001fd0:	10800044 	addi	r2,r2,1
 c001fd4:	e0bffe15 	stw	r2,-8(fp)
 c001fd8:	e0bffe17 	ldw	r2,-8(fp)
 c001fdc:	10800f10 	cmplti	r2,r2,60
 c001fe0:	103fe91e 	bne	r2,zero,c001f88 <__alt_data_end+0xfc001f88>
		}
	}
}

void paintScreen() {
	for (int x = 0; x < 80; x++) {
 c001fe4:	e0bffd17 	ldw	r2,-12(fp)
 c001fe8:	10800044 	addi	r2,r2,1
 c001fec:	e0bffd15 	stw	r2,-12(fp)
 c001ff0:	e0bffd17 	ldw	r2,-12(fp)
 c001ff4:	10801410 	cmplti	r2,r2,80
 c001ff8:	103fe11e 	bne	r2,zero,c001f80 <__alt_data_end+0xfc001f80>
		for (int y = 0; y < 60; y++) {
			VGADrawColorBox(x,y,colorValue[y][x]);
		}
	}
}
 c001ffc:	0001883a 	nop
 c002000:	e6ffff04 	addi	sp,fp,-4
 c002004:	dfc00217 	ldw	ra,8(sp)
 c002008:	df000117 	ldw	fp,4(sp)
 c00200c:	dc000017 	ldw	r16,0(sp)
 c002010:	dec00304 	addi	sp,sp,12
 c002014:	f800283a 	ret

0c002018 <main>:

#define COLUMNS 80
#define ROWS 60
#include "text_mode_vga_color.h"

int main() {
 c002018:	defffa04 	addi	sp,sp,-24
 c00201c:	dfc00515 	stw	ra,20(sp)
 c002020:	df000415 	stw	fp,16(sp)
 c002024:	df000404 	addi	fp,sp,16
	int x = 40;
 c002028:	00800a04 	movi	r2,40
 c00202c:	e0bffe15 	stw	r2,-8(fp)
	int y = 30;
 c002030:	00800784 	movi	r2,30
 c002034:	e0bfff15 	stw	r2,-4(fp)
	screenVGAinitializer();
 c002038:	c00241c0 	call	c00241c <screenVGAinitializer>
	for (int i = 0; i <= 10; i++) {
 c00203c:	e03ffc15 	stw	zero,-16(fp)
 c002040:	00001906 	br	c0020a8 <main+0x90>
		//VGADrawColorBox(9+i,9,15);
		setColor(36+i,9,15);
 c002044:	e0bffc17 	ldw	r2,-16(fp)
 c002048:	10800904 	addi	r2,r2,36
 c00204c:	018003c4 	movi	r6,15
 c002050:	01400244 	movi	r5,9
 c002054:	1009883a 	mov	r4,r2
 c002058:	c0015a00 	call	c0015a0 <setColor>
		//VGADrawColorBox(9+i,48,15);
		setColor(36+i,48,15);
 c00205c:	e0bffc17 	ldw	r2,-16(fp)
 c002060:	10800904 	addi	r2,r2,36
 c002064:	018003c4 	movi	r6,15
 c002068:	01400c04 	movi	r5,48
 c00206c:	1009883a 	mov	r4,r2
 c002070:	c0015a00 	call	c0015a0 <setColor>
		setEdge(36+i,9);
 c002074:	e0bffc17 	ldw	r2,-16(fp)
 c002078:	10800904 	addi	r2,r2,36
 c00207c:	01400244 	movi	r5,9
 c002080:	1009883a 	mov	r4,r2
 c002084:	c0014c40 	call	c0014c4 <setEdge>
		setEdge(36+i,48);
 c002088:	e0bffc17 	ldw	r2,-16(fp)
 c00208c:	10800904 	addi	r2,r2,36
 c002090:	01400c04 	movi	r5,48
 c002094:	1009883a 	mov	r4,r2
 c002098:	c0014c40 	call	c0014c4 <setEdge>

int main() {
	int x = 40;
	int y = 30;
	screenVGAinitializer();
	for (int i = 0; i <= 10; i++) {
 c00209c:	e0bffc17 	ldw	r2,-16(fp)
 c0020a0:	10800044 	addi	r2,r2,1
 c0020a4:	e0bffc15 	stw	r2,-16(fp)
 c0020a8:	e0bffc17 	ldw	r2,-16(fp)
 c0020ac:	108002d0 	cmplti	r2,r2,11
 c0020b0:	103fe41e 	bne	r2,zero,c002044 <__alt_data_end+0xfc002044>
		//VGADrawColorBox(9+i,48,15);
		setColor(36+i,48,15);
		setEdge(36+i,9);
		setEdge(36+i,48);
	}
	for (int i = 0; i < 40; i++) {
 c0020b4:	e03ffd15 	stw	zero,-12(fp)
 c0020b8:	00001906 	br	c002120 <main+0x108>
		//VGADrawColorBox(9,9+i,15);
		//VGADrawColorBox(68,9+i,15);
		setColor(36,9+i,15);
 c0020bc:	e0bffd17 	ldw	r2,-12(fp)
 c0020c0:	10800244 	addi	r2,r2,9
 c0020c4:	018003c4 	movi	r6,15
 c0020c8:	100b883a 	mov	r5,r2
 c0020cc:	01000904 	movi	r4,36
 c0020d0:	c0015a00 	call	c0015a0 <setColor>
		setColor(47,9+i,15);
 c0020d4:	e0bffd17 	ldw	r2,-12(fp)
 c0020d8:	10800244 	addi	r2,r2,9
 c0020dc:	018003c4 	movi	r6,15
 c0020e0:	100b883a 	mov	r5,r2
 c0020e4:	01000bc4 	movi	r4,47
 c0020e8:	c0015a00 	call	c0015a0 <setColor>
		setEdge(37,9+i);
 c0020ec:	e0bffd17 	ldw	r2,-12(fp)
 c0020f0:	10800244 	addi	r2,r2,9
 c0020f4:	100b883a 	mov	r5,r2
 c0020f8:	01000944 	movi	r4,37
 c0020fc:	c0014c40 	call	c0014c4 <setEdge>
		setEdge(47,9+i);
 c002100:	e0bffd17 	ldw	r2,-12(fp)
 c002104:	10800244 	addi	r2,r2,9
 c002108:	100b883a 	mov	r5,r2
 c00210c:	01000bc4 	movi	r4,47
 c002110:	c0014c40 	call	c0014c4 <setEdge>
		//VGADrawColorBox(9+i,48,15);
		setColor(36+i,48,15);
		setEdge(36+i,9);
		setEdge(36+i,48);
	}
	for (int i = 0; i < 40; i++) {
 c002114:	e0bffd17 	ldw	r2,-12(fp)
 c002118:	10800044 	addi	r2,r2,1
 c00211c:	e0bffd15 	stw	r2,-12(fp)
 c002120:	e0bffd17 	ldw	r2,-12(fp)
 c002124:	10800a10 	cmplti	r2,r2,40
 c002128:	103fe41e 	bne	r2,zero,c0020bc <__alt_data_end+0xfc0020bc>
		setColor(36,9+i,15);
		setColor(47,9+i,15);
		setEdge(37,9+i);
		setEdge(47,9+i);
	}
	userControlledBlockGrid(x, y, 4, 3);
 c00212c:	01c000c4 	movi	r7,3
 c002130:	01800104 	movi	r6,4
 c002134:	e17fff17 	ldw	r5,-4(fp)
 c002138:	e13ffe17 	ldw	r4,-8(fp)
 c00213c:	c0016140 	call	c001614 <userControlledBlockGrid>
	userControlledBlockGrid(1,13,1,5);
 c002140:	01c00144 	movi	r7,5
 c002144:	01800044 	movi	r6,1
 c002148:	01400344 	movi	r5,13
 c00214c:	01000044 	movi	r4,1
 c002150:	c0016140 	call	c001614 <userControlledBlockGrid>
	userControlledBlockGrid(30,11,6,2);
 c002154:	01c00084 	movi	r7,2
 c002158:	01800184 	movi	r6,6
 c00215c:	014002c4 	movi	r5,11
 c002160:	01000784 	movi	r4,30
 c002164:	c0016140 	call	c001614 <userControlledBlockGrid>
	keyInput(x, y, 1,3);
 c002168:	01c000c4 	movi	r7,3
 c00216c:	01800044 	movi	r6,1
 c002170:	e17fff17 	ldw	r5,-4(fp)
 c002174:	e13ffe17 	ldw	r4,-8(fp)
 c002178:	c00076c0 	call	c00076c <keyInput>
	return 1;
 c00217c:	00800044 	movi	r2,1
}
 c002180:	e037883a 	mov	sp,fp
 c002184:	dfc00117 	ldw	ra,4(sp)
 c002188:	df000017 	ldw	fp,0(sp)
 c00218c:	dec00204 	addi	sp,sp,8
 c002190:	f800283a 	ret

0c002194 <textVGAColorClr>:
#include <string.h>
#include <alt_types.h>
#include "text_mode_vga_color.h"

void textVGAColorClr()
{
 c002194:	defffe04 	addi	sp,sp,-8
 c002198:	df000115 	stw	fp,4(sp)
 c00219c:	df000104 	addi	fp,sp,4
	for (int i = 0; i<(ROWS*COLUMNS) * 2; i++)
 c0021a0:	e03fff15 	stw	zero,-4(fp)
 c0021a4:	00000706 	br	c0021c4 <textVGAColorClr+0x30>
	{
		vga_ctrl->VRAM[i] = 0x00;
 c0021a8:	d0e00417 	ldw	r3,-32752(gp)
 c0021ac:	e0bfff17 	ldw	r2,-4(fp)
 c0021b0:	1885883a 	add	r2,r3,r2
 c0021b4:	10000005 	stb	zero,0(r2)
#include <alt_types.h>
#include "text_mode_vga_color.h"

void textVGAColorClr()
{
	for (int i = 0; i<(ROWS*COLUMNS) * 2; i++)
 c0021b8:	e0bfff17 	ldw	r2,-4(fp)
 c0021bc:	10800044 	addi	r2,r2,1
 c0021c0:	e0bfff15 	stw	r2,-4(fp)
 c0021c4:	e0bfff17 	ldw	r2,-4(fp)
 c0021c8:	10896010 	cmplti	r2,r2,9600
 c0021cc:	103ff61e 	bne	r2,zero,c0021a8 <__alt_data_end+0xfc0021a8>
	{
		vga_ctrl->VRAM[i] = 0x00;
	}
}
 c0021d0:	0001883a 	nop
 c0021d4:	e037883a 	mov	sp,fp
 c0021d8:	df000017 	ldw	fp,0(sp)
 c0021dc:	dec00104 	addi	sp,sp,4
 c0021e0:	f800283a 	ret

0c0021e4 <textVGADrawColorText>:

void textVGADrawColorText(char* str, int x, int y, alt_u8 background, alt_u8 foreground)
{
 c0021e4:	defff704 	addi	sp,sp,-36
 c0021e8:	dfc00815 	stw	ra,32(sp)
 c0021ec:	df000715 	stw	fp,28(sp)
 c0021f0:	dc000615 	stw	r16,24(sp)
 c0021f4:	df000704 	addi	fp,sp,28
 c0021f8:	e13ffa15 	stw	r4,-24(fp)
 c0021fc:	e17ffb15 	stw	r5,-20(fp)
 c002200:	e1bffc15 	stw	r6,-16(fp)
 c002204:	3807883a 	mov	r3,r7
 c002208:	e0800217 	ldw	r2,8(fp)
 c00220c:	e0fffd05 	stb	r3,-12(fp)
 c002210:	e0bffe05 	stb	r2,-8(fp)
	int i = 0;
 c002214:	e03ff915 	stw	zero,-28(fp)
	while (str[i]!=0)
 c002218:	00002706 	br	c0022b8 <textVGADrawColorText+0xd4>
	{
		vga_ctrl->VRAM[(y*COLUMNS + x + i) * 2] = foreground << 4 | background;
 c00221c:	d4200417 	ldw	r16,-32752(gp)
 c002220:	01401404 	movi	r5,80
 c002224:	e13ffc17 	ldw	r4,-16(fp)
 c002228:	c004e680 	call	c004e68 <__mulsi3>
 c00222c:	1007883a 	mov	r3,r2
 c002230:	e0bffb17 	ldw	r2,-20(fp)
 c002234:	1887883a 	add	r3,r3,r2
 c002238:	e0bff917 	ldw	r2,-28(fp)
 c00223c:	1885883a 	add	r2,r3,r2
 c002240:	1085883a 	add	r2,r2,r2
 c002244:	1009883a 	mov	r4,r2
 c002248:	e0bffe03 	ldbu	r2,-8(fp)
 c00224c:	1004913a 	slli	r2,r2,4
 c002250:	1007883a 	mov	r3,r2
 c002254:	e0bffd03 	ldbu	r2,-12(fp)
 c002258:	1884b03a 	or	r2,r3,r2
 c00225c:	1007883a 	mov	r3,r2
 c002260:	8105883a 	add	r2,r16,r4
 c002264:	10c00005 	stb	r3,0(r2)
		vga_ctrl->VRAM[(y*COLUMNS + x + i) * 2 + 1] = str[i];
 c002268:	d4200417 	ldw	r16,-32752(gp)
 c00226c:	01401404 	movi	r5,80
 c002270:	e13ffc17 	ldw	r4,-16(fp)
 c002274:	c004e680 	call	c004e68 <__mulsi3>
 c002278:	1007883a 	mov	r3,r2
 c00227c:	e0bffb17 	ldw	r2,-20(fp)
 c002280:	1887883a 	add	r3,r3,r2
 c002284:	e0bff917 	ldw	r2,-28(fp)
 c002288:	1885883a 	add	r2,r3,r2
 c00228c:	1085883a 	add	r2,r2,r2
 c002290:	10800044 	addi	r2,r2,1
 c002294:	e0fff917 	ldw	r3,-28(fp)
 c002298:	e13ffa17 	ldw	r4,-24(fp)
 c00229c:	20c7883a 	add	r3,r4,r3
 c0022a0:	18c00003 	ldbu	r3,0(r3)
 c0022a4:	8085883a 	add	r2,r16,r2
 c0022a8:	10c00005 	stb	r3,0(r2)
		i++;
 c0022ac:	e0bff917 	ldw	r2,-28(fp)
 c0022b0:	10800044 	addi	r2,r2,1
 c0022b4:	e0bff915 	stw	r2,-28(fp)
}

void textVGADrawColorText(char* str, int x, int y, alt_u8 background, alt_u8 foreground)
{
	int i = 0;
	while (str[i]!=0)
 c0022b8:	e0bff917 	ldw	r2,-28(fp)
 c0022bc:	e0fffa17 	ldw	r3,-24(fp)
 c0022c0:	1885883a 	add	r2,r3,r2
 c0022c4:	10800003 	ldbu	r2,0(r2)
 c0022c8:	10803fcc 	andi	r2,r2,255
 c0022cc:	1080201c 	xori	r2,r2,128
 c0022d0:	10bfe004 	addi	r2,r2,-128
 c0022d4:	103fd11e 	bne	r2,zero,c00221c <__alt_data_end+0xfc00221c>
	{
		vga_ctrl->VRAM[(y*COLUMNS + x + i) * 2] = foreground << 4 | background;
		vga_ctrl->VRAM[(y*COLUMNS + x + i) * 2 + 1] = str[i];
		i++;
	}
}
 c0022d8:	0001883a 	nop
 c0022dc:	e6ffff04 	addi	sp,fp,-4
 c0022e0:	dfc00217 	ldw	ra,8(sp)
 c0022e4:	df000117 	ldw	fp,4(sp)
 c0022e8:	dc000017 	ldw	r16,0(sp)
 c0022ec:	dec00304 	addi	sp,sp,12
 c0022f0:	f800283a 	ret

0c0022f4 <setColorPalette>:

void setColorPalette (alt_u8 color, alt_u8 red, alt_u8 green, alt_u8 blue)
{
 c0022f4:	defff904 	addi	sp,sp,-28
 c0022f8:	df000615 	stw	fp,24(sp)
 c0022fc:	df000604 	addi	fp,sp,24
 c002300:	2011883a 	mov	r8,r4
 c002304:	2809883a 	mov	r4,r5
 c002308:	3007883a 	mov	r3,r6
 c00230c:	3805883a 	mov	r2,r7
 c002310:	e23ffc05 	stb	r8,-16(fp)
 c002314:	e13ffd05 	stb	r4,-12(fp)
 c002318:	e0fffe05 	stb	r3,-8(fp)
 c00231c:	e0bfff05 	stb	r2,-4(fp)
	alt_u32 shifts;
	alt_u32 original;
	original = vga_ctrl->palette[color/2];
 c002320:	d0e00417 	ldw	r3,-32752(gp)
 c002324:	e0bffc03 	ldbu	r2,-16(fp)
 c002328:	1004d07a 	srli	r2,r2,1
 c00232c:	10803fcc 	andi	r2,r2,255
 c002330:	10830004 	addi	r2,r2,3072
 c002334:	1085883a 	add	r2,r2,r2
 c002338:	1085883a 	add	r2,r2,r2
 c00233c:	1885883a 	add	r2,r3,r2
 c002340:	10800017 	ldw	r2,0(r2)
 c002344:	e0bffb15 	stw	r2,-20(fp)
	shifts = red;
 c002348:	e0bffd03 	ldbu	r2,-12(fp)
 c00234c:	e0bffa15 	stw	r2,-24(fp)
	shifts = shifts << 4;
 c002350:	e0bffa17 	ldw	r2,-24(fp)
 c002354:	1004913a 	slli	r2,r2,4
 c002358:	e0bffa15 	stw	r2,-24(fp)
	shifts = shifts | green;
 c00235c:	e0bffe03 	ldbu	r2,-8(fp)
 c002360:	e0fffa17 	ldw	r3,-24(fp)
 c002364:	1884b03a 	or	r2,r3,r2
 c002368:	e0bffa15 	stw	r2,-24(fp)
	shifts = shifts << 4;
 c00236c:	e0bffa17 	ldw	r2,-24(fp)
 c002370:	1004913a 	slli	r2,r2,4
 c002374:	e0bffa15 	stw	r2,-24(fp)
	shifts = shifts | blue;
 c002378:	e0bfff03 	ldbu	r2,-4(fp)
 c00237c:	e0fffa17 	ldw	r3,-24(fp)
 c002380:	1884b03a 	or	r2,r3,r2
 c002384:	e0bffa15 	stw	r2,-24(fp)
	if (color %2 ==0){
 c002388:	e0bffc03 	ldbu	r2,-16(fp)
 c00238c:	1080004c 	andi	r2,r2,1
 c002390:	10803fcc 	andi	r2,r2,255
 c002394:	1000081e 	bne	r2,zero,c0023b8 <setColorPalette+0xc4>
		original = original & 0xFFFFE000;
 c002398:	e0fffb17 	ldw	r3,-20(fp)
 c00239c:	00b80004 	movi	r2,-8192
 c0023a0:	1884703a 	and	r2,r3,r2
 c0023a4:	e0bffb15 	stw	r2,-20(fp)
		shifts = shifts << 1;
 c0023a8:	e0bffa17 	ldw	r2,-24(fp)
 c0023ac:	1085883a 	add	r2,r2,r2
 c0023b0:	e0bffa15 	stw	r2,-24(fp)
 c0023b4:	00000606 	br	c0023d0 <setColorPalette+0xdc>
	} else {
		original = original & 0x00001FFF;
 c0023b8:	e0bffb17 	ldw	r2,-20(fp)
 c0023bc:	1087ffcc 	andi	r2,r2,8191
 c0023c0:	e0bffb15 	stw	r2,-20(fp)
		shifts = shifts << 13;
 c0023c4:	e0bffa17 	ldw	r2,-24(fp)
 c0023c8:	1004937a 	slli	r2,r2,13
 c0023cc:	e0bffa15 	stw	r2,-24(fp)
	}
	original = original | shifts;
 c0023d0:	e0fffb17 	ldw	r3,-20(fp)
 c0023d4:	e0bffa17 	ldw	r2,-24(fp)
 c0023d8:	1884b03a 	or	r2,r3,r2
 c0023dc:	e0bffb15 	stw	r2,-20(fp)
	vga_ctrl->palette[color/2] = original;
 c0023e0:	d0e00417 	ldw	r3,-32752(gp)
 c0023e4:	e0bffc03 	ldbu	r2,-16(fp)
 c0023e8:	1004d07a 	srli	r2,r2,1
 c0023ec:	10803fcc 	andi	r2,r2,255
 c0023f0:	10830004 	addi	r2,r2,3072
 c0023f4:	1085883a 	add	r2,r2,r2
 c0023f8:	1085883a 	add	r2,r2,r2
 c0023fc:	1885883a 	add	r2,r3,r2
 c002400:	e0fffb17 	ldw	r3,-20(fp)
 c002404:	10c00015 	stw	r3,0(r2)
}
 c002408:	0001883a 	nop
 c00240c:	e037883a 	mov	sp,fp
 c002410:	df000017 	ldw	fp,0(sp)
 c002414:	dec00104 	addi	sp,sp,4
 c002418:	f800283a 	ret

0c00241c <screenVGAinitializer>:

void screenVGAinitializer() {
 c00241c:	defff904 	addi	sp,sp,-28
 c002420:	dfc00615 	stw	ra,24(sp)
 c002424:	df000515 	stw	fp,20(sp)
 c002428:	dcc00415 	stw	r19,16(sp)
 c00242c:	dc800315 	stw	r18,12(sp)
 c002430:	dc400215 	stw	r17,8(sp)
 c002434:	dc000115 	stw	r16,4(sp)
 c002438:	df000504 	addi	fp,sp,20
	textVGAColorClr();
 c00243c:	c0021940 	call	c002194 <textVGAColorClr>
	//initialize palette
	for (int i = 0; i < 16; i++)
 c002440:	e03ffb15 	stw	zero,-20(fp)
 c002444:	00002806 	br	c0024e8 <screenVGAinitializer+0xcc>
	{
		setColorPalette (i, colors[i].red, colors[i].green, colors[i].blue);
 c002448:	e0bffb17 	ldw	r2,-20(fp)
 c00244c:	14403fcc 	andi	r17,r2,255
 c002450:	040300b4 	movhi	r16,3074
 c002454:	84232204 	addi	r16,r16,-29560
 c002458:	e0bffb17 	ldw	r2,-20(fp)
 c00245c:	014005c4 	movi	r5,23
 c002460:	1009883a 	mov	r4,r2
 c002464:	c004e680 	call	c004e68 <__mulsi3>
 c002468:	8085883a 	add	r2,r16,r2
 c00246c:	10800504 	addi	r2,r2,20
 c002470:	10800003 	ldbu	r2,0(r2)
 c002474:	14803fcc 	andi	r18,r2,255
 c002478:	040300b4 	movhi	r16,3074
 c00247c:	84232204 	addi	r16,r16,-29560
 c002480:	e0bffb17 	ldw	r2,-20(fp)
 c002484:	014005c4 	movi	r5,23
 c002488:	1009883a 	mov	r4,r2
 c00248c:	c004e680 	call	c004e68 <__mulsi3>
 c002490:	8085883a 	add	r2,r16,r2
 c002494:	10800544 	addi	r2,r2,21
 c002498:	10800003 	ldbu	r2,0(r2)
 c00249c:	14c03fcc 	andi	r19,r2,255
 c0024a0:	040300b4 	movhi	r16,3074
 c0024a4:	84232204 	addi	r16,r16,-29560
 c0024a8:	e0bffb17 	ldw	r2,-20(fp)
 c0024ac:	014005c4 	movi	r5,23
 c0024b0:	1009883a 	mov	r4,r2
 c0024b4:	c004e680 	call	c004e68 <__mulsi3>
 c0024b8:	8085883a 	add	r2,r16,r2
 c0024bc:	10800584 	addi	r2,r2,22
 c0024c0:	10800003 	ldbu	r2,0(r2)
 c0024c4:	10803fcc 	andi	r2,r2,255
 c0024c8:	100f883a 	mov	r7,r2
 c0024cc:	980d883a 	mov	r6,r19
 c0024d0:	900b883a 	mov	r5,r18
 c0024d4:	8809883a 	mov	r4,r17
 c0024d8:	c0022f40 	call	c0022f4 <setColorPalette>
}

void screenVGAinitializer() {
	textVGAColorClr();
	//initialize palette
	for (int i = 0; i < 16; i++)
 c0024dc:	e0bffb17 	ldw	r2,-20(fp)
 c0024e0:	10800044 	addi	r2,r2,1
 c0024e4:	e0bffb15 	stw	r2,-20(fp)
 c0024e8:	e0bffb17 	ldw	r2,-20(fp)
 c0024ec:	10800410 	cmplti	r2,r2,16
 c0024f0:	103fd51e 	bne	r2,zero,c002448 <__alt_data_end+0xfc002448>
	{
		setColorPalette (i, colors[i].red, colors[i].green, colors[i].blue);
	}

}
 c0024f4:	0001883a 	nop
 c0024f8:	e6fffc04 	addi	sp,fp,-16
 c0024fc:	dfc00517 	ldw	ra,20(sp)
 c002500:	df000417 	ldw	fp,16(sp)
 c002504:	dcc00317 	ldw	r19,12(sp)
 c002508:	dc800217 	ldw	r18,8(sp)
 c00250c:	dc400117 	ldw	r17,4(sp)
 c002510:	dc000017 	ldw	r16,0(sp)
 c002514:	dec00604 	addi	sp,sp,24
 c002518:	f800283a 	ret

0c00251c <textVGAColorScreenSaver>:

void textVGAColorScreenSaver()
{
 c00251c:	deffde04 	addi	sp,sp,-136
 c002520:	dfc02115 	stw	ra,132(sp)
 c002524:	df002015 	stw	fp,128(sp)
 c002528:	dcc01f15 	stw	r19,124(sp)
 c00252c:	dc801e15 	stw	r18,120(sp)
 c002530:	dc401d15 	stw	r17,116(sp)
 c002534:	dc001c15 	stw	r16,112(sp)
 c002538:	df002004 	addi	fp,sp,128
	//This is the function you call for your week 2 demo
	int flag = 0;
 c00253c:	e03fe415 	stw	zero,-112(fp)
	char color_string[80];
    int fg, bg, x, y;
	textVGAColorClr();
 c002540:	c0021940 	call	c002194 <textVGAColorClr>
	//initialize palette
	for (int i = 0; i < 16; i++)
 c002544:	e03fe315 	stw	zero,-116(fp)
 c002548:	00002806 	br	c0025ec <textVGAColorScreenSaver+0xd0>
	{
		setColorPalette (i, colors[i].red, colors[i].green, colors[i].blue);
 c00254c:	e0bfe317 	ldw	r2,-116(fp)
 c002550:	14403fcc 	andi	r17,r2,255
 c002554:	040300b4 	movhi	r16,3074
 c002558:	84232204 	addi	r16,r16,-29560
 c00255c:	e0bfe317 	ldw	r2,-116(fp)
 c002560:	014005c4 	movi	r5,23
 c002564:	1009883a 	mov	r4,r2
 c002568:	c004e680 	call	c004e68 <__mulsi3>
 c00256c:	8085883a 	add	r2,r16,r2
 c002570:	10800504 	addi	r2,r2,20
 c002574:	10800003 	ldbu	r2,0(r2)
 c002578:	14803fcc 	andi	r18,r2,255
 c00257c:	040300b4 	movhi	r16,3074
 c002580:	84232204 	addi	r16,r16,-29560
 c002584:	e0bfe317 	ldw	r2,-116(fp)
 c002588:	014005c4 	movi	r5,23
 c00258c:	1009883a 	mov	r4,r2
 c002590:	c004e680 	call	c004e68 <__mulsi3>
 c002594:	8085883a 	add	r2,r16,r2
 c002598:	10800544 	addi	r2,r2,21
 c00259c:	10800003 	ldbu	r2,0(r2)
 c0025a0:	14c03fcc 	andi	r19,r2,255
 c0025a4:	040300b4 	movhi	r16,3074
 c0025a8:	84232204 	addi	r16,r16,-29560
 c0025ac:	e0bfe317 	ldw	r2,-116(fp)
 c0025b0:	014005c4 	movi	r5,23
 c0025b4:	1009883a 	mov	r4,r2
 c0025b8:	c004e680 	call	c004e68 <__mulsi3>
 c0025bc:	8085883a 	add	r2,r16,r2
 c0025c0:	10800584 	addi	r2,r2,22
 c0025c4:	10800003 	ldbu	r2,0(r2)
 c0025c8:	10803fcc 	andi	r2,r2,255
 c0025cc:	100f883a 	mov	r7,r2
 c0025d0:	980d883a 	mov	r6,r19
 c0025d4:	900b883a 	mov	r5,r18
 c0025d8:	8809883a 	mov	r4,r17
 c0025dc:	c0022f40 	call	c0022f4 <setColorPalette>
	int flag = 0;
	char color_string[80];
    int fg, bg, x, y;
	textVGAColorClr();
	//initialize palette
	for (int i = 0; i < 16; i++)
 c0025e0:	e0bfe317 	ldw	r2,-116(fp)
 c0025e4:	10800044 	addi	r2,r2,1
 c0025e8:	e0bfe315 	stw	r2,-116(fp)
 c0025ec:	e0bfe317 	ldw	r2,-116(fp)
 c0025f0:	10800410 	cmplti	r2,r2,16
 c0025f4:	103fd51e 	bne	r2,zero,c00254c <__alt_data_end+0xfc00254c>
	{
		setColorPalette (i, colors[i].red, colors[i].green, colors[i].blue);
	}
	int count =0;
 c0025f8:	e03fe515 	stw	zero,-108(fp)
	while (1) {
	//for(int y = 0; y < COLUMNS; y++){
		fg = rand() % 16;
 c0025fc:	c004fe80 	call	c004fe8 <rand>
 c002600:	1007883a 	mov	r3,r2
 c002604:	00a00034 	movhi	r2,32768
 c002608:	108003c4 	addi	r2,r2,15
 c00260c:	1884703a 	and	r2,r3,r2
 c002610:	1000040e 	bge	r2,zero,c002624 <textVGAColorScreenSaver+0x108>
 c002614:	10bfffc4 	addi	r2,r2,-1
 c002618:	00fffc04 	movi	r3,-16
 c00261c:	10c4b03a 	or	r2,r2,r3
 c002620:	10800044 	addi	r2,r2,1
 c002624:	e0bfe115 	stw	r2,-124(fp)
		bg = rand() % 16;
 c002628:	c004fe80 	call	c004fe8 <rand>
 c00262c:	1007883a 	mov	r3,r2
 c002630:	00a00034 	movhi	r2,32768
 c002634:	108003c4 	addi	r2,r2,15
 c002638:	1884703a 	and	r2,r3,r2
 c00263c:	1000040e 	bge	r2,zero,c002650 <textVGAColorScreenSaver+0x134>
 c002640:	10bfffc4 	addi	r2,r2,-1
 c002644:	00fffc04 	movi	r3,-16
 c002648:	10c4b03a 	or	r2,r2,r3
 c00264c:	10800044 	addi	r2,r2,1
 c002650:	e0bfe215 	stw	r2,-120(fp)
		while (fg == bg)
 c002654:	00001606 	br	c0026b0 <textVGAColorScreenSaver+0x194>
		{
			fg = rand() % 16;
 c002658:	c004fe80 	call	c004fe8 <rand>
 c00265c:	1007883a 	mov	r3,r2
 c002660:	00a00034 	movhi	r2,32768
 c002664:	108003c4 	addi	r2,r2,15
 c002668:	1884703a 	and	r2,r3,r2
 c00266c:	1000040e 	bge	r2,zero,c002680 <textVGAColorScreenSaver+0x164>
 c002670:	10bfffc4 	addi	r2,r2,-1
 c002674:	00fffc04 	movi	r3,-16
 c002678:	10c4b03a 	or	r2,r2,r3
 c00267c:	10800044 	addi	r2,r2,1
 c002680:	e0bfe115 	stw	r2,-124(fp)
			bg = rand() % 16;
 c002684:	c004fe80 	call	c004fe8 <rand>
 c002688:	1007883a 	mov	r3,r2
 c00268c:	00a00034 	movhi	r2,32768
 c002690:	108003c4 	addi	r2,r2,15
 c002694:	1884703a 	and	r2,r3,r2
 c002698:	1000040e 	bge	r2,zero,c0026ac <textVGAColorScreenSaver+0x190>
 c00269c:	10bfffc4 	addi	r2,r2,-1
 c0026a0:	00fffc04 	movi	r3,-16
 c0026a4:	10c4b03a 	or	r2,r2,r3
 c0026a8:	10800044 	addi	r2,r2,1
 c0026ac:	e0bfe215 	stw	r2,-120(fp)
	int count =0;
	while (1) {
	//for(int y = 0; y < COLUMNS; y++){
		fg = rand() % 16;
		bg = rand() % 16;
		while (fg == bg)
 c0026b0:	e0ffe117 	ldw	r3,-124(fp)
 c0026b4:	e0bfe217 	ldw	r2,-120(fp)
 c0026b8:	18bfe726 	beq	r3,r2,c002658 <__alt_data_end+0xfc002658>
		{
			fg = rand() % 16;
			bg = rand() % 16;
		}
		//sprintf(color_string," ttttttt ");
		sprintf(color_string, "Drawing %s text with %s background", colors[fg].name, colors[bg].name);
 c0026bc:	014005c4 	movi	r5,23
 c0026c0:	e13fe117 	ldw	r4,-124(fp)
 c0026c4:	c004e680 	call	c004e68 <__mulsi3>
 c0026c8:	1007883a 	mov	r3,r2
 c0026cc:	008300b4 	movhi	r2,3074
 c0026d0:	10a32204 	addi	r2,r2,-29560
 c0026d4:	18a1883a 	add	r16,r3,r2
 c0026d8:	014005c4 	movi	r5,23
 c0026dc:	e13fe217 	ldw	r4,-120(fp)
 c0026e0:	c004e680 	call	c004e68 <__mulsi3>
 c0026e4:	1007883a 	mov	r3,r2
 c0026e8:	008300b4 	movhi	r2,3074
 c0026ec:	10a32204 	addi	r2,r2,-29560
 c0026f0:	1887883a 	add	r3,r3,r2
 c0026f4:	e0bfe804 	addi	r2,fp,-96
 c0026f8:	180f883a 	mov	r7,r3
 c0026fc:	800d883a 	mov	r6,r16
 c002700:	014300b4 	movhi	r5,3074
 c002704:	2961c404 	addi	r5,r5,-30960
 c002708:	1009883a 	mov	r4,r2
 c00270c:	c0050a40 	call	c0050a4 <sprintf>
		x = rand() % (ROWS-strlen(color_string));
 c002710:	c004fe80 	call	c004fe8 <rand>
 c002714:	1021883a 	mov	r16,r2
 c002718:	e0bfe804 	addi	r2,fp,-96
 c00271c:	1009883a 	mov	r4,r2
 c002720:	c0051100 	call	c005110 <strlen>
 c002724:	1007883a 	mov	r3,r2
 c002728:	00800f04 	movi	r2,60
 c00272c:	10c5c83a 	sub	r2,r2,r3
 c002730:	100b883a 	mov	r5,r2
 c002734:	8009883a 	mov	r4,r16
 c002738:	c004e100 	call	c004e10 <__umodsi3>
 c00273c:	e0bfe615 	stw	r2,-104(fp)
		y = rand() % 60;
 c002740:	c004fe80 	call	c004fe8 <rand>
 c002744:	01400f04 	movi	r5,60
 c002748:	1009883a 	mov	r4,r2
 c00274c:	c004d380 	call	c004d38 <__modsi3>
 c002750:	e0bfe715 	stw	r2,-100(fp)
		if (y %2==0) {
 c002754:	e0bfe717 	ldw	r2,-100(fp)
 c002758:	1080004c 	andi	r2,r2,1
 c00275c:	10000b1e 	bne	r2,zero,c00278c <textVGAColorScreenSaver+0x270>
			textVGADrawColorText (color_string, 20, y, bg, fg);
 c002760:	e0bfe217 	ldw	r2,-120(fp)
 c002764:	11003fcc 	andi	r4,r2,255
 c002768:	e0bfe117 	ldw	r2,-124(fp)
 c00276c:	10803fcc 	andi	r2,r2,255
 c002770:	e0ffe804 	addi	r3,fp,-96
 c002774:	d8800015 	stw	r2,0(sp)
 c002778:	200f883a 	mov	r7,r4
 c00277c:	e1bfe717 	ldw	r6,-100(fp)
 c002780:	01400504 	movi	r5,20
 c002784:	1809883a 	mov	r4,r3
 c002788:	c0021e40 	call	c0021e4 <textVGADrawColorText>

		}
		usleep (100000);
 c00278c:	010000b4 	movhi	r4,2
 c002790:	2121a804 	addi	r4,r4,-31072
 c002794:	c0162d00 	call	c0162d0 <usleep>
	//}
	}
 c002798:	003f9806 	br	c0025fc <__alt_data_end+0xfc0025fc>

0c00279c <VGADrawColorBox>:
	//VGADrawColorBox(2,2,15,0);
	//VGADrawColorBox(ROWS/2,COLUMNS/2,3,0);
}

void VGADrawColorBox(int x, int y, alt_u8 background)
{
 c00279c:	defffa04 	addi	sp,sp,-24
 c0027a0:	dfc00515 	stw	ra,20(sp)
 c0027a4:	df000415 	stw	fp,16(sp)
 c0027a8:	dc000315 	stw	r16,12(sp)
 c0027ac:	df000404 	addi	fp,sp,16
 c0027b0:	e13ffc15 	stw	r4,-16(fp)
 c0027b4:	e17ffd15 	stw	r5,-12(fp)
 c0027b8:	3005883a 	mov	r2,r6
 c0027bc:	e0bffe05 	stb	r2,-8(fp)
	vga_ctrl->VRAM[(y*COLUMNS + x) * 2] = 0 << 4 | background;
 c0027c0:	d4200417 	ldw	r16,-32752(gp)
 c0027c4:	01401404 	movi	r5,80
 c0027c8:	e13ffd17 	ldw	r4,-12(fp)
 c0027cc:	c004e680 	call	c004e68 <__mulsi3>
 c0027d0:	1007883a 	mov	r3,r2
 c0027d4:	e0bffc17 	ldw	r2,-16(fp)
 c0027d8:	1885883a 	add	r2,r3,r2
 c0027dc:	1085883a 	add	r2,r2,r2
 c0027e0:	8085883a 	add	r2,r16,r2
 c0027e4:	e0fffe03 	ldbu	r3,-8(fp)
 c0027e8:	10c00005 	stb	r3,0(r2)
}
 c0027ec:	0001883a 	nop
 c0027f0:	e6ffff04 	addi	sp,fp,-4
 c0027f4:	dfc00217 	ldw	ra,8(sp)
 c0027f8:	df000117 	ldw	fp,4(sp)
 c0027fc:	dc000017 	ldw	r16,0(sp)
 c002800:	dec00304 	addi	sp,sp,12
 c002804:	f800283a 	ret

0c002808 <userControlledBlock>:

void userControlledBlock(int x, int y, int index, int color) {
 c002808:	defffa04 	addi	sp,sp,-24
 c00280c:	dfc00515 	stw	ra,20(sp)
 c002810:	df000415 	stw	fp,16(sp)
 c002814:	df000404 	addi	fp,sp,16
 c002818:	e13ffc15 	stw	r4,-16(fp)
 c00281c:	e17ffd15 	stw	r5,-12(fp)
 c002820:	e1bffe15 	stw	r6,-8(fp)
 c002824:	e1ffff15 	stw	r7,-4(fp)
	switch(index) {
 c002828:	e0bffe17 	ldw	r2,-8(fp)
 c00282c:	108001a8 	cmpgeui	r2,r2,6
 c002830:	1000dd1e 	bne	r2,zero,c002ba8 <userControlledBlock+0x3a0>
 c002834:	e0bffe17 	ldw	r2,-8(fp)
 c002838:	100690ba 	slli	r3,r2,2
 c00283c:	00830034 	movhi	r2,3072
 c002840:	108a1404 	addi	r2,r2,10320
 c002844:	1885883a 	add	r2,r3,r2
 c002848:	10800017 	ldw	r2,0(r2)
 c00284c:	1000683a 	jmp	r2
 c002850:	0c002868 	cmpgeui	r16,at,161
 c002854:	0c0028e4 	muli	r16,at,163
 c002858:	0c002988 	cmpgei	r16,at,166
 c00285c:	0c002a24 	muli	r16,at,168
 c002860:	0c002aa0 	cmpeqi	r16,at,170
 c002864:	0c002b24 	muli	r16,at,172
	   case 0  :
		   VGADrawColorBox(x,y-3,color);
 c002868:	e0bffd17 	ldw	r2,-12(fp)
 c00286c:	10ffff44 	addi	r3,r2,-3
 c002870:	e0bfff17 	ldw	r2,-4(fp)
 c002874:	10803fcc 	andi	r2,r2,255
 c002878:	100d883a 	mov	r6,r2
 c00287c:	180b883a 	mov	r5,r3
 c002880:	e13ffc17 	ldw	r4,-16(fp)
 c002884:	c00279c0 	call	c00279c <VGADrawColorBox>
		   VGADrawColorBox(x,y-2,color);
 c002888:	e0bffd17 	ldw	r2,-12(fp)
 c00288c:	10ffff84 	addi	r3,r2,-2
 c002890:	e0bfff17 	ldw	r2,-4(fp)
 c002894:	10803fcc 	andi	r2,r2,255
 c002898:	100d883a 	mov	r6,r2
 c00289c:	180b883a 	mov	r5,r3
 c0028a0:	e13ffc17 	ldw	r4,-16(fp)
 c0028a4:	c00279c0 	call	c00279c <VGADrawColorBox>
		   VGADrawColorBox(x,y-1,color);
 c0028a8:	e0bffd17 	ldw	r2,-12(fp)
 c0028ac:	10ffffc4 	addi	r3,r2,-1
 c0028b0:	e0bfff17 	ldw	r2,-4(fp)
 c0028b4:	10803fcc 	andi	r2,r2,255
 c0028b8:	100d883a 	mov	r6,r2
 c0028bc:	180b883a 	mov	r5,r3
 c0028c0:	e13ffc17 	ldw	r4,-16(fp)
 c0028c4:	c00279c0 	call	c00279c <VGADrawColorBox>
		   VGADrawColorBox(x,y,color);
 c0028c8:	e0bfff17 	ldw	r2,-4(fp)
 c0028cc:	10803fcc 	andi	r2,r2,255
 c0028d0:	100d883a 	mov	r6,r2
 c0028d4:	e17ffd17 	ldw	r5,-12(fp)
 c0028d8:	e13ffc17 	ldw	r4,-16(fp)
 c0028dc:	c00279c0 	call	c00279c <VGADrawColorBox>
	      break;
 c0028e0:	0000d106 	br	c002c28 <userControlledBlock+0x420>
	   case 1  :
		   VGADrawColorBox(x+1,y-3,color);
 c0028e4:	e0bffc17 	ldw	r2,-16(fp)
 c0028e8:	10c00044 	addi	r3,r2,1
 c0028ec:	e0bffd17 	ldw	r2,-12(fp)
 c0028f0:	113fff44 	addi	r4,r2,-3
 c0028f4:	e0bfff17 	ldw	r2,-4(fp)
 c0028f8:	10803fcc 	andi	r2,r2,255
 c0028fc:	100d883a 	mov	r6,r2
 c002900:	200b883a 	mov	r5,r4
 c002904:	1809883a 	mov	r4,r3
 c002908:	c00279c0 	call	c00279c <VGADrawColorBox>
		   VGADrawColorBox(x,y-3,color);
 c00290c:	e0bffd17 	ldw	r2,-12(fp)
 c002910:	10ffff44 	addi	r3,r2,-3
 c002914:	e0bfff17 	ldw	r2,-4(fp)
 c002918:	10803fcc 	andi	r2,r2,255
 c00291c:	100d883a 	mov	r6,r2
 c002920:	180b883a 	mov	r5,r3
 c002924:	e13ffc17 	ldw	r4,-16(fp)
 c002928:	c00279c0 	call	c00279c <VGADrawColorBox>
		   VGADrawColorBox(x,y-2,color);
 c00292c:	e0bffd17 	ldw	r2,-12(fp)
 c002930:	10ffff84 	addi	r3,r2,-2
 c002934:	e0bfff17 	ldw	r2,-4(fp)
 c002938:	10803fcc 	andi	r2,r2,255
 c00293c:	100d883a 	mov	r6,r2
 c002940:	180b883a 	mov	r5,r3
 c002944:	e13ffc17 	ldw	r4,-16(fp)
 c002948:	c00279c0 	call	c00279c <VGADrawColorBox>
		   VGADrawColorBox(x,y-1,color);
 c00294c:	e0bffd17 	ldw	r2,-12(fp)
 c002950:	10ffffc4 	addi	r3,r2,-1
 c002954:	e0bfff17 	ldw	r2,-4(fp)
 c002958:	10803fcc 	andi	r2,r2,255
 c00295c:	100d883a 	mov	r6,r2
 c002960:	180b883a 	mov	r5,r3
 c002964:	e13ffc17 	ldw	r4,-16(fp)
 c002968:	c00279c0 	call	c00279c <VGADrawColorBox>
		   VGADrawColorBox(x,y,color);
 c00296c:	e0bfff17 	ldw	r2,-4(fp)
 c002970:	10803fcc 	andi	r2,r2,255
 c002974:	100d883a 	mov	r6,r2
 c002978:	e17ffd17 	ldw	r5,-12(fp)
 c00297c:	e13ffc17 	ldw	r4,-16(fp)
 c002980:	c00279c0 	call	c00279c <VGADrawColorBox>
	      break;
 c002984:	0000a806 	br	c002c28 <userControlledBlock+0x420>
	   case 2  :
		   VGADrawColorBox(x+1,y,color);
 c002988:	e0bffc17 	ldw	r2,-16(fp)
 c00298c:	10c00044 	addi	r3,r2,1
 c002990:	e0bfff17 	ldw	r2,-4(fp)
 c002994:	10803fcc 	andi	r2,r2,255
 c002998:	100d883a 	mov	r6,r2
 c00299c:	e17ffd17 	ldw	r5,-12(fp)
 c0029a0:	1809883a 	mov	r4,r3
 c0029a4:	c00279c0 	call	c00279c <VGADrawColorBox>
		   VGADrawColorBox(x,y-3,color);
 c0029a8:	e0bffd17 	ldw	r2,-12(fp)
 c0029ac:	10ffff44 	addi	r3,r2,-3
 c0029b0:	e0bfff17 	ldw	r2,-4(fp)
 c0029b4:	10803fcc 	andi	r2,r2,255
 c0029b8:	100d883a 	mov	r6,r2
 c0029bc:	180b883a 	mov	r5,r3
 c0029c0:	e13ffc17 	ldw	r4,-16(fp)
 c0029c4:	c00279c0 	call	c00279c <VGADrawColorBox>
		   VGADrawColorBox(x,y-2,color);
 c0029c8:	e0bffd17 	ldw	r2,-12(fp)
 c0029cc:	10ffff84 	addi	r3,r2,-2
 c0029d0:	e0bfff17 	ldw	r2,-4(fp)
 c0029d4:	10803fcc 	andi	r2,r2,255
 c0029d8:	100d883a 	mov	r6,r2
 c0029dc:	180b883a 	mov	r5,r3
 c0029e0:	e13ffc17 	ldw	r4,-16(fp)
 c0029e4:	c00279c0 	call	c00279c <VGADrawColorBox>
		   VGADrawColorBox(x,y-1,color);
 c0029e8:	e0bffd17 	ldw	r2,-12(fp)
 c0029ec:	10ffffc4 	addi	r3,r2,-1
 c0029f0:	e0bfff17 	ldw	r2,-4(fp)
 c0029f4:	10803fcc 	andi	r2,r2,255
 c0029f8:	100d883a 	mov	r6,r2
 c0029fc:	180b883a 	mov	r5,r3
 c002a00:	e13ffc17 	ldw	r4,-16(fp)
 c002a04:	c00279c0 	call	c00279c <VGADrawColorBox>
		   VGADrawColorBox(x,y,color);
 c002a08:	e0bfff17 	ldw	r2,-4(fp)
 c002a0c:	10803fcc 	andi	r2,r2,255
 c002a10:	100d883a 	mov	r6,r2
 c002a14:	e17ffd17 	ldw	r5,-12(fp)
 c002a18:	e13ffc17 	ldw	r4,-16(fp)
 c002a1c:	c00279c0 	call	c00279c <VGADrawColorBox>
	      break;
 c002a20:	00008106 	br	c002c28 <userControlledBlock+0x420>
	   case 3  :
		   VGADrawColorBox(x,y,color);
 c002a24:	e0bfff17 	ldw	r2,-4(fp)
 c002a28:	10803fcc 	andi	r2,r2,255
 c002a2c:	100d883a 	mov	r6,r2
 c002a30:	e17ffd17 	ldw	r5,-12(fp)
 c002a34:	e13ffc17 	ldw	r4,-16(fp)
 c002a38:	c00279c0 	call	c00279c <VGADrawColorBox>
		   VGADrawColorBox(x-1,y,color);
 c002a3c:	e0bffc17 	ldw	r2,-16(fp)
 c002a40:	10ffffc4 	addi	r3,r2,-1
 c002a44:	e0bfff17 	ldw	r2,-4(fp)
 c002a48:	10803fcc 	andi	r2,r2,255
 c002a4c:	100d883a 	mov	r6,r2
 c002a50:	e17ffd17 	ldw	r5,-12(fp)
 c002a54:	1809883a 	mov	r4,r3
 c002a58:	c00279c0 	call	c00279c <VGADrawColorBox>
		   VGADrawColorBox(x+1,y,color);
 c002a5c:	e0bffc17 	ldw	r2,-16(fp)
 c002a60:	10c00044 	addi	r3,r2,1
 c002a64:	e0bfff17 	ldw	r2,-4(fp)
 c002a68:	10803fcc 	andi	r2,r2,255
 c002a6c:	100d883a 	mov	r6,r2
 c002a70:	e17ffd17 	ldw	r5,-12(fp)
 c002a74:	1809883a 	mov	r4,r3
 c002a78:	c00279c0 	call	c00279c <VGADrawColorBox>
		   VGADrawColorBox(x,y-1,color);
 c002a7c:	e0bffd17 	ldw	r2,-12(fp)
 c002a80:	10ffffc4 	addi	r3,r2,-1
 c002a84:	e0bfff17 	ldw	r2,-4(fp)
 c002a88:	10803fcc 	andi	r2,r2,255
 c002a8c:	100d883a 	mov	r6,r2
 c002a90:	180b883a 	mov	r5,r3
 c002a94:	e13ffc17 	ldw	r4,-16(fp)
 c002a98:	c00279c0 	call	c00279c <VGADrawColorBox>
	      break;
 c002a9c:	00006206 	br	c002c28 <userControlledBlock+0x420>
	   case 4  :
		   VGADrawColorBox(x,y,color);
 c002aa0:	e0bfff17 	ldw	r2,-4(fp)
 c002aa4:	10803fcc 	andi	r2,r2,255
 c002aa8:	100d883a 	mov	r6,r2
 c002aac:	e17ffd17 	ldw	r5,-12(fp)
 c002ab0:	e13ffc17 	ldw	r4,-16(fp)
 c002ab4:	c00279c0 	call	c00279c <VGADrawColorBox>
		   VGADrawColorBox(x+1,y,color);
 c002ab8:	e0bffc17 	ldw	r2,-16(fp)
 c002abc:	10c00044 	addi	r3,r2,1
 c002ac0:	e0bfff17 	ldw	r2,-4(fp)
 c002ac4:	10803fcc 	andi	r2,r2,255
 c002ac8:	100d883a 	mov	r6,r2
 c002acc:	e17ffd17 	ldw	r5,-12(fp)
 c002ad0:	1809883a 	mov	r4,r3
 c002ad4:	c00279c0 	call	c00279c <VGADrawColorBox>
		   VGADrawColorBox(x+1,y-1,color);
 c002ad8:	e0bffc17 	ldw	r2,-16(fp)
 c002adc:	10c00044 	addi	r3,r2,1
 c002ae0:	e0bffd17 	ldw	r2,-12(fp)
 c002ae4:	113fffc4 	addi	r4,r2,-1
 c002ae8:	e0bfff17 	ldw	r2,-4(fp)
 c002aec:	10803fcc 	andi	r2,r2,255
 c002af0:	100d883a 	mov	r6,r2
 c002af4:	200b883a 	mov	r5,r4
 c002af8:	1809883a 	mov	r4,r3
 c002afc:	c00279c0 	call	c00279c <VGADrawColorBox>
		   VGADrawColorBox(x,y-1,color);
 c002b00:	e0bffd17 	ldw	r2,-12(fp)
 c002b04:	10ffffc4 	addi	r3,r2,-1
 c002b08:	e0bfff17 	ldw	r2,-4(fp)
 c002b0c:	10803fcc 	andi	r2,r2,255
 c002b10:	100d883a 	mov	r6,r2
 c002b14:	180b883a 	mov	r5,r3
 c002b18:	e13ffc17 	ldw	r4,-16(fp)
 c002b1c:	c00279c0 	call	c00279c <VGADrawColorBox>
	      break;
 c002b20:	00004106 	br	c002c28 <userControlledBlock+0x420>
	   case 5  :
		   VGADrawColorBox(x,y,color);
 c002b24:	e0bfff17 	ldw	r2,-4(fp)
 c002b28:	10803fcc 	andi	r2,r2,255
 c002b2c:	100d883a 	mov	r6,r2
 c002b30:	e17ffd17 	ldw	r5,-12(fp)
 c002b34:	e13ffc17 	ldw	r4,-16(fp)
 c002b38:	c00279c0 	call	c00279c <VGADrawColorBox>
		   VGADrawColorBox(x+1,y,color);
 c002b3c:	e0bffc17 	ldw	r2,-16(fp)
 c002b40:	10c00044 	addi	r3,r2,1
 c002b44:	e0bfff17 	ldw	r2,-4(fp)
 c002b48:	10803fcc 	andi	r2,r2,255
 c002b4c:	100d883a 	mov	r6,r2
 c002b50:	e17ffd17 	ldw	r5,-12(fp)
 c002b54:	1809883a 	mov	r4,r3
 c002b58:	c00279c0 	call	c00279c <VGADrawColorBox>
		   VGADrawColorBox(x,y-1,color);
 c002b5c:	e0bffd17 	ldw	r2,-12(fp)
 c002b60:	10ffffc4 	addi	r3,r2,-1
 c002b64:	e0bfff17 	ldw	r2,-4(fp)
 c002b68:	10803fcc 	andi	r2,r2,255
 c002b6c:	100d883a 	mov	r6,r2
 c002b70:	180b883a 	mov	r5,r3
 c002b74:	e13ffc17 	ldw	r4,-16(fp)
 c002b78:	c00279c0 	call	c00279c <VGADrawColorBox>
		   VGADrawColorBox(x-1,y-1,color);
 c002b7c:	e0bffc17 	ldw	r2,-16(fp)
 c002b80:	10ffffc4 	addi	r3,r2,-1
 c002b84:	e0bffd17 	ldw	r2,-12(fp)
 c002b88:	113fffc4 	addi	r4,r2,-1
 c002b8c:	e0bfff17 	ldw	r2,-4(fp)
 c002b90:	10803fcc 	andi	r2,r2,255
 c002b94:	100d883a 	mov	r6,r2
 c002b98:	200b883a 	mov	r5,r4
 c002b9c:	1809883a 	mov	r4,r3
 c002ba0:	c00279c0 	call	c00279c <VGADrawColorBox>
	      break;
 c002ba4:	00002006 	br	c002c28 <userControlledBlock+0x420>
	   default :
		   VGADrawColorBox(x,y,color);
 c002ba8:	e0bfff17 	ldw	r2,-4(fp)
 c002bac:	10803fcc 	andi	r2,r2,255
 c002bb0:	100d883a 	mov	r6,r2
 c002bb4:	e17ffd17 	ldw	r5,-12(fp)
 c002bb8:	e13ffc17 	ldw	r4,-16(fp)
 c002bbc:	c00279c0 	call	c00279c <VGADrawColorBox>
		   VGADrawColorBox(x,y-1,color);
 c002bc0:	e0bffd17 	ldw	r2,-12(fp)
 c002bc4:	10ffffc4 	addi	r3,r2,-1
 c002bc8:	e0bfff17 	ldw	r2,-4(fp)
 c002bcc:	10803fcc 	andi	r2,r2,255
 c002bd0:	100d883a 	mov	r6,r2
 c002bd4:	180b883a 	mov	r5,r3
 c002bd8:	e13ffc17 	ldw	r4,-16(fp)
 c002bdc:	c00279c0 	call	c00279c <VGADrawColorBox>
		   VGADrawColorBox(x+1,y-1,color);
 c002be0:	e0bffc17 	ldw	r2,-16(fp)
 c002be4:	10c00044 	addi	r3,r2,1
 c002be8:	e0bffd17 	ldw	r2,-12(fp)
 c002bec:	113fffc4 	addi	r4,r2,-1
 c002bf0:	e0bfff17 	ldw	r2,-4(fp)
 c002bf4:	10803fcc 	andi	r2,r2,255
 c002bf8:	100d883a 	mov	r6,r2
 c002bfc:	200b883a 	mov	r5,r4
 c002c00:	1809883a 	mov	r4,r3
 c002c04:	c00279c0 	call	c00279c <VGADrawColorBox>
		   VGADrawColorBox(x+1,y,color);
 c002c08:	e0bffc17 	ldw	r2,-16(fp)
 c002c0c:	10c00044 	addi	r3,r2,1
 c002c10:	e0bfff17 	ldw	r2,-4(fp)
 c002c14:	10803fcc 	andi	r2,r2,255
 c002c18:	100d883a 	mov	r6,r2
 c002c1c:	e17ffd17 	ldw	r5,-12(fp)
 c002c20:	1809883a 	mov	r4,r3
 c002c24:	c00279c0 	call	c00279c <VGADrawColorBox>
	}
}
 c002c28:	0001883a 	nop
 c002c2c:	e037883a 	mov	sp,fp
 c002c30:	dfc00117 	ldw	ra,4(sp)
 c002c34:	df000017 	ldw	fp,0(sp)
 c002c38:	dec00204 	addi	sp,sp,8
 c002c3c:	f800283a 	ret

0c002c40 <HIDMProbe>:
/* HID Mouse probe. Called from USB state machine.                          */
/* assumes configuration length is less than 256 bytes                      */
/* looks for Class:03, Subclass: 01, Protocol: 02 in interface descriptor   */
/* sets mouse in boot protocol                                              */
/* assumes single configuration and interface configuration 0               */
BOOL HIDMProbe(BYTE addr, DWORD flags) {
 c002c40:	defff204 	addi	sp,sp,-56
 c002c44:	dfc00d15 	stw	ra,52(sp)
 c002c48:	df000c15 	stw	fp,48(sp)
 c002c4c:	df000c04 	addi	fp,sp,48
 c002c50:	2005883a 	mov	r2,r4
 c002c54:	e17fff15 	stw	r5,-4(fp)
 c002c58:	e0bffe05 	stb	r2,-8(fp)
	BYTE tmpbyte;
	BYTE rcode;
	BYTE confvalue;
	WORD total_length;
	USB_DESCR* data_ptr = (USB_DESCR *) &bigbuf;
 c002c5c:	008300b4 	movhi	r2,3074
 c002c60:	10977c04 	addi	r2,r2,24048
 c002c64:	e0bffa15 	stw	r2,-24(fp)
	BYTE* byte_ptr = bigbuf;
 c002c68:	008300b4 	movhi	r2,3074
 c002c6c:	10977c04 	addi	r2,r2,24048
 c002c70:	e0bffb15 	stw	r2,-20(fp)
	rcode = XferGetConfDescr(addr, 0, CONF_DESCR_LEN, 0, bigbuf); //get configuration descriptor
 c002c74:	e0fffe03 	ldbu	r3,-8(fp)
 c002c78:	008300b4 	movhi	r2,3074
 c002c7c:	10977c04 	addi	r2,r2,24048
 c002c80:	d8800415 	stw	r2,16(sp)
 c002c84:	00800244 	movi	r2,9
 c002c88:	d8800315 	stw	r2,12(sp)
 c002c8c:	d8000215 	stw	zero,8(sp)
 c002c90:	00800084 	movi	r2,2
 c002c94:	d8800115 	stw	r2,4(sp)
 c002c98:	d8000015 	stw	zero,0(sp)
 c002c9c:	01c00184 	movi	r7,6
 c002ca0:	01802004 	movi	r6,128
 c002ca4:	000b883a 	mov	r5,zero
 c002ca8:	1809883a 	mov	r4,r3
 c002cac:	c003e1c0 	call	c003e1c <XferCtrlReq>
 c002cb0:	e0bffc05 	stb	r2,-16(fp)
	if (rcode) {   //error handling
 c002cb4:	e0bffc03 	ldbu	r2,-16(fp)
 c002cb8:	10000226 	beq	r2,zero,c002cc4 <HIDMProbe+0x84>
		//printf("unable to get configuration descriptor");
		return (FALSE);
 c002cbc:	0005883a 	mov	r2,zero
 c002cc0:	0000dc06 	br	c003034 <HIDMProbe+0x3f4>
	}
	if (data_ptr->descr.config.wTotalLength > 256) {
 c002cc4:	e0bffa17 	ldw	r2,-24(fp)
 c002cc8:	1080008b 	ldhu	r2,2(r2)
 c002ccc:	10bfffcc 	andi	r2,r2,65535
 c002cd0:	10804070 	cmpltui	r2,r2,257
 c002cd4:	1000031e 	bne	r2,zero,c002ce4 <HIDMProbe+0xa4>
		total_length = 256;
 c002cd8:	00804004 	movi	r2,256
 c002cdc:	e0bff90d 	sth	r2,-28(fp)
 c002ce0:	00000306 	br	c002cf0 <HIDMProbe+0xb0>
	} else {
		total_length = data_ptr->descr.config.wTotalLength;
 c002ce4:	e0bffa17 	ldw	r2,-24(fp)
 c002ce8:	1080008b 	ldhu	r2,2(r2)
 c002cec:	e0bff90d 	sth	r2,-28(fp)
	}
	rcode = XferGetConfDescr(addr, 0, total_length, 0, bigbuf); //get the whole configuration
 c002cf0:	e13ffe03 	ldbu	r4,-8(fp)
 c002cf4:	e0fff90b 	ldhu	r3,-28(fp)
 c002cf8:	008300b4 	movhi	r2,3074
 c002cfc:	10977c04 	addi	r2,r2,24048
 c002d00:	d8800415 	stw	r2,16(sp)
 c002d04:	d8c00315 	stw	r3,12(sp)
 c002d08:	d8000215 	stw	zero,8(sp)
 c002d0c:	00800084 	movi	r2,2
 c002d10:	d8800115 	stw	r2,4(sp)
 c002d14:	d8000015 	stw	zero,0(sp)
 c002d18:	01c00184 	movi	r7,6
 c002d1c:	01802004 	movi	r6,128
 c002d20:	000b883a 	mov	r5,zero
 c002d24:	c003e1c0 	call	c003e1c <XferCtrlReq>
 c002d28:	e0bffc05 	stb	r2,-16(fp)
	if (rcode) {   //error handling
 c002d2c:	e0bffc03 	ldbu	r2,-16(fp)
 c002d30:	10000226 	beq	r2,zero,c002d3c <HIDMProbe+0xfc>
		//printf("unable to get configuration");
		return (FALSE);
 c002d34:	0005883a 	mov	r2,zero
 c002d38:	0000be06 	br	c003034 <HIDMProbe+0x3f4>
	}
	confvalue = data_ptr->descr.config.bConfigurationValue;
 c002d3c:	e0bffa17 	ldw	r2,-24(fp)
 c002d40:	10800143 	ldbu	r2,5(r2)
 c002d44:	e0bffc45 	stb	r2,-15(fp)
	//printf("checking configuration value (length: %d): ",
	//		data_ptr->descr.config.wTotalLength);
	//for (int i = 0; i < data_ptr->descr.config.wTotalLength; i++) {
		//printf("%x ", (unsigned char) (bigbuf[i] & 0xff));
	//}
	while (byte_ptr < bigbuf + total_length) {
 c002d48:	0000b306 	br	c003018 <HIDMProbe+0x3d8>
		if (data_ptr->descr.config.bDescriptorType != USB_DESCRIPTOR_INTERFACE) {
 c002d4c:	e0bffa17 	ldw	r2,-24(fp)
 c002d50:	10800043 	ldbu	r2,1(r2)
 c002d54:	10803fcc 	andi	r2,r2,255
 c002d58:	10800120 	cmpeqi	r2,r2,4
 c002d5c:	1000091e 	bne	r2,zero,c002d84 <HIDMProbe+0x144>
			byte_ptr = byte_ptr + data_ptr->descr.config.bLength;
 c002d60:	e0bffa17 	ldw	r2,-24(fp)
 c002d64:	10800003 	ldbu	r2,0(r2)
 c002d68:	10803fcc 	andi	r2,r2,255
 c002d6c:	e0fffb17 	ldw	r3,-20(fp)
 c002d70:	1885883a 	add	r2,r3,r2
 c002d74:	e0bffb15 	stw	r2,-20(fp)
			data_ptr = (USB_DESCR*) byte_ptr;
 c002d78:	e0bffb17 	ldw	r2,-20(fp)
 c002d7c:	e0bffa15 	stw	r2,-24(fp)
 c002d80:	0000a506 	br	c003018 <HIDMProbe+0x3d8>
		} // if( data_ptr->descr.config.bDescriptorType != USB_DESCRIPTOR_INTERFACE
		else {
			//printf("starting interface parsing at byte location %d\n",
			//		data_ptr->descr.config.bLength);
			BYTE class = data_ptr->descr.interface.bInterfaceClass;
 c002d84:	e0bffa17 	ldw	r2,-24(fp)
 c002d88:	10800143 	ldbu	r2,5(r2)
 c002d8c:	e0bffc85 	stb	r2,-14(fp)
			BYTE subclass = data_ptr->descr.interface.bInterfaceSubClass;
 c002d90:	e0bffa17 	ldw	r2,-24(fp)
 c002d94:	10800183 	ldbu	r2,6(r2)
 c002d98:	e0bffcc5 	stb	r2,-13(fp)
			BYTE protocol = data_ptr->descr.interface.bInterfaceProtocol;
 c002d9c:	e0bffa17 	ldw	r2,-24(fp)
 c002da0:	108001c3 	ldbu	r2,7(r2)
 c002da4:	e0bffd05 	stb	r2,-12(fp)
			//printf("class %x, subclass %x, protocol %x,\n", class, subclass,
			//		protocol);
			//interface descriptor
			if (class == HID_INTF && subclass == BOOT_INTF_SUBCLASS
 c002da8:	e0bffc83 	ldbu	r2,-14(fp)
 c002dac:	108000d8 	cmpnei	r2,r2,3
 c002db0:	1000971e 	bne	r2,zero,c003010 <HIDMProbe+0x3d0>
 c002db4:	e0bffcc3 	ldbu	r2,-13(fp)
 c002db8:	10800058 	cmpnei	r2,r2,1
 c002dbc:	1000941e 	bne	r2,zero,c003010 <HIDMProbe+0x3d0>
					&& protocol == HID_PROTOCOL_MOUSE) {
 c002dc0:	e0bffd03 	ldbu	r2,-12(fp)
 c002dc4:	10800098 	cmpnei	r2,r2,2
 c002dc8:	1000911e 	bne	r2,zero,c003010 <HIDMProbe+0x3d0>
				//detected a mouse
				devtable[addr].devclass = HID_M;                  //device class
 c002dcc:	e0fffe03 	ldbu	r3,-8(fp)
 c002dd0:	008300b4 	movhi	r2,3074
 c002dd4:	1097bc04 	addi	r2,r2,24304
 c002dd8:	180690fa 	slli	r3,r3,3
 c002ddc:	10c5883a 	add	r2,r2,r3
 c002de0:	10800104 	addi	r2,r2,4
 c002de4:	00c00084 	movi	r3,2
 c002de8:	10c00005 	stb	r3,0(r2)
				tmpbyte = devtable[addr].epinfo->MaxPktSize;
 c002dec:	e0fffe03 	ldbu	r3,-8(fp)
 c002df0:	008300b4 	movhi	r2,3074
 c002df4:	1097bc04 	addi	r2,r2,24304
 c002df8:	180690fa 	slli	r3,r3,3
 c002dfc:	10c5883a 	add	r2,r2,r3
 c002e00:	10800017 	ldw	r2,0(r2)
 c002e04:	1080008b 	ldhu	r2,2(r2)
 c002e08:	e0bffd45 	stb	r2,-11(fp)
				HID_init();                         //initialize data structures
 c002e0c:	c0034500 	call	c003450 <HID_init>
				devtable[addr].epinfo = hid_ep; //switch endpoint information structure
 c002e10:	e0fffe03 	ldbu	r3,-8(fp)
 c002e14:	008300b4 	movhi	r2,3074
 c002e18:	1097bc04 	addi	r2,r2,24304
 c002e1c:	180690fa 	slli	r3,r3,3
 c002e20:	10c7883a 	add	r3,r2,r3
 c002e24:	008300b4 	movhi	r2,3074
 c002e28:	10b1e804 	addi	r2,r2,-14432
 c002e2c:	18800015 	stw	r2,0(r3)
				devtable[addr].epinfo[0].MaxPktSize = tmpbyte;
 c002e30:	e0fffe03 	ldbu	r3,-8(fp)
 c002e34:	008300b4 	movhi	r2,3074
 c002e38:	1097bc04 	addi	r2,r2,24304
 c002e3c:	180690fa 	slli	r3,r3,3
 c002e40:	10c5883a 	add	r2,r2,r3
 c002e44:	10800017 	ldw	r2,0(r2)
 c002e48:	e0fffd43 	ldbu	r3,-11(fp)
 c002e4c:	10c0008d 	sth	r3,2(r2)
				hid_device.interface =
						data_ptr->descr.interface.bInterfaceNumber;
 c002e50:	e0bffa17 	ldw	r2,-24(fp)
 c002e54:	10800083 	ldbu	r2,2(r2)
				devtable[addr].devclass = HID_M;                  //device class
				tmpbyte = devtable[addr].epinfo->MaxPktSize;
				HID_init();                         //initialize data structures
				devtable[addr].epinfo = hid_ep; //switch endpoint information structure
				devtable[addr].epinfo[0].MaxPktSize = tmpbyte;
				hid_device.interface =
 c002e58:	d0a79f45 	stb	r2,-24963(gp)
						data_ptr->descr.interface.bInterfaceNumber;
				hid_device.addr = addr;
 c002e5c:	e0bffe03 	ldbu	r2,-8(fp)
 c002e60:	d0a79f05 	stb	r2,-24964(gp)
				byte_ptr = byte_ptr + data_ptr->descr.config.bLength;
 c002e64:	e0bffa17 	ldw	r2,-24(fp)
 c002e68:	10800003 	ldbu	r2,0(r2)
 c002e6c:	10803fcc 	andi	r2,r2,255
 c002e70:	e0fffb17 	ldw	r3,-20(fp)
 c002e74:	1885883a 	add	r2,r3,r2
 c002e78:	e0bffb15 	stw	r2,-20(fp)
				data_ptr = (USB_DESCR*) byte_ptr;
 c002e7c:	e0bffb17 	ldw	r2,-20(fp)
 c002e80:	e0bffa15 	stw	r2,-24(fp)
				while (byte_ptr < bigbuf + total_length) {
 c002e84:	00005b06 	br	c002ff4 <HIDMProbe+0x3b4>
					if (data_ptr->descr.config.bDescriptorType
 c002e88:	e0bffa17 	ldw	r2,-24(fp)
 c002e8c:	10800043 	ldbu	r2,1(r2)
 c002e90:	10803fcc 	andi	r2,r2,255
 c002e94:	10800160 	cmpeqi	r2,r2,5
 c002e98:	1000091e 	bne	r2,zero,c002ec0 <HIDMProbe+0x280>
							!= USB_DESCRIPTOR_ENDPOINT) { //skip to endpoint descriptor
						byte_ptr = byte_ptr + data_ptr->descr.config.bLength;
 c002e9c:	e0bffa17 	ldw	r2,-24(fp)
 c002ea0:	10800003 	ldbu	r2,0(r2)
 c002ea4:	10803fcc 	andi	r2,r2,255
 c002ea8:	e0fffb17 	ldw	r3,-20(fp)
 c002eac:	1885883a 	add	r2,r3,r2
 c002eb0:	e0bffb15 	stw	r2,-20(fp)
						data_ptr = (USB_DESCR*) byte_ptr;
 c002eb4:	e0bffb17 	ldw	r2,-20(fp)
 c002eb8:	e0bffa15 	stw	r2,-24(fp)
 c002ebc:	00004d06 	br	c002ff4 <HIDMProbe+0x3b4>
					} else {
						/* fill endpoint information structure */
						devtable[addr].epinfo[1].epAddr =
 c002ec0:	e0fffe03 	ldbu	r3,-8(fp)
 c002ec4:	008300b4 	movhi	r2,3074
 c002ec8:	1097bc04 	addi	r2,r2,24304
 c002ecc:	180690fa 	slli	r3,r3,3
 c002ed0:	10c5883a 	add	r2,r2,r3
 c002ed4:	10800017 	ldw	r2,0(r2)
 c002ed8:	10800204 	addi	r2,r2,8
								data_ptr->descr.endpoint.bEndpointAddress;
 c002edc:	e0fffa17 	ldw	r3,-24(fp)
 c002ee0:	18c00083 	ldbu	r3,2(r3)
							!= USB_DESCRIPTOR_ENDPOINT) { //skip to endpoint descriptor
						byte_ptr = byte_ptr + data_ptr->descr.config.bLength;
						data_ptr = (USB_DESCR*) byte_ptr;
					} else {
						/* fill endpoint information structure */
						devtable[addr].epinfo[1].epAddr =
 c002ee4:	10c00005 	stb	r3,0(r2)
								data_ptr->descr.endpoint.bEndpointAddress;
						devtable[addr].epinfo[1].Attr =
 c002ee8:	e0fffe03 	ldbu	r3,-8(fp)
 c002eec:	008300b4 	movhi	r2,3074
 c002ef0:	1097bc04 	addi	r2,r2,24304
 c002ef4:	180690fa 	slli	r3,r3,3
 c002ef8:	10c5883a 	add	r2,r2,r3
 c002efc:	10800017 	ldw	r2,0(r2)
 c002f00:	10800204 	addi	r2,r2,8
								data_ptr->descr.endpoint.bmAttributes;
 c002f04:	e0fffa17 	ldw	r3,-24(fp)
 c002f08:	18c000c3 	ldbu	r3,3(r3)
						data_ptr = (USB_DESCR*) byte_ptr;
					} else {
						/* fill endpoint information structure */
						devtable[addr].epinfo[1].epAddr =
								data_ptr->descr.endpoint.bEndpointAddress;
						devtable[addr].epinfo[1].Attr =
 c002f0c:	10c00045 	stb	r3,1(r2)
								data_ptr->descr.endpoint.bmAttributes;
						devtable[addr].epinfo[1].MaxPktSize =
 c002f10:	e0fffe03 	ldbu	r3,-8(fp)
 c002f14:	008300b4 	movhi	r2,3074
 c002f18:	1097bc04 	addi	r2,r2,24304
 c002f1c:	180690fa 	slli	r3,r3,3
 c002f20:	10c5883a 	add	r2,r2,r3
 c002f24:	10800017 	ldw	r2,0(r2)
 c002f28:	10800204 	addi	r2,r2,8
								data_ptr->descr.endpoint.wMaxPacketSize;
 c002f2c:	e0fffa17 	ldw	r3,-24(fp)
 c002f30:	18c0010b 	ldhu	r3,4(r3)
						/* fill endpoint information structure */
						devtable[addr].epinfo[1].epAddr =
								data_ptr->descr.endpoint.bEndpointAddress;
						devtable[addr].epinfo[1].Attr =
								data_ptr->descr.endpoint.bmAttributes;
						devtable[addr].epinfo[1].MaxPktSize =
 c002f34:	10c0008d 	sth	r3,2(r2)
								data_ptr->descr.endpoint.wMaxPacketSize;
						devtable[addr].epinfo[1].Interval =
 c002f38:	e0fffe03 	ldbu	r3,-8(fp)
 c002f3c:	008300b4 	movhi	r2,3074
 c002f40:	1097bc04 	addi	r2,r2,24304
 c002f44:	180690fa 	slli	r3,r3,3
 c002f48:	10c5883a 	add	r2,r2,r3
 c002f4c:	10800017 	ldw	r2,0(r2)
 c002f50:	10800204 	addi	r2,r2,8
								data_ptr->descr.endpoint.bInterval;
 c002f54:	e0fffa17 	ldw	r3,-24(fp)
 c002f58:	18c00183 	ldbu	r3,6(r3)
								data_ptr->descr.endpoint.bEndpointAddress;
						devtable[addr].epinfo[1].Attr =
								data_ptr->descr.endpoint.bmAttributes;
						devtable[addr].epinfo[1].MaxPktSize =
								data_ptr->descr.endpoint.wMaxPacketSize;
						devtable[addr].epinfo[1].Interval =
 c002f5c:	10c00105 	stb	r3,4(r2)
								data_ptr->descr.endpoint.bInterval;
						// devtable[ addr ].epinfo[ 1 ].rcvToggle = bmRCVTOG0;
						/* configure device */
						rcode = XferSetConf(addr, 0, confvalue); //set configuration
 c002f60:	e0fffe03 	ldbu	r3,-8(fp)
 c002f64:	e0bffc43 	ldbu	r2,-15(fp)
 c002f68:	d8000415 	stw	zero,16(sp)
 c002f6c:	d8000315 	stw	zero,12(sp)
 c002f70:	d8000215 	stw	zero,8(sp)
 c002f74:	d8000115 	stw	zero,4(sp)
 c002f78:	d8800015 	stw	r2,0(sp)
 c002f7c:	01c00244 	movi	r7,9
 c002f80:	000d883a 	mov	r6,zero
 c002f84:	000b883a 	mov	r5,zero
 c002f88:	1809883a 	mov	r4,r3
 c002f8c:	c003e1c0 	call	c003e1c <XferCtrlReq>
 c002f90:	e0bffc05 	stb	r2,-16(fp)
						if (rcode) {   //error handling
 c002f94:	e0bffc03 	ldbu	r2,-16(fp)
 c002f98:	10000226 	beq	r2,zero,c002fa4 <HIDMProbe+0x364>
							return (FALSE);
 c002f9c:	0005883a 	mov	r2,zero
 c002fa0:	00002406 	br	c003034 <HIDMProbe+0x3f4>
						}
						rcode = XferSetProto(addr, 0, hid_device.interface,
 c002fa4:	e0fffe03 	ldbu	r3,-8(fp)
 c002fa8:	d0a79f43 	ldbu	r2,-24963(gp)
 c002fac:	10803fcc 	andi	r2,r2,255
 c002fb0:	d8000415 	stw	zero,16(sp)
 c002fb4:	d8000315 	stw	zero,12(sp)
 c002fb8:	d8800215 	stw	r2,8(sp)
 c002fbc:	d8000115 	stw	zero,4(sp)
 c002fc0:	d8000015 	stw	zero,0(sp)
 c002fc4:	01c002c4 	movi	r7,11
 c002fc8:	01800844 	movi	r6,33
 c002fcc:	000b883a 	mov	r5,zero
 c002fd0:	1809883a 	mov	r4,r3
 c002fd4:	c003e1c0 	call	c003e1c <XferCtrlReq>
 c002fd8:	e0bffc05 	stb	r2,-16(fp)
								BOOT_PROTOCOL);
						if (rcode) {   //error handling
 c002fdc:	e0bffc03 	ldbu	r2,-16(fp)
 c002fe0:	10000226 	beq	r2,zero,c002fec <HIDMProbe+0x3ac>
							return (FALSE);
 c002fe4:	0005883a 	mov	r2,zero
 c002fe8:	00001206 	br	c003034 <HIDMProbe+0x3f4>
						} else {
							return (TRUE);
 c002fec:	00800044 	movi	r2,1
 c002ff0:	00001006 	br	c003034 <HIDMProbe+0x3f4>
				hid_device.interface =
						data_ptr->descr.interface.bInterfaceNumber;
				hid_device.addr = addr;
				byte_ptr = byte_ptr + data_ptr->descr.config.bLength;
				data_ptr = (USB_DESCR*) byte_ptr;
				while (byte_ptr < bigbuf + total_length) {
 c002ff4:	e0fff90b 	ldhu	r3,-28(fp)
 c002ff8:	008300b4 	movhi	r2,3074
 c002ffc:	10977c04 	addi	r2,r2,24048
 c003000:	1885883a 	add	r2,r3,r2
 c003004:	e0fffb17 	ldw	r3,-20(fp)
 c003008:	18bf9f36 	bltu	r3,r2,c002e88 <__alt_data_end+0xfc002e88>
			BYTE subclass = data_ptr->descr.interface.bInterfaceSubClass;
			BYTE protocol = data_ptr->descr.interface.bInterfaceProtocol;
			//printf("class %x, subclass %x, protocol %x,\n", class, subclass,
			//		protocol);
			//interface descriptor
			if (class == HID_INTF && subclass == BOOT_INTF_SUBCLASS
 c00300c:	00000206 	br	c003018 <HIDMProbe+0x3d8>
						}
					}
				}   //while( byte_ptr....
			}   //if (Class matches
			else { //if class don't match; die on first interface. Not really correct
				return (FALSE);
 c003010:	0005883a 	mov	r2,zero
 c003014:	00000706 	br	c003034 <HIDMProbe+0x3f4>
	//printf("checking configuration value (length: %d): ",
	//		data_ptr->descr.config.wTotalLength);
	//for (int i = 0; i < data_ptr->descr.config.wTotalLength; i++) {
		//printf("%x ", (unsigned char) (bigbuf[i] & 0xff));
	//}
	while (byte_ptr < bigbuf + total_length) {
 c003018:	e0fff90b 	ldhu	r3,-28(fp)
 c00301c:	008300b4 	movhi	r2,3074
 c003020:	10977c04 	addi	r2,r2,24048
 c003024:	1885883a 	add	r2,r3,r2
 c003028:	e0fffb17 	ldw	r3,-20(fp)
 c00302c:	18bf4736 	bltu	r3,r2,c002d4c <__alt_data_end+0xfc002d4c>
			else { //if class don't match; die on first interface. Not really correct
				return (FALSE);
			}
		} //else if( data_ptr->
	} // while( byte_ptr < &buf + total_length
	return (FALSE);
 c003030:	0005883a 	mov	r2,zero
}
 c003034:	e037883a 	mov	sp,fp
 c003038:	dfc00117 	ldw	ra,4(sp)
 c00303c:	df000017 	ldw	fp,0(sp)
 c003040:	dec00204 	addi	sp,sp,8
 c003044:	f800283a 	ret

0c003048 <HIDKProbe>:
/* HID Keyboard probe. Called from USB state machine.                           */
/* assumes configuration length is less than 256 bytes                          */
/* looks for Class:03, Subclass: 01, Protocol: 01 in interface descriptor       */
/* sets keyboard in boot protocol                                               */
/* assumes single configuration, single endpoint, and interface configuration 0 */
BOOL HIDKProbe(BYTE addr, DWORD flags) {
 c003048:	defff204 	addi	sp,sp,-56
 c00304c:	dfc00d15 	stw	ra,52(sp)
 c003050:	df000c15 	stw	fp,48(sp)
 c003054:	df000c04 	addi	fp,sp,48
 c003058:	2005883a 	mov	r2,r4
 c00305c:	e17fff15 	stw	r5,-4(fp)
 c003060:	e0bffe05 	stb	r2,-8(fp)
	BYTE tmpbyte;
	BYTE rcode;
	BYTE confvalue;
	WORD total_length;
	USB_DESCR* data_ptr = (USB_DESCR *) &bigbuf;
 c003064:	008300b4 	movhi	r2,3074
 c003068:	10977c04 	addi	r2,r2,24048
 c00306c:	e0bffa15 	stw	r2,-24(fp)
	BYTE* byte_ptr = bigbuf;
 c003070:	008300b4 	movhi	r2,3074
 c003074:	10977c04 	addi	r2,r2,24048
 c003078:	e0bffb15 	stw	r2,-20(fp)
	rcode = XferGetConfDescr(addr, 0, CONF_DESCR_LEN, 0, bigbuf); //get configuration descriptor
 c00307c:	e0fffe03 	ldbu	r3,-8(fp)
 c003080:	008300b4 	movhi	r2,3074
 c003084:	10977c04 	addi	r2,r2,24048
 c003088:	d8800415 	stw	r2,16(sp)
 c00308c:	00800244 	movi	r2,9
 c003090:	d8800315 	stw	r2,12(sp)
 c003094:	d8000215 	stw	zero,8(sp)
 c003098:	00800084 	movi	r2,2
 c00309c:	d8800115 	stw	r2,4(sp)
 c0030a0:	d8000015 	stw	zero,0(sp)
 c0030a4:	01c00184 	movi	r7,6
 c0030a8:	01802004 	movi	r6,128
 c0030ac:	000b883a 	mov	r5,zero
 c0030b0:	1809883a 	mov	r4,r3
 c0030b4:	c003e1c0 	call	c003e1c <XferCtrlReq>
 c0030b8:	e0bffc05 	stb	r2,-16(fp)
	if (rcode) {   //error handling           
 c0030bc:	e0bffc03 	ldbu	r2,-16(fp)
 c0030c0:	10000226 	beq	r2,zero,c0030cc <HIDKProbe+0x84>
		return (FALSE);
 c0030c4:	0005883a 	mov	r2,zero
 c0030c8:	0000dc06 	br	c00343c <HIDKProbe+0x3f4>
	}
	if (data_ptr->descr.config.wTotalLength > 256) {
 c0030cc:	e0bffa17 	ldw	r2,-24(fp)
 c0030d0:	1080008b 	ldhu	r2,2(r2)
 c0030d4:	10bfffcc 	andi	r2,r2,65535
 c0030d8:	10804070 	cmpltui	r2,r2,257
 c0030dc:	1000031e 	bne	r2,zero,c0030ec <HIDKProbe+0xa4>
		total_length = 256;
 c0030e0:	00804004 	movi	r2,256
 c0030e4:	e0bff90d 	sth	r2,-28(fp)
 c0030e8:	00000306 	br	c0030f8 <HIDKProbe+0xb0>
	} else {
		total_length = data_ptr->descr.config.wTotalLength;
 c0030ec:	e0bffa17 	ldw	r2,-24(fp)
 c0030f0:	1080008b 	ldhu	r2,2(r2)
 c0030f4:	e0bff90d 	sth	r2,-28(fp)
	}
	rcode = XferGetConfDescr(addr, 0, total_length, 0, bigbuf); //get the whole configuration
 c0030f8:	e13ffe03 	ldbu	r4,-8(fp)
 c0030fc:	e0fff90b 	ldhu	r3,-28(fp)
 c003100:	008300b4 	movhi	r2,3074
 c003104:	10977c04 	addi	r2,r2,24048
 c003108:	d8800415 	stw	r2,16(sp)
 c00310c:	d8c00315 	stw	r3,12(sp)
 c003110:	d8000215 	stw	zero,8(sp)
 c003114:	00800084 	movi	r2,2
 c003118:	d8800115 	stw	r2,4(sp)
 c00311c:	d8000015 	stw	zero,0(sp)
 c003120:	01c00184 	movi	r7,6
 c003124:	01802004 	movi	r6,128
 c003128:	000b883a 	mov	r5,zero
 c00312c:	c003e1c0 	call	c003e1c <XferCtrlReq>
 c003130:	e0bffc05 	stb	r2,-16(fp)
	if (rcode) {   //error handling
 c003134:	e0bffc03 	ldbu	r2,-16(fp)
 c003138:	10000226 	beq	r2,zero,c003144 <HIDKProbe+0xfc>
		return (FALSE);
 c00313c:	0005883a 	mov	r2,zero
 c003140:	0000be06 	br	c00343c <HIDKProbe+0x3f4>
	}
	confvalue = data_ptr->descr.config.bConfigurationValue; //save configuration value to use later
 c003144:	e0bffa17 	ldw	r2,-24(fp)
 c003148:	10800143 	ldbu	r2,5(r2)
 c00314c:	e0bffc45 	stb	r2,-15(fp)
	while (byte_ptr < bigbuf + total_length) {             //parse configuration
 c003150:	0000b306 	br	c003420 <HIDKProbe+0x3d8>
		if (data_ptr->descr.config.bDescriptorType != USB_DESCRIPTOR_INTERFACE) { //skip to the next descriptor
 c003154:	e0bffa17 	ldw	r2,-24(fp)
 c003158:	10800043 	ldbu	r2,1(r2)
 c00315c:	10803fcc 	andi	r2,r2,255
 c003160:	10800120 	cmpeqi	r2,r2,4
 c003164:	1000091e 	bne	r2,zero,c00318c <HIDKProbe+0x144>
			byte_ptr = byte_ptr + data_ptr->descr.config.bLength;
 c003168:	e0bffa17 	ldw	r2,-24(fp)
 c00316c:	10800003 	ldbu	r2,0(r2)
 c003170:	10803fcc 	andi	r2,r2,255
 c003174:	e0fffb17 	ldw	r3,-20(fp)
 c003178:	1885883a 	add	r2,r3,r2
 c00317c:	e0bffb15 	stw	r2,-20(fp)
			data_ptr = (USB_DESCR*) byte_ptr;
 c003180:	e0bffb17 	ldw	r2,-20(fp)
 c003184:	e0bffa15 	stw	r2,-24(fp)
 c003188:	0000a506 	br	c003420 <HIDKProbe+0x3d8>
		} // if( data_ptr->descr.config.bDescriptorType != USB_DESCRIPTOR_INTERFACE
		else {
			//printf("starting interface parsing at byte location %d\n",
			//		data_ptr->descr.config.bLength);
			BYTE class = data_ptr->descr.interface.bInterfaceClass;
 c00318c:	e0bffa17 	ldw	r2,-24(fp)
 c003190:	10800143 	ldbu	r2,5(r2)
 c003194:	e0bffc85 	stb	r2,-14(fp)
			BYTE subclass = data_ptr->descr.interface.bInterfaceSubClass;
 c003198:	e0bffa17 	ldw	r2,-24(fp)
 c00319c:	10800183 	ldbu	r2,6(r2)
 c0031a0:	e0bffcc5 	stb	r2,-13(fp)
			BYTE protocol = data_ptr->descr.interface.bInterfaceProtocol;
 c0031a4:	e0bffa17 	ldw	r2,-24(fp)
 c0031a8:	108001c3 	ldbu	r2,7(r2)
 c0031ac:	e0bffd05 	stb	r2,-12(fp)
			//printf("class %x, subclass %x, protocol %x,\n", class, subclass,
			//		protocol);
			//interface descriptor
			if (class == HID_INTF && subclass == BOOT_INTF_SUBCLASS
 c0031b0:	e0bffc83 	ldbu	r2,-14(fp)
 c0031b4:	108000d8 	cmpnei	r2,r2,3
 c0031b8:	1000971e 	bne	r2,zero,c003418 <HIDKProbe+0x3d0>
 c0031bc:	e0bffcc3 	ldbu	r2,-13(fp)
 c0031c0:	10800058 	cmpnei	r2,r2,1
 c0031c4:	1000941e 	bne	r2,zero,c003418 <HIDKProbe+0x3d0>
					&& protocol == HID_PROTOCOL_KEYBOARD) {
 c0031c8:	e0bffd03 	ldbu	r2,-12(fp)
 c0031cc:	10800058 	cmpnei	r2,r2,1
 c0031d0:	1000911e 	bne	r2,zero,c003418 <HIDKProbe+0x3d0>
				//detected a keyboard
				devtable[addr].devclass = HID_K;             //fill device class
 c0031d4:	e0fffe03 	ldbu	r3,-8(fp)
 c0031d8:	008300b4 	movhi	r2,3074
 c0031dc:	1097bc04 	addi	r2,r2,24304
 c0031e0:	180690fa 	slli	r3,r3,3
 c0031e4:	10c5883a 	add	r2,r2,r3
 c0031e8:	10800104 	addi	r2,r2,4
 c0031ec:	00c00044 	movi	r3,1
 c0031f0:	10c00005 	stb	r3,0(r2)
				tmpbyte = devtable[addr].epinfo->MaxPktSize; //save max.packet size
 c0031f4:	e0fffe03 	ldbu	r3,-8(fp)
 c0031f8:	008300b4 	movhi	r2,3074
 c0031fc:	1097bc04 	addi	r2,r2,24304
 c003200:	180690fa 	slli	r3,r3,3
 c003204:	10c5883a 	add	r2,r2,r3
 c003208:	10800017 	ldw	r2,0(r2)
 c00320c:	1080008b 	ldhu	r2,2(r2)
 c003210:	e0bffd45 	stb	r2,-11(fp)
				HID_init();                         //initialize data structures
 c003214:	c0034500 	call	c003450 <HID_init>
				devtable[addr].epinfo = hid_ep; //switch endpoint information structure
 c003218:	e0fffe03 	ldbu	r3,-8(fp)
 c00321c:	008300b4 	movhi	r2,3074
 c003220:	1097bc04 	addi	r2,r2,24304
 c003224:	180690fa 	slli	r3,r3,3
 c003228:	10c7883a 	add	r3,r2,r3
 c00322c:	008300b4 	movhi	r2,3074
 c003230:	10b1e804 	addi	r2,r2,-14432
 c003234:	18800015 	stw	r2,0(r3)
				devtable[addr].epinfo[0].MaxPktSize = tmpbyte; //fill in max.packet size
 c003238:	e0fffe03 	ldbu	r3,-8(fp)
 c00323c:	008300b4 	movhi	r2,3074
 c003240:	1097bc04 	addi	r2,r2,24304
 c003244:	180690fa 	slli	r3,r3,3
 c003248:	10c5883a 	add	r2,r2,r3
 c00324c:	10800017 	ldw	r2,0(r2)
 c003250:	e0fffd43 	ldbu	r3,-11(fp)
 c003254:	10c0008d 	sth	r3,2(r2)
				hid_device.interface =
						data_ptr->descr.interface.bInterfaceNumber; //fill in interface number to be used in HID requests
 c003258:	e0bffa17 	ldw	r2,-24(fp)
 c00325c:	10800083 	ldbu	r2,2(r2)
				devtable[addr].devclass = HID_K;             //fill device class
				tmpbyte = devtable[addr].epinfo->MaxPktSize; //save max.packet size
				HID_init();                         //initialize data structures
				devtable[addr].epinfo = hid_ep; //switch endpoint information structure
				devtable[addr].epinfo[0].MaxPktSize = tmpbyte; //fill in max.packet size
				hid_device.interface =
 c003260:	d0a79f45 	stb	r2,-24963(gp)
						data_ptr->descr.interface.bInterfaceNumber; //fill in interface number to be used in HID requests
				hid_device.addr = addr;                        //fill in address
 c003264:	e0bffe03 	ldbu	r2,-8(fp)
 c003268:	d0a79f05 	stb	r2,-24964(gp)
				byte_ptr = byte_ptr + data_ptr->descr.config.bLength; //skip to the next descriptor
 c00326c:	e0bffa17 	ldw	r2,-24(fp)
 c003270:	10800003 	ldbu	r2,0(r2)
 c003274:	10803fcc 	andi	r2,r2,255
 c003278:	e0fffb17 	ldw	r3,-20(fp)
 c00327c:	1885883a 	add	r2,r3,r2
 c003280:	e0bffb15 	stw	r2,-20(fp)
				data_ptr = (USB_DESCR*) byte_ptr;
 c003284:	e0bffb17 	ldw	r2,-20(fp)
 c003288:	e0bffa15 	stw	r2,-24(fp)
				while (byte_ptr < bigbuf + total_length) {
 c00328c:	00005b06 	br	c0033fc <HIDKProbe+0x3b4>
					if (data_ptr->descr.config.bDescriptorType
 c003290:	e0bffa17 	ldw	r2,-24(fp)
 c003294:	10800043 	ldbu	r2,1(r2)
 c003298:	10803fcc 	andi	r2,r2,255
 c00329c:	10800160 	cmpeqi	r2,r2,5
 c0032a0:	1000091e 	bne	r2,zero,c0032c8 <HIDKProbe+0x280>
							!= USB_DESCRIPTOR_ENDPOINT) { //skip to endpoint descriptor
						byte_ptr = byte_ptr + data_ptr->descr.config.bLength;
 c0032a4:	e0bffa17 	ldw	r2,-24(fp)
 c0032a8:	10800003 	ldbu	r2,0(r2)
 c0032ac:	10803fcc 	andi	r2,r2,255
 c0032b0:	e0fffb17 	ldw	r3,-20(fp)
 c0032b4:	1885883a 	add	r2,r3,r2
 c0032b8:	e0bffb15 	stw	r2,-20(fp)
						data_ptr = (USB_DESCR*) byte_ptr;
 c0032bc:	e0bffb17 	ldw	r2,-20(fp)
 c0032c0:	e0bffa15 	stw	r2,-24(fp)
 c0032c4:	00004d06 	br	c0033fc <HIDKProbe+0x3b4>
					} else {
						/* fill endpoint information structure */
						devtable[addr].epinfo[1].epAddr =
 c0032c8:	e0fffe03 	ldbu	r3,-8(fp)
 c0032cc:	008300b4 	movhi	r2,3074
 c0032d0:	1097bc04 	addi	r2,r2,24304
 c0032d4:	180690fa 	slli	r3,r3,3
 c0032d8:	10c5883a 	add	r2,r2,r3
 c0032dc:	10800017 	ldw	r2,0(r2)
 c0032e0:	10800204 	addi	r2,r2,8
								data_ptr->descr.endpoint.bEndpointAddress;
 c0032e4:	e0fffa17 	ldw	r3,-24(fp)
 c0032e8:	18c00083 	ldbu	r3,2(r3)
							!= USB_DESCRIPTOR_ENDPOINT) { //skip to endpoint descriptor
						byte_ptr = byte_ptr + data_ptr->descr.config.bLength;
						data_ptr = (USB_DESCR*) byte_ptr;
					} else {
						/* fill endpoint information structure */
						devtable[addr].epinfo[1].epAddr =
 c0032ec:	10c00005 	stb	r3,0(r2)
								data_ptr->descr.endpoint.bEndpointAddress;
						devtable[addr].epinfo[1].Attr =
 c0032f0:	e0fffe03 	ldbu	r3,-8(fp)
 c0032f4:	008300b4 	movhi	r2,3074
 c0032f8:	1097bc04 	addi	r2,r2,24304
 c0032fc:	180690fa 	slli	r3,r3,3
 c003300:	10c5883a 	add	r2,r2,r3
 c003304:	10800017 	ldw	r2,0(r2)
 c003308:	10800204 	addi	r2,r2,8
								data_ptr->descr.endpoint.bmAttributes;
 c00330c:	e0fffa17 	ldw	r3,-24(fp)
 c003310:	18c000c3 	ldbu	r3,3(r3)
						data_ptr = (USB_DESCR*) byte_ptr;
					} else {
						/* fill endpoint information structure */
						devtable[addr].epinfo[1].epAddr =
								data_ptr->descr.endpoint.bEndpointAddress;
						devtable[addr].epinfo[1].Attr =
 c003314:	10c00045 	stb	r3,1(r2)
								data_ptr->descr.endpoint.bmAttributes;
						devtable[addr].epinfo[1].MaxPktSize =
 c003318:	e0fffe03 	ldbu	r3,-8(fp)
 c00331c:	008300b4 	movhi	r2,3074
 c003320:	1097bc04 	addi	r2,r2,24304
 c003324:	180690fa 	slli	r3,r3,3
 c003328:	10c5883a 	add	r2,r2,r3
 c00332c:	10800017 	ldw	r2,0(r2)
 c003330:	10800204 	addi	r2,r2,8
								data_ptr->descr.endpoint.wMaxPacketSize;
 c003334:	e0fffa17 	ldw	r3,-24(fp)
 c003338:	18c0010b 	ldhu	r3,4(r3)
						/* fill endpoint information structure */
						devtable[addr].epinfo[1].epAddr =
								data_ptr->descr.endpoint.bEndpointAddress;
						devtable[addr].epinfo[1].Attr =
								data_ptr->descr.endpoint.bmAttributes;
						devtable[addr].epinfo[1].MaxPktSize =
 c00333c:	10c0008d 	sth	r3,2(r2)
								data_ptr->descr.endpoint.wMaxPacketSize;
						devtable[addr].epinfo[1].Interval =
 c003340:	e0fffe03 	ldbu	r3,-8(fp)
 c003344:	008300b4 	movhi	r2,3074
 c003348:	1097bc04 	addi	r2,r2,24304
 c00334c:	180690fa 	slli	r3,r3,3
 c003350:	10c5883a 	add	r2,r2,r3
 c003354:	10800017 	ldw	r2,0(r2)
 c003358:	10800204 	addi	r2,r2,8
								data_ptr->descr.endpoint.bInterval;
 c00335c:	e0fffa17 	ldw	r3,-24(fp)
 c003360:	18c00183 	ldbu	r3,6(r3)
								data_ptr->descr.endpoint.bEndpointAddress;
						devtable[addr].epinfo[1].Attr =
								data_ptr->descr.endpoint.bmAttributes;
						devtable[addr].epinfo[1].MaxPktSize =
								data_ptr->descr.endpoint.wMaxPacketSize;
						devtable[addr].epinfo[1].Interval =
 c003364:	10c00105 	stb	r3,4(r2)
								data_ptr->descr.endpoint.bInterval;
						/* configure device */
						rcode = XferSetConf(addr, 0, confvalue); //set configuration
 c003368:	e0fffe03 	ldbu	r3,-8(fp)
 c00336c:	e0bffc43 	ldbu	r2,-15(fp)
 c003370:	d8000415 	stw	zero,16(sp)
 c003374:	d8000315 	stw	zero,12(sp)
 c003378:	d8000215 	stw	zero,8(sp)
 c00337c:	d8000115 	stw	zero,4(sp)
 c003380:	d8800015 	stw	r2,0(sp)
 c003384:	01c00244 	movi	r7,9
 c003388:	000d883a 	mov	r6,zero
 c00338c:	000b883a 	mov	r5,zero
 c003390:	1809883a 	mov	r4,r3
 c003394:	c003e1c0 	call	c003e1c <XferCtrlReq>
 c003398:	e0bffc05 	stb	r2,-16(fp)
						if (rcode) {   //error handling
 c00339c:	e0bffc03 	ldbu	r2,-16(fp)
 c0033a0:	10000226 	beq	r2,zero,c0033ac <HIDKProbe+0x364>
							return (FALSE);
 c0033a4:	0005883a 	mov	r2,zero
 c0033a8:	00002406 	br	c00343c <HIDKProbe+0x3f4>
						}
						rcode = XferSetProto(addr, 0, hid_device.interface,
 c0033ac:	e0fffe03 	ldbu	r3,-8(fp)
 c0033b0:	d0a79f43 	ldbu	r2,-24963(gp)
 c0033b4:	10803fcc 	andi	r2,r2,255
 c0033b8:	d8000415 	stw	zero,16(sp)
 c0033bc:	d8000315 	stw	zero,12(sp)
 c0033c0:	d8800215 	stw	r2,8(sp)
 c0033c4:	d8000115 	stw	zero,4(sp)
 c0033c8:	d8000015 	stw	zero,0(sp)
 c0033cc:	01c002c4 	movi	r7,11
 c0033d0:	01800844 	movi	r6,33
 c0033d4:	000b883a 	mov	r5,zero
 c0033d8:	1809883a 	mov	r4,r3
 c0033dc:	c003e1c0 	call	c003e1c <XferCtrlReq>
 c0033e0:	e0bffc05 	stb	r2,-16(fp)
								BOOT_PROTOCOL);
						if (rcode) {   //error handling
 c0033e4:	e0bffc03 	ldbu	r2,-16(fp)
 c0033e8:	10000226 	beq	r2,zero,c0033f4 <HIDKProbe+0x3ac>
							return (FALSE);
 c0033ec:	0005883a 	mov	r2,zero
 c0033f0:	00001206 	br	c00343c <HIDKProbe+0x3f4>
						} else {
							return (TRUE);
 c0033f4:	00800044 	movi	r2,1
 c0033f8:	00001006 	br	c00343c <HIDKProbe+0x3f4>
				hid_device.interface =
						data_ptr->descr.interface.bInterfaceNumber; //fill in interface number to be used in HID requests
				hid_device.addr = addr;                        //fill in address
				byte_ptr = byte_ptr + data_ptr->descr.config.bLength; //skip to the next descriptor
				data_ptr = (USB_DESCR*) byte_ptr;
				while (byte_ptr < bigbuf + total_length) {
 c0033fc:	e0fff90b 	ldhu	r3,-28(fp)
 c003400:	008300b4 	movhi	r2,3074
 c003404:	10977c04 	addi	r2,r2,24048
 c003408:	1885883a 	add	r2,r3,r2
 c00340c:	e0fffb17 	ldw	r3,-20(fp)
 c003410:	18bf9f36 	bltu	r3,r2,c003290 <__alt_data_end+0xfc003290>
			BYTE subclass = data_ptr->descr.interface.bInterfaceSubClass;
			BYTE protocol = data_ptr->descr.interface.bInterfaceProtocol;
			//printf("class %x, subclass %x, protocol %x,\n", class, subclass,
			//		protocol);
			//interface descriptor
			if (class == HID_INTF && subclass == BOOT_INTF_SUBCLASS
 c003414:	00000206 	br	c003420 <HIDKProbe+0x3d8>
						}
					}
				}   //while( byte_ptr....
			}   //if (Class matches
			else { //if class don't match; stop processing after first interface. Not really correct
				return (FALSE);
 c003418:	0005883a 	mov	r2,zero
 c00341c:	00000706 	br	c00343c <HIDKProbe+0x3f4>
	rcode = XferGetConfDescr(addr, 0, total_length, 0, bigbuf); //get the whole configuration
	if (rcode) {   //error handling
		return (FALSE);
	}
	confvalue = data_ptr->descr.config.bConfigurationValue; //save configuration value to use later
	while (byte_ptr < bigbuf + total_length) {             //parse configuration
 c003420:	e0fff90b 	ldhu	r3,-28(fp)
 c003424:	008300b4 	movhi	r2,3074
 c003428:	10977c04 	addi	r2,r2,24048
 c00342c:	1885883a 	add	r2,r3,r2
 c003430:	e0fffb17 	ldw	r3,-20(fp)
 c003434:	18bf4736 	bltu	r3,r2,c003154 <__alt_data_end+0xfc003154>
			else { //if class don't match; stop processing after first interface. Not really correct
				return (FALSE);
			}
		} //else if( data_ptr->
	} // while( byte_ptr < &buf + total_length
	return (FALSE);
 c003438:	0005883a 	mov	r2,zero
}
 c00343c:	e037883a 	mov	sp,fp
 c003440:	dfc00117 	ldw	ra,4(sp)
 c003444:	df000017 	ldw	fp,0(sp)
 c003448:	dec00204 	addi	sp,sp,8
 c00344c:	f800283a 	ret

0c003450 <HID_init>:
/* HID data structures initialization */
void HID_init(void) {
 c003450:	deffff04 	addi	sp,sp,-4
 c003454:	df000015 	stw	fp,0(sp)
 c003458:	d839883a 	mov	fp,sp
	hid_ep[1].sndToggle = bmSNDTOG0;
 c00345c:	008300b4 	movhi	r2,3074
 c003460:	10b1e804 	addi	r2,r2,-14432
 c003464:	00c01004 	movi	r3,64
 c003468:	10c00345 	stb	r3,13(r2)
	hid_ep[1].rcvToggle = bmRCVTOG0;
 c00346c:	008300b4 	movhi	r2,3074
 c003470:	10b1e804 	addi	r2,r2,-14432
 c003474:	00c00404 	movi	r3,16
 c003478:	10c00385 	stb	r3,14(r2)
}
 c00347c:	0001883a 	nop
 c003480:	e037883a 	mov	sp,fp
 c003484:	df000017 	ldw	fp,0(sp)
 c003488:	dec00104 	addi	sp,sp,4
 c00348c:	f800283a 	ret

0c003490 <mousePoll>:
/* poll boot mouse */
BYTE mousePoll(BOOT_MOUSE_REPORT* buf) {
 c003490:	defffb04 	addi	sp,sp,-20
 c003494:	dfc00415 	stw	ra,16(sp)
 c003498:	df000315 	stw	fp,12(sp)
 c00349c:	df000304 	addi	fp,sp,12
 c0034a0:	e13fff15 	stw	r4,-4(fp)
	BYTE rcode;
	MAXreg_wr( rPERADDR, hid_device.addr);    //set peripheral address
 c0034a4:	d0a79f03 	ldbu	r2,-24964(gp)
 c0034a8:	10803fcc 	andi	r2,r2,255
 c0034ac:	100b883a 	mov	r5,r2
 c0034b0:	01003804 	movi	r4,224
 c0034b4:	c00366c0 	call	c00366c <MAXreg_wr>
	rcode = XferInTransfer(hid_device.addr, 1, 8, (BYTE*) buf,
 c0034b8:	d0a79f03 	ldbu	r2,-24964(gp)
 c0034bc:	11003fcc 	andi	r4,r2,255
			devtable[hid_device.addr].epinfo[1].MaxPktSize);
 c0034c0:	d0a79f03 	ldbu	r2,-24964(gp)
 c0034c4:	10c03fcc 	andi	r3,r2,255
 c0034c8:	008300b4 	movhi	r2,3074
 c0034cc:	1097bc04 	addi	r2,r2,24304
 c0034d0:	180690fa 	slli	r3,r3,3
 c0034d4:	10c5883a 	add	r2,r2,r3
 c0034d8:	10800017 	ldw	r2,0(r2)
 c0034dc:	10800204 	addi	r2,r2,8
 c0034e0:	1080008b 	ldhu	r2,2(r2)
}
/* poll boot mouse */
BYTE mousePoll(BOOT_MOUSE_REPORT* buf) {
	BYTE rcode;
	MAXreg_wr( rPERADDR, hid_device.addr);    //set peripheral address
	rcode = XferInTransfer(hid_device.addr, 1, 8, (BYTE*) buf,
 c0034e4:	10803fcc 	andi	r2,r2,255
 c0034e8:	d8800015 	stw	r2,0(sp)
 c0034ec:	e1ffff17 	ldw	r7,-4(fp)
 c0034f0:	01800204 	movi	r6,8
 c0034f4:	01400044 	movi	r5,1
 c0034f8:	c0042400 	call	c004240 <XferInTransfer>
 c0034fc:	e0bffe05 	stb	r2,-8(fp)
			devtable[hid_device.addr].epinfo[1].MaxPktSize);
	return (rcode);
 c003500:	e0bffe03 	ldbu	r2,-8(fp)
}
 c003504:	e037883a 	mov	sp,fp
 c003508:	dfc00117 	ldw	ra,4(sp)
 c00350c:	df000017 	ldw	fp,0(sp)
 c003510:	dec00204 	addi	sp,sp,8
 c003514:	f800283a 	ret

0c003518 <kbdPoll>:
/* poll boot keyboard */
BYTE kbdPoll(BOOT_KBD_REPORT* buf) {
 c003518:	defffb04 	addi	sp,sp,-20
 c00351c:	dfc00415 	stw	ra,16(sp)
 c003520:	df000315 	stw	fp,12(sp)
 c003524:	df000304 	addi	fp,sp,12
 c003528:	e13fff15 	stw	r4,-4(fp)
	BYTE rcode;
	MAXreg_wr( rPERADDR, hid_device.addr);    //set peripheral address
 c00352c:	d0a79f03 	ldbu	r2,-24964(gp)
 c003530:	10803fcc 	andi	r2,r2,255
 c003534:	100b883a 	mov	r5,r2
 c003538:	01003804 	movi	r4,224
 c00353c:	c00366c0 	call	c00366c <MAXreg_wr>
	rcode = XferInTransfer(hid_device.addr, 1, 8, (BYTE*) buf,
 c003540:	d0a79f03 	ldbu	r2,-24964(gp)
 c003544:	11003fcc 	andi	r4,r2,255
			devtable[hid_device.addr].epinfo[1].MaxPktSize);
 c003548:	d0a79f03 	ldbu	r2,-24964(gp)
 c00354c:	10c03fcc 	andi	r3,r2,255
 c003550:	008300b4 	movhi	r2,3074
 c003554:	1097bc04 	addi	r2,r2,24304
 c003558:	180690fa 	slli	r3,r3,3
 c00355c:	10c5883a 	add	r2,r2,r3
 c003560:	10800017 	ldw	r2,0(r2)
 c003564:	10800204 	addi	r2,r2,8
 c003568:	1080008b 	ldhu	r2,2(r2)
}
/* poll boot keyboard */
BYTE kbdPoll(BOOT_KBD_REPORT* buf) {
	BYTE rcode;
	MAXreg_wr( rPERADDR, hid_device.addr);    //set peripheral address
	rcode = XferInTransfer(hid_device.addr, 1, 8, (BYTE*) buf,
 c00356c:	10803fcc 	andi	r2,r2,255
 c003570:	d8800015 	stw	r2,0(sp)
 c003574:	e1ffff17 	ldw	r7,-4(fp)
 c003578:	01800204 	movi	r6,8
 c00357c:	01400044 	movi	r5,1
 c003580:	c0042400 	call	c004240 <XferInTransfer>
 c003584:	e0bffe05 	stb	r2,-8(fp)
			devtable[hid_device.addr].epinfo[1].MaxPktSize);
	return (rcode);
 c003588:	e0bffe03 	ldbu	r2,-8(fp)
}
 c00358c:	e037883a 	mov	sp,fp
 c003590:	dfc00117 	ldw	ra,4(sp)
 c003594:	df000017 	ldw	fp,0(sp)
 c003598:	dec00204 	addi	sp,sp,8
 c00359c:	f800283a 	ret

0c0035a0 <HIDMEventHandler>:
BOOL HIDMEventHandler(BYTE address, BYTE event, void *data, DWORD size) {
 c0035a0:	defffb04 	addi	sp,sp,-20
 c0035a4:	df000415 	stw	fp,16(sp)
 c0035a8:	df000404 	addi	fp,sp,16
 c0035ac:	2007883a 	mov	r3,r4
 c0035b0:	2805883a 	mov	r2,r5
 c0035b4:	e1bffe15 	stw	r6,-8(fp)
 c0035b8:	e1ffff15 	stw	r7,-4(fp)
 c0035bc:	e0fffc05 	stb	r3,-16(fp)
 c0035c0:	e0bffd05 	stb	r2,-12(fp)
	return (FALSE);
 c0035c4:	0005883a 	mov	r2,zero
}
 c0035c8:	e037883a 	mov	sp,fp
 c0035cc:	df000017 	ldw	fp,0(sp)
 c0035d0:	dec00104 	addi	sp,sp,4
 c0035d4:	f800283a 	ret

0c0035d8 <HIDKEventHandler>:
BOOL HIDKEventHandler(BYTE address, BYTE event, void *data, DWORD size) {
 c0035d8:	defffb04 	addi	sp,sp,-20
 c0035dc:	df000415 	stw	fp,16(sp)
 c0035e0:	df000404 	addi	fp,sp,16
 c0035e4:	2007883a 	mov	r3,r4
 c0035e8:	2805883a 	mov	r2,r5
 c0035ec:	e1bffe15 	stw	r6,-8(fp)
 c0035f0:	e1ffff15 	stw	r7,-4(fp)
 c0035f4:	e0fffc05 	stb	r3,-16(fp)
 c0035f8:	e0bffd05 	stb	r2,-12(fp)
	return (FALSE);
 c0035fc:	0005883a 	mov	r2,zero
}
 c003600:	e037883a 	mov	sp,fp
 c003604:	df000017 	ldw	fp,0(sp)
 c003608:	dec00104 	addi	sp,sp,4
 c00360c:	f800283a 	ret

0c003610 <SPI_init>:
//variables and data structures
//External variables
extern BYTE usb_task_state;

/* Functions    */
void SPI_init(BYTE sync_mode, BYTE bus_mode, BYTE smp_phase) {
 c003610:	defffc04 	addi	sp,sp,-16
 c003614:	df000315 	stw	fp,12(sp)
 c003618:	df000304 	addi	fp,sp,12
 c00361c:	2807883a 	mov	r3,r5
 c003620:	3005883a 	mov	r2,r6
 c003624:	e13ffd05 	stb	r4,-12(fp)
 c003628:	e0fffe05 	stb	r3,-8(fp)
 c00362c:	e0bfff05 	stb	r2,-4(fp)
	//Don't need to initialize SPI port, already ready to go with BSP
}
 c003630:	0001883a 	nop
 c003634:	e037883a 	mov	sp,fp
 c003638:	df000017 	ldw	fp,0(sp)
 c00363c:	dec00104 	addi	sp,sp,4
 c003640:	f800283a 	ret

0c003644 <SPI_wr>:

//writes single byte to MAX3421E via SPI, simultanously reads status register and returns it
BYTE SPI_wr(BYTE data) {
 c003644:	defffe04 	addi	sp,sp,-8
 c003648:	df000115 	stw	fp,4(sp)
 c00364c:	df000104 	addi	fp,sp,4
 c003650:	2005883a 	mov	r2,r4
 c003654:	e0bfff05 	stb	r2,-4(fp)
	//This function is never used by the code, so you do not need to fill it in
}
 c003658:	0001883a 	nop
 c00365c:	e037883a 	mov	sp,fp
 c003660:	df000017 	ldw	fp,0(sp)
 c003664:	dec00104 	addi	sp,sp,4
 c003668:	f800283a 	ret

0c00366c <MAXreg_wr>:
//writes register to MAX3421E via SPI
void MAXreg_wr(BYTE reg, BYTE val) {
 c00366c:	defff704 	addi	sp,sp,-36
 c003670:	dfc00815 	stw	ra,32(sp)
 c003674:	df000715 	stw	fp,28(sp)
 c003678:	df000704 	addi	fp,sp,28
 c00367c:	2007883a 	mov	r3,r4
 c003680:	2805883a 	mov	r2,r5
 c003684:	e0fffe05 	stb	r3,-8(fp)
 c003688:	e0bfff05 	stb	r2,-4(fp)
	//write val via SPI
	//read return code from SPI peripheral (see Intel documentation) 
	//if return code < 0 print an error
	//deselect MAX3421E (may not be necessary if you are using SPI peripheral)
	BYTE array[2];
	array[0]=(reg+2);
 c00368c:	e0bffe03 	ldbu	r2,-8(fp)
 c003690:	10800084 	addi	r2,r2,2
 c003694:	e0bffd05 	stb	r2,-12(fp)
	array[1]=val;
 c003698:	e0bfff03 	ldbu	r2,-4(fp)
 c00369c:	e0bffd45 	stb	r2,-11(fp)
	int retura=alt_avalon_spi_command(0xc0,0,2,array,0,0,0);
 c0036a0:	e0bffd04 	addi	r2,fp,-12
 c0036a4:	d8000215 	stw	zero,8(sp)
 c0036a8:	d8000115 	stw	zero,4(sp)
 c0036ac:	d8000015 	stw	zero,0(sp)
 c0036b0:	100f883a 	mov	r7,r2
 c0036b4:	01800084 	movi	r6,2
 c0036b8:	000b883a 	mov	r5,zero
 c0036bc:	01003004 	movi	r4,192
 c0036c0:	c016f740 	call	c016f74 <alt_avalon_spi_command>
 c0036c4:	e0bffc15 	stw	r2,-16(fp)
			if (retura<0){alt_printf("errpr\n");}
 c0036c8:	e0bffc17 	ldw	r2,-16(fp)
 c0036cc:	1000030e 	bge	r2,zero,c0036dc <MAXreg_wr+0x70>
 c0036d0:	010300b4 	movhi	r4,3074
 c0036d4:	2121cd04 	addi	r4,r4,-30924
 c0036d8:	c015c500 	call	c015c50 <alt_printf>


}
 c0036dc:	0001883a 	nop
 c0036e0:	e037883a 	mov	sp,fp
 c0036e4:	dfc00117 	ldw	ra,4(sp)
 c0036e8:	df000017 	ldw	fp,0(sp)
 c0036ec:	dec00204 	addi	sp,sp,8
 c0036f0:	f800283a 	ret

0c0036f4 <MAXbytes_wr>:
//multiple-byte write
//returns a pointer to a memory position after last written
BYTE* MAXbytes_wr(BYTE reg, BYTE nbytes, BYTE* data) {
 c0036f4:	defff304 	addi	sp,sp,-52
 c0036f8:	dfc00c15 	stw	ra,48(sp)
 c0036fc:	df000b15 	stw	fp,44(sp)
 c003700:	dc000a15 	stw	r16,40(sp)
 c003704:	df000b04 	addi	fp,sp,44
 c003708:	201b883a 	mov	r13,r4
 c00370c:	2809883a 	mov	r4,r5
 c003710:	e1bffe15 	stw	r6,-8(fp)
 c003714:	e37ffc05 	stb	r13,-16(fp)
 c003718:	e13ffd05 	stb	r4,-12(fp)
 c00371c:	d809883a 	mov	r4,sp
 c003720:	2021883a 	mov	r16,r4
	//write data[n] via SPI, where n goes from 0 to nbytes-1
	//read return code from SPI peripheral (see Intel documentation) 
	//if return code < 0  print an error
	//deselect MAX3421E (may not be necessary if you are using SPI peripheral)
	//return (data + nbytes);
	BYTE array[nbytes+1];
 c003724:	e13ffd03 	ldbu	r4,-12(fp)
 c003728:	21000044 	addi	r4,r4,1
 c00372c:	217fffc4 	addi	r5,r4,-1
 c003730:	e17ff915 	stw	r5,-28(fp)
 c003734:	200b883a 	mov	r5,r4
 c003738:	2817883a 	mov	r11,r5
 c00373c:	0019883a 	mov	r12,zero
 c003740:	580ad77a 	srli	r5,r11,29
 c003744:	601090fa 	slli	r8,r12,3
 c003748:	2a10b03a 	or	r8,r5,r8
 c00374c:	580e90fa 	slli	r7,r11,3
 c003750:	200b883a 	mov	r5,r4
 c003754:	2813883a 	mov	r9,r5
 c003758:	0015883a 	mov	r10,zero
 c00375c:	480ad77a 	srli	r5,r9,29
 c003760:	500690fa 	slli	r3,r10,3
 c003764:	28c6b03a 	or	r3,r5,r3
 c003768:	480490fa 	slli	r2,r9,3
 c00376c:	2005883a 	mov	r2,r4
 c003770:	108000c4 	addi	r2,r2,3
 c003774:	1004d0ba 	srli	r2,r2,2
 c003778:	1085883a 	add	r2,r2,r2
 c00377c:	1085883a 	add	r2,r2,r2
 c003780:	d8b7c83a 	sub	sp,sp,r2
 c003784:	d8800304 	addi	r2,sp,12
 c003788:	1005883a 	mov	r2,r2
 c00378c:	e0bffa15 	stw	r2,-24(fp)
	array[0]=reg+2;
 c003790:	e0bffc03 	ldbu	r2,-16(fp)
 c003794:	10800084 	addi	r2,r2,2
 c003798:	1007883a 	mov	r3,r2
 c00379c:	e0bffa17 	ldw	r2,-24(fp)
 c0037a0:	10c00005 	stb	r3,0(r2)
	for (int i=1;i<=nbytes;i++){
 c0037a4:	00800044 	movi	r2,1
 c0037a8:	e0bff815 	stw	r2,-32(fp)
 c0037ac:	00000c06 	br	c0037e0 <MAXbytes_wr+0xec>
		array[i]=data[i-1];
 c0037b0:	e0bff817 	ldw	r2,-32(fp)
 c0037b4:	10bfffc4 	addi	r2,r2,-1
 c0037b8:	e0fffe17 	ldw	r3,-8(fp)
 c0037bc:	1885883a 	add	r2,r3,r2
 c0037c0:	10c00003 	ldbu	r3,0(r2)
 c0037c4:	e13ffa17 	ldw	r4,-24(fp)
 c0037c8:	e0bff817 	ldw	r2,-32(fp)
 c0037cc:	2085883a 	add	r2,r4,r2
 c0037d0:	10c00005 	stb	r3,0(r2)
	//if return code < 0  print an error
	//deselect MAX3421E (may not be necessary if you are using SPI peripheral)
	//return (data + nbytes);
	BYTE array[nbytes+1];
	array[0]=reg+2;
	for (int i=1;i<=nbytes;i++){
 c0037d4:	e0bff817 	ldw	r2,-32(fp)
 c0037d8:	10800044 	addi	r2,r2,1
 c0037dc:	e0bff815 	stw	r2,-32(fp)
 c0037e0:	e0fffd03 	ldbu	r3,-12(fp)
 c0037e4:	e0bff817 	ldw	r2,-32(fp)
 c0037e8:	18bff10e 	bge	r3,r2,c0037b0 <__alt_data_end+0xfc0037b0>
		array[i]=data[i-1];
	}
	int retura=alt_avalon_spi_command(0xc0,0,nbytes+1,array,0,0,0);
 c0037ec:	e0bffd03 	ldbu	r2,-12(fp)
 c0037f0:	10800044 	addi	r2,r2,1
 c0037f4:	1007883a 	mov	r3,r2
 c0037f8:	e0bffa17 	ldw	r2,-24(fp)
 c0037fc:	d8000215 	stw	zero,8(sp)
 c003800:	d8000115 	stw	zero,4(sp)
 c003804:	d8000015 	stw	zero,0(sp)
 c003808:	100f883a 	mov	r7,r2
 c00380c:	180d883a 	mov	r6,r3
 c003810:	000b883a 	mov	r5,zero
 c003814:	01003004 	movi	r4,192
 c003818:	c016f740 	call	c016f74 <alt_avalon_spi_command>
 c00381c:	e0bffb15 	stw	r2,-20(fp)
				if (retura<0){alt_printf("errpr\n");}
 c003820:	e0bffb17 	ldw	r2,-20(fp)
 c003824:	1000030e 	bge	r2,zero,c003834 <MAXbytes_wr+0x140>
 c003828:	010300b4 	movhi	r4,3074
 c00382c:	2121cd04 	addi	r4,r4,-30924
 c003830:	c015c500 	call	c015c50 <alt_printf>
				return (data+nbytes);
 c003834:	e0bffd03 	ldbu	r2,-12(fp)
 c003838:	e0fffe17 	ldw	r3,-8(fp)
 c00383c:	1885883a 	add	r2,r3,r2
 c003840:	8037883a 	mov	sp,r16
}
 c003844:	e6ffff04 	addi	sp,fp,-4
 c003848:	dfc00217 	ldw	ra,8(sp)
 c00384c:	df000117 	ldw	fp,4(sp)
 c003850:	dc000017 	ldw	r16,0(sp)
 c003854:	dec00304 	addi	sp,sp,12
 c003858:	f800283a 	ret

0c00385c <MAXreg_rd>:

//reads register from MAX3421E via SPI
BYTE MAXreg_rd(BYTE reg) {
 c00385c:	defff804 	addi	sp,sp,-32
 c003860:	dfc00715 	stw	ra,28(sp)
 c003864:	df000615 	stw	fp,24(sp)
 c003868:	df000604 	addi	fp,sp,24
 c00386c:	2005883a 	mov	r2,r4
 c003870:	e0bfff05 	stb	r2,-4(fp)
	//read return code from SPI peripheral (see Intel documentation)
	//if return code < 0 print an error
	//deselect MAX3421E (may not be necessary if you are using SPI peripheral)
	//return val
BYTE val;
	int retura=alt_avalon_spi_command(0xc0,0,1,&reg,1,&val,0);
 c003874:	e0ffff04 	addi	r3,fp,-4
 c003878:	d8000215 	stw	zero,8(sp)
 c00387c:	e0bffe04 	addi	r2,fp,-8
 c003880:	d8800115 	stw	r2,4(sp)
 c003884:	00800044 	movi	r2,1
 c003888:	d8800015 	stw	r2,0(sp)
 c00388c:	180f883a 	mov	r7,r3
 c003890:	01800044 	movi	r6,1
 c003894:	000b883a 	mov	r5,zero
 c003898:	01003004 	movi	r4,192
 c00389c:	c016f740 	call	c016f74 <alt_avalon_spi_command>
 c0038a0:	e0bffd15 	stw	r2,-12(fp)
	if (retura<0){alt_printf("errpr\n");}
 c0038a4:	e0bffd17 	ldw	r2,-12(fp)
 c0038a8:	1000030e 	bge	r2,zero,c0038b8 <MAXreg_rd+0x5c>
 c0038ac:	010300b4 	movhi	r4,3074
 c0038b0:	2121cd04 	addi	r4,r4,-30924
 c0038b4:	c015c500 	call	c015c50 <alt_printf>
	return val;
 c0038b8:	e0bffe03 	ldbu	r2,-8(fp)

}
 c0038bc:	e037883a 	mov	sp,fp
 c0038c0:	dfc00117 	ldw	ra,4(sp)
 c0038c4:	df000017 	ldw	fp,0(sp)
 c0038c8:	dec00204 	addi	sp,sp,8
 c0038cc:	f800283a 	ret

0c0038d0 <MAXbytes_rd>:
//multiple-byte write
//returns a pointer to a memory position after last written
BYTE* MAXbytes_rd(BYTE reg, BYTE nbytes, BYTE* data) {
 c0038d0:	defff404 	addi	sp,sp,-48
 c0038d4:	dfc00b15 	stw	ra,44(sp)
 c0038d8:	df000a15 	stw	fp,40(sp)
 c0038dc:	dc000915 	stw	r16,36(sp)
 c0038e0:	df000a04 	addi	fp,sp,40
 c0038e4:	201b883a 	mov	r13,r4
 c0038e8:	2809883a 	mov	r4,r5
 c0038ec:	e1bffe15 	stw	r6,-8(fp)
 c0038f0:	e37ffc05 	stb	r13,-16(fp)
 c0038f4:	e13ffd05 	stb	r4,-12(fp)
 c0038f8:	d809883a 	mov	r4,sp
 c0038fc:	2021883a 	mov	r16,r4
	//read data[n] from SPI, where n goes from 0 to nbytes-1
	//read return code from SPI peripheral (see Intel documentation)
	//if return code < 0 print an error
	//deselect MAX3421E (may not be necessary if you are using SPI peripheral)
	//return (data + nbytes);
	BYTE array[nbytes];
 c003900:	e13ffd03 	ldbu	r4,-12(fp)
 c003904:	21403fcc 	andi	r5,r4,255
 c003908:	297fffc4 	addi	r5,r5,-1
 c00390c:	e17ff915 	stw	r5,-28(fp)
 c003910:	21403fcc 	andi	r5,r4,255
 c003914:	2817883a 	mov	r11,r5
 c003918:	0019883a 	mov	r12,zero
 c00391c:	580ad77a 	srli	r5,r11,29
 c003920:	601090fa 	slli	r8,r12,3
 c003924:	2a10b03a 	or	r8,r5,r8
 c003928:	580e90fa 	slli	r7,r11,3
 c00392c:	21403fcc 	andi	r5,r4,255
 c003930:	2813883a 	mov	r9,r5
 c003934:	0015883a 	mov	r10,zero
 c003938:	480ad77a 	srli	r5,r9,29
 c00393c:	500690fa 	slli	r3,r10,3
 c003940:	28c6b03a 	or	r3,r5,r3
 c003944:	480490fa 	slli	r2,r9,3
 c003948:	20803fcc 	andi	r2,r4,255
 c00394c:	108000c4 	addi	r2,r2,3
 c003950:	1004d0ba 	srli	r2,r2,2
 c003954:	1085883a 	add	r2,r2,r2
 c003958:	1085883a 	add	r2,r2,r2
 c00395c:	d8b7c83a 	sub	sp,sp,r2
 c003960:	d8800304 	addi	r2,sp,12
 c003964:	1005883a 	mov	r2,r2
 c003968:	e0bffa15 	stw	r2,-24(fp)


		int retura=alt_avalon_spi_command(0xc0,0,1,&reg,nbytes,data,0);
 c00396c:	e0bffd03 	ldbu	r2,-12(fp)
 c003970:	e13ffc04 	addi	r4,fp,-16
 c003974:	d8000215 	stw	zero,8(sp)
 c003978:	e0fffe17 	ldw	r3,-8(fp)
 c00397c:	d8c00115 	stw	r3,4(sp)
 c003980:	d8800015 	stw	r2,0(sp)
 c003984:	200f883a 	mov	r7,r4
 c003988:	01800044 	movi	r6,1
 c00398c:	000b883a 	mov	r5,zero
 c003990:	01003004 	movi	r4,192
 c003994:	c016f740 	call	c016f74 <alt_avalon_spi_command>
 c003998:	e0bffb15 	stw	r2,-20(fp)
					if (retura<0){alt_printf("errpr\n");}
 c00399c:	e0bffb17 	ldw	r2,-20(fp)
 c0039a0:	1000030e 	bge	r2,zero,c0039b0 <MAXbytes_rd+0xe0>
 c0039a4:	010300b4 	movhi	r4,3074
 c0039a8:	2121cd04 	addi	r4,r4,-30924
 c0039ac:	c015c500 	call	c015c50 <alt_printf>
					return (data+nbytes);
 c0039b0:	e0bffd03 	ldbu	r2,-12(fp)
 c0039b4:	e0fffe17 	ldw	r3,-8(fp)
 c0039b8:	1885883a 	add	r2,r3,r2
 c0039bc:	8037883a 	mov	sp,r16
	}
 c0039c0:	e6ffff04 	addi	sp,fp,-4
 c0039c4:	dfc00217 	ldw	ra,8(sp)
 c0039c8:	df000117 	ldw	fp,4(sp)
 c0039cc:	dc000017 	ldw	r16,0(sp)
 c0039d0:	dec00304 	addi	sp,sp,12
 c0039d4:	f800283a 	ret

0c0039d8 <MAX3421E_reset>:

/* reset MAX3421E using chip reset bit. SPI configuration is not affected   */
void MAX3421E_reset(void) {
 c0039d8:	defffd04 	addi	sp,sp,-12
 c0039dc:	dfc00215 	stw	ra,8(sp)
 c0039e0:	df000115 	stw	fp,4(sp)
 c0039e4:	df000104 	addi	fp,sp,4
	//hardware reset, then software reset
	IOWR_ALTERA_AVALON_PIO_DATA(USB_RST_BASE, 0);
 c0039e8:	0007883a 	mov	r3,zero
 c0039ec:	00805804 	movi	r2,352
 c0039f0:	10c00035 	stwio	r3,0(r2)
	usleep(1000000);
 c0039f4:	010003f4 	movhi	r4,15
 c0039f8:	21109004 	addi	r4,r4,16960
 c0039fc:	c0162d00 	call	c0162d0 <usleep>
	IOWR_ALTERA_AVALON_PIO_DATA(USB_RST_BASE, 1);
 c003a00:	00c00044 	movi	r3,1
 c003a04:	00805804 	movi	r2,352
 c003a08:	10c00035 	stwio	r3,0(r2)
	BYTE tmp = 0;
 c003a0c:	e03fff05 	stb	zero,-4(fp)
	MAXreg_wr( rUSBCTL, bmCHIPRES);      //Chip reset. This stops the oscillator
 c003a10:	01400804 	movi	r5,32
 c003a14:	01001e04 	movi	r4,120
 c003a18:	c00366c0 	call	c00366c <MAXreg_wr>
	MAXreg_wr( rUSBCTL, 0x00);                          //Remove the reset
 c003a1c:	000b883a 	mov	r5,zero
 c003a20:	01001e04 	movi	r4,120
 c003a24:	c00366c0 	call	c00366c <MAXreg_wr>
	while (!(MAXreg_rd( rUSBIRQ) & bmOSCOKIRQ)) { //wait until the PLL stabilizes
 c003a28:	00000806 	br	c003a4c <MAX3421E_reset+0x74>
		tmp++;                                      //timeout after 256 attempts
 c003a2c:	e0bfff03 	ldbu	r2,-4(fp)
 c003a30:	10800044 	addi	r2,r2,1
 c003a34:	e0bfff05 	stb	r2,-4(fp)
		if (tmp == 0) {
 c003a38:	e0bfff03 	ldbu	r2,-4(fp)
 c003a3c:	1000031e 	bne	r2,zero,c003a4c <MAX3421E_reset+0x74>
			printf("reset timeout!");
 c003a40:	010300b4 	movhi	r4,3074
 c003a44:	2121cf04 	addi	r4,r4,-30916
 c003a48:	c004ec00 	call	c004ec0 <printf>
	usleep(1000000);
	IOWR_ALTERA_AVALON_PIO_DATA(USB_RST_BASE, 1);
	BYTE tmp = 0;
	MAXreg_wr( rUSBCTL, bmCHIPRES);      //Chip reset. This stops the oscillator
	MAXreg_wr( rUSBCTL, 0x00);                          //Remove the reset
	while (!(MAXreg_rd( rUSBIRQ) & bmOSCOKIRQ)) { //wait until the PLL stabilizes
 c003a4c:	01001a04 	movi	r4,104
 c003a50:	c00385c0 	call	c00385c <MAXreg_rd>
 c003a54:	10803fcc 	andi	r2,r2,255
 c003a58:	1080004c 	andi	r2,r2,1
 c003a5c:	103ff326 	beq	r2,zero,c003a2c <__alt_data_end+0xfc003a2c>
		tmp++;                                      //timeout after 256 attempts
		if (tmp == 0) {
			printf("reset timeout!");
		}
	}
}
 c003a60:	0001883a 	nop
 c003a64:	e037883a 	mov	sp,fp
 c003a68:	dfc00117 	ldw	ra,4(sp)
 c003a6c:	df000017 	ldw	fp,0(sp)
 c003a70:	dec00204 	addi	sp,sp,8
 c003a74:	f800283a 	ret

0c003a78 <Vbus_power>:
/* turn USB power on/off                                                */
/* ON pin of VBUS switch (MAX4793 or similar) is connected to GPOUT7    */
/* OVERLOAD pin of Vbus switch is connected to GPIN7                    */
/* OVERLOAD state low. NO OVERLOAD or VBUS OFF state high.              */
BOOL Vbus_power(BOOL action) {
 c003a78:	defffe04 	addi	sp,sp,-8
 c003a7c:	df000115 	stw	fp,4(sp)
 c003a80:	df000104 	addi	fp,sp,4
 c003a84:	e13fff15 	stw	r4,-4(fp)
	// power on/off successful
	return (1);
 c003a88:	00800044 	movi	r2,1
}
 c003a8c:	e037883a 	mov	sp,fp
 c003a90:	df000017 	ldw	fp,0(sp)
 c003a94:	dec00104 	addi	sp,sp,4
 c003a98:	f800283a 	ret

0c003a9c <MAX_busprobe>:

/* probe bus to determine device presense and speed */
void MAX_busprobe(void) {
 c003a9c:	defffd04 	addi	sp,sp,-12
 c003aa0:	dfc00215 	stw	ra,8(sp)
 c003aa4:	df000115 	stw	fp,4(sp)
 c003aa8:	df000104 	addi	fp,sp,4
	BYTE bus_sample;

//  MAXreg_wr(rHCTL,bmSAMPLEBUS);
	bus_sample = MAXreg_rd( rHRSL);            //Get J,K status
 c003aac:	01003e04 	movi	r4,248
 c003ab0:	c00385c0 	call	c00385c <MAXreg_rd>
 c003ab4:	e0bfff05 	stb	r2,-4(fp)
	bus_sample &= ( bmJSTATUS | bmKSTATUS);      //zero the rest of the byte
 c003ab8:	e0ffff03 	ldbu	r3,-4(fp)
 c003abc:	00bff004 	movi	r2,-64
 c003ac0:	1884703a 	and	r2,r3,r2
 c003ac4:	e0bfff05 	stb	r2,-4(fp)

	switch (bus_sample) {                   //start full-speed or low-speed host
 c003ac8:	e0bfff03 	ldbu	r2,-4(fp)
 c003acc:	10c01020 	cmpeqi	r3,r2,64
 c003ad0:	1800221e 	bne	r3,zero,c003b5c <MAX_busprobe+0xc0>
 c003ad4:	10c01048 	cmpgei	r3,r2,65
 c003ad8:	1800021e 	bne	r3,zero,c003ae4 <MAX_busprobe+0x48>
 c003adc:	10003b26 	beq	r2,zero,c003bcc <MAX_busprobe+0x130>
			MAXreg_wr( rMODE, MODE_FS_HOST); //start full-speed host
			usb_task_state = ( USB_DETACHED_SUBSTATE_WAIT_FOR_DEVICE);
		}
		break;
	} //end switch( bus_sample )
}
 c003ae0:	00004a06 	br	c003c0c <MAX_busprobe+0x170>

//  MAXreg_wr(rHCTL,bmSAMPLEBUS);
	bus_sample = MAXreg_rd( rHRSL);            //Get J,K status
	bus_sample &= ( bmJSTATUS | bmKSTATUS);      //zero the rest of the byte

	switch (bus_sample) {                   //start full-speed or low-speed host
 c003ae4:	10c02020 	cmpeqi	r3,r2,128
 c003ae8:	1800031e 	bne	r3,zero,c003af8 <MAX_busprobe+0x5c>
 c003aec:	10803020 	cmpeqi	r2,r2,192
 c003af0:	1000331e 	bne	r2,zero,c003bc0 <MAX_busprobe+0x124>
			MAXreg_wr( rMODE, MODE_FS_HOST); //start full-speed host
			usb_task_state = ( USB_DETACHED_SUBSTATE_WAIT_FOR_DEVICE);
		}
		break;
	} //end switch( bus_sample )
}
 c003af4:	00004506 	br	c003c0c <MAX_busprobe+0x170>
	bus_sample &= ( bmJSTATUS | bmKSTATUS);      //zero the rest of the byte

	switch (bus_sample) {                   //start full-speed or low-speed host
	case ( bmJSTATUS):
		/*kludgy*/
		if (usb_task_state != USB_ATTACHED_SUBSTATE_WAIT_RESET_COMPLETE) { //bus reset causes connection detect interrupt
 c003af8:	d0a00703 	ldbu	r2,-32740(gp)
 c003afc:	10803fcc 	andi	r2,r2,255
 c003b00:	108004e0 	cmpeqi	r2,r2,19
 c003b04:	10003e1e 	bne	r2,zero,c003c00 <MAX_busprobe+0x164>
			if (!(MAXreg_rd( rMODE) & bmLOWSPEED)) {
 c003b08:	01003604 	movi	r4,216
 c003b0c:	c00385c0 	call	c00385c <MAXreg_rd>
 c003b10:	10803fcc 	andi	r2,r2,255
 c003b14:	1080008c 	andi	r2,r2,2
 c003b18:	1000071e 	bne	r2,zero,c003b38 <MAX_busprobe+0x9c>
				MAXreg_wr( rMODE, MODE_FS_HOST);         //start full-speed host
 c003b1c:	01403244 	movi	r5,201
 c003b20:	01003604 	movi	r4,216
 c003b24:	c00366c0 	call	c00366c <MAXreg_wr>
				printf("Starting in full speed\n");
 c003b28:	010300b4 	movhi	r4,3074
 c003b2c:	2121d304 	addi	r4,r4,-30900
 c003b30:	c004fbc0 	call	c004fbc <puts>
 c003b34:	00000606 	br	c003b50 <MAX_busprobe+0xb4>
			} else {
				MAXreg_wr( rMODE, MODE_LS_HOST);    //start low-speed host
 c003b38:	014032c4 	movi	r5,203
 c003b3c:	01003604 	movi	r4,216
 c003b40:	c00366c0 	call	c00366c <MAXreg_wr>
				printf("Starting in low speed\n");
 c003b44:	010300b4 	movhi	r4,3074
 c003b48:	2121d904 	addi	r4,r4,-30876
 c003b4c:	c004fbc0 	call	c004fbc <puts>
			}
			usb_task_state = ( USB_STATE_ATTACHED); //signal usb state machine to start attachment sequence
 c003b50:	00800404 	movi	r2,16
 c003b54:	d0a00705 	stb	r2,-32740(gp)
		}
		break;
 c003b58:	00002906 	br	c003c00 <MAX_busprobe+0x164>
	case ( bmKSTATUS):
		if (usb_task_state != USB_ATTACHED_SUBSTATE_WAIT_RESET_COMPLETE) { //bus reset causes connection detect interrupt
 c003b5c:	d0a00703 	ldbu	r2,-32740(gp)
 c003b60:	10803fcc 	andi	r2,r2,255
 c003b64:	108004e0 	cmpeqi	r2,r2,19
 c003b68:	1000271e 	bne	r2,zero,c003c08 <MAX_busprobe+0x16c>
			if (!(MAXreg_rd( rMODE) & bmLOWSPEED)) {
 c003b6c:	01003604 	movi	r4,216
 c003b70:	c00385c0 	call	c00385c <MAXreg_rd>
 c003b74:	10803fcc 	andi	r2,r2,255
 c003b78:	1080008c 	andi	r2,r2,2
 c003b7c:	1000071e 	bne	r2,zero,c003b9c <MAX_busprobe+0x100>
				MAXreg_wr( rMODE, MODE_LS_HOST);   //start low-speed host
 c003b80:	014032c4 	movi	r5,203
 c003b84:	01003604 	movi	r4,216
 c003b88:	c00366c0 	call	c00366c <MAXreg_wr>
				printf("Starting in low speed\n");
 c003b8c:	010300b4 	movhi	r4,3074
 c003b90:	2121d904 	addi	r4,r4,-30876
 c003b94:	c004fbc0 	call	c004fbc <puts>
 c003b98:	00000606 	br	c003bb4 <MAX_busprobe+0x118>
			} else {
				MAXreg_wr( rMODE, MODE_FS_HOST);         //start full-speed host
 c003b9c:	01403244 	movi	r5,201
 c003ba0:	01003604 	movi	r4,216
 c003ba4:	c00366c0 	call	c00366c <MAXreg_wr>
				printf("Starting in full speed\n");
 c003ba8:	010300b4 	movhi	r4,3074
 c003bac:	2121d304 	addi	r4,r4,-30900
 c003bb0:	c004fbc0 	call	c004fbc <puts>
			}
			usb_task_state = ( USB_STATE_ATTACHED); //signal usb state machine to start attachment sequence
 c003bb4:	00800404 	movi	r2,16
 c003bb8:	d0a00705 	stb	r2,-32740(gp)
		}
		break;
 c003bbc:	00001206 	br	c003c08 <MAX_busprobe+0x16c>
	case ( bmSE1):              //illegal state
		usb_task_state = ( USB_DETACHED_SUBSTATE_ILLEGAL);
 c003bc0:	00800104 	movi	r2,4
 c003bc4:	d0a00705 	stb	r2,-32740(gp)
		break;
 c003bc8:	00001006 	br	c003c0c <MAX_busprobe+0x170>
	case ( bmSE0):              //disconnected state
		if (!((usb_task_state & USB_STATE_MASK) == USB_STATE_DETACHED)) //if we came here from other than detached state
 c003bcc:	d0a00703 	ldbu	r2,-32740(gp)
 c003bd0:	10803fcc 	andi	r2,r2,255
 c003bd4:	10803c0c 	andi	r2,r2,240
 c003bd8:	10000326 	beq	r2,zero,c003be8 <MAX_busprobe+0x14c>
			usb_task_state = ( USB_DETACHED_SUBSTATE_INITIALIZE); //clear device data structures
 c003bdc:	00800044 	movi	r2,1
 c003be0:	d0a00705 	stb	r2,-32740(gp)
		else {
			MAXreg_wr( rMODE, MODE_FS_HOST); //start full-speed host
			usb_task_state = ( USB_DETACHED_SUBSTATE_WAIT_FOR_DEVICE);
		}
		break;
 c003be4:	00000906 	br	c003c0c <MAX_busprobe+0x170>
		break;
	case ( bmSE0):              //disconnected state
		if (!((usb_task_state & USB_STATE_MASK) == USB_STATE_DETACHED)) //if we came here from other than detached state
			usb_task_state = ( USB_DETACHED_SUBSTATE_INITIALIZE); //clear device data structures
		else {
			MAXreg_wr( rMODE, MODE_FS_HOST); //start full-speed host
 c003be8:	01403244 	movi	r5,201
 c003bec:	01003604 	movi	r4,216
 c003bf0:	c00366c0 	call	c00366c <MAXreg_wr>
			usb_task_state = ( USB_DETACHED_SUBSTATE_WAIT_FOR_DEVICE);
 c003bf4:	008000c4 	movi	r2,3
 c003bf8:	d0a00705 	stb	r2,-32740(gp)
		}
		break;
 c003bfc:	00000306 	br	c003c0c <MAX_busprobe+0x170>
				MAXreg_wr( rMODE, MODE_LS_HOST);    //start low-speed host
				printf("Starting in low speed\n");
			}
			usb_task_state = ( USB_STATE_ATTACHED); //signal usb state machine to start attachment sequence
		}
		break;
 c003c00:	0001883a 	nop
 c003c04:	00000106 	br	c003c0c <MAX_busprobe+0x170>
				MAXreg_wr( rMODE, MODE_FS_HOST);         //start full-speed host
				printf("Starting in full speed\n");
			}
			usb_task_state = ( USB_STATE_ATTACHED); //signal usb state machine to start attachment sequence
		}
		break;
 c003c08:	0001883a 	nop
			MAXreg_wr( rMODE, MODE_FS_HOST); //start full-speed host
			usb_task_state = ( USB_DETACHED_SUBSTATE_WAIT_FOR_DEVICE);
		}
		break;
	} //end switch( bus_sample )
}
 c003c0c:	0001883a 	nop
 c003c10:	e037883a 	mov	sp,fp
 c003c14:	dfc00117 	ldw	ra,4(sp)
 c003c18:	df000017 	ldw	fp,0(sp)
 c003c1c:	dec00204 	addi	sp,sp,8
 c003c20:	f800283a 	ret

0c003c24 <MAX3421E_init>:
/* MAX3421E initialization after power-on   */
void MAX3421E_init(void) {
 c003c24:	defffe04 	addi	sp,sp,-8
 c003c28:	dfc00115 	stw	ra,4(sp)
 c003c2c:	df000015 	stw	fp,0(sp)
 c003c30:	d839883a 	mov	fp,sp
	/* Configure full-duplex SPI, interrupt pulse   */
	MAXreg_wr( rPINCTL, (bmFDUPSPI + bmINTLEVEL + bmGPXB)); //Full-duplex SPI, level interrupt, GPX
 c003c34:	01400684 	movi	r5,26
 c003c38:	01002204 	movi	r4,136
 c003c3c:	c00366c0 	call	c00366c <MAXreg_wr>
	MAX3421E_reset();                                //stop/start the oscillator
 c003c40:	c0039d80 	call	c0039d8 <MAX3421E_reset>
	/* configure power switch   */
	Vbus_power( OFF);                                      //turn Vbus power off
 c003c44:	0009883a 	mov	r4,zero
 c003c48:	c003a780 	call	c003a78 <Vbus_power>
	MAXreg_wr( rGPINIEN, bmGPINIEN7); //enable interrupt on GPIN7 (power switch overload flag)
 c003c4c:	01402004 	movi	r5,128
 c003c50:	01002e04 	movi	r4,184
 c003c54:	c00366c0 	call	c00366c <MAXreg_wr>
	Vbus_power( ON);
 c003c58:	01000044 	movi	r4,1
 c003c5c:	c003a780 	call	c003a78 <Vbus_power>
	/* configure host operation */
	MAXreg_wr( rMODE, bmDPPULLDN | bmDMPULLDN | bmHOST | bmSEPIRQ); // set pull-downs, SOF, Host, Separate GPIN IRQ on GPX
 c003c60:	01403444 	movi	r5,209
 c003c64:	01003604 	movi	r4,216
 c003c68:	c00366c0 	call	c00366c <MAXreg_wr>
	//MAXreg_wr( rHIEN, bmFRAMEIE|bmCONDETIE|bmBUSEVENTIE );                      // enable SOF, connection detection, bus event IRQs
	MAXreg_wr( rHIEN, bmCONDETIE);                        //connection detection
 c003c6c:	01400804 	movi	r5,32
 c003c70:	01003404 	movi	r4,208
 c003c74:	c00366c0 	call	c00366c <MAXreg_wr>
	/* HXFRDNIRQ is checked in Dispatch packet function */
	MAXreg_wr(rHCTL, bmSAMPLEBUS);        // update the JSTATUS and KSTATUS bits
 c003c78:	01400104 	movi	r5,4
 c003c7c:	01003a04 	movi	r4,232
 c003c80:	c00366c0 	call	c00366c <MAXreg_wr>
	MAX_busprobe();                             //check if anything is connected
 c003c84:	c003a9c0 	call	c003a9c <MAX_busprobe>
	MAXreg_wr( rHIRQ, bmCONDETIRQ); //clear connection detect interrupt                 
 c003c88:	01400804 	movi	r5,32
 c003c8c:	01003204 	movi	r4,200
 c003c90:	c00366c0 	call	c00366c <MAXreg_wr>
	MAXreg_wr( rCPUCTL, 0x01);                            //enable interrupt pin
 c003c94:	01400044 	movi	r5,1
 c003c98:	01002004 	movi	r4,128
 c003c9c:	c00366c0 	call	c00366c <MAXreg_wr>
}
 c003ca0:	0001883a 	nop
 c003ca4:	e037883a 	mov	sp,fp
 c003ca8:	dfc00117 	ldw	ra,4(sp)
 c003cac:	df000017 	ldw	fp,0(sp)
 c003cb0:	dec00204 	addi	sp,sp,8
 c003cb4:	f800283a 	ret

0c003cb8 <MAX3421E_Task>:

/* MAX3421 state change task and interrupt handler */
void MAX3421E_Task(void) {
 c003cb8:	defffe04 	addi	sp,sp,-8
 c003cbc:	dfc00115 	stw	ra,4(sp)
 c003cc0:	df000015 	stw	fp,0(sp)
 c003cc4:	d839883a 	mov	fp,sp
	if ( IORD_ALTERA_AVALON_PIO_DATA(USB_IRQ_BASE) == 0) {
 c003cc8:	00806404 	movi	r2,400
 c003ccc:	10800037 	ldwio	r2,0(r2)
 c003cd0:	1000041e 	bne	r2,zero,c003ce4 <MAX3421E_Task+0x2c>
		printf("MAX interrupt\n\r");
 c003cd4:	010300b4 	movhi	r4,3074
 c003cd8:	2121df04 	addi	r4,r4,-30852
 c003cdc:	c004ec00 	call	c004ec0 <printf>
		MaxIntHandler();
 c003ce0:	c003d1c0 	call	c003d1c <MaxIntHandler>
	}
	if ( IORD_ALTERA_AVALON_PIO_DATA(USB_GPX_BASE) == 1) {
 c003ce4:	00806004 	movi	r2,384
 c003ce8:	10800037 	ldwio	r2,0(r2)
 c003cec:	10800058 	cmpnei	r2,r2,1
 c003cf0:	1000041e 	bne	r2,zero,c003d04 <MAX3421E_Task+0x4c>
		printf("GPX interrupt\n\r");
 c003cf4:	010300b4 	movhi	r4,3074
 c003cf8:	2121e304 	addi	r4,r4,-30836
 c003cfc:	c004ec00 	call	c004ec0 <printf>
		MaxGpxHandler();
 c003d00:	c003de80 	call	c003de8 <MaxGpxHandler>
	}
}
 c003d04:	0001883a 	nop
 c003d08:	e037883a 	mov	sp,fp
 c003d0c:	dfc00117 	ldw	ra,4(sp)
 c003d10:	df000017 	ldw	fp,0(sp)
 c003d14:	dec00204 	addi	sp,sp,8
 c003d18:	f800283a 	ret

0c003d1c <MaxIntHandler>:

void MaxIntHandler(void) {
 c003d1c:	defffd04 	addi	sp,sp,-12
 c003d20:	dfc00215 	stw	ra,8(sp)
 c003d24:	df000115 	stw	fp,4(sp)
 c003d28:	df000104 	addi	fp,sp,4
	BYTE HIRQ;
	BYTE HIRQ_sendback = 0x00;
 c003d2c:	e03fff05 	stb	zero,-4(fp)
	HIRQ = MAXreg_rd( rHIRQ);                  //determine interrupt source
 c003d30:	01003204 	movi	r4,200
 c003d34:	c00385c0 	call	c00385c <MAXreg_rd>
 c003d38:	e0bfff45 	stb	r2,-3(fp)
	printf("IRQ: %x\n", HIRQ);
 c003d3c:	e0bfff43 	ldbu	r2,-3(fp)
 c003d40:	100b883a 	mov	r5,r2
 c003d44:	010300b4 	movhi	r4,3074
 c003d48:	2121e704 	addi	r4,r4,-30820
 c003d4c:	c004ec00 	call	c004ec0 <printf>
	if (HIRQ & bmFRAMEIRQ) {                   //->1ms SOF interrupt handler
 c003d50:	e0bfff43 	ldbu	r2,-3(fp)
 c003d54:	1080100c 	andi	r2,r2,64
 c003d58:	10000326 	beq	r2,zero,c003d68 <MaxIntHandler+0x4c>
		HIRQ_sendback |= bmFRAMEIRQ;
 c003d5c:	e0bfff03 	ldbu	r2,-4(fp)
 c003d60:	10801014 	ori	r2,r2,64
 c003d64:	e0bfff05 	stb	r2,-4(fp)
	}                   //end FRAMEIRQ handling

	if (HIRQ & bmCONDETIRQ) {
 c003d68:	e0bfff43 	ldbu	r2,-3(fp)
 c003d6c:	1080080c 	andi	r2,r2,32
 c003d70:	10000426 	beq	r2,zero,c003d84 <MaxIntHandler+0x68>
		MAX_busprobe();
 c003d74:	c003a9c0 	call	c003a9c <MAX_busprobe>
		HIRQ_sendback |= bmCONDETIRQ;      //set sendback to 1 to clear register
 c003d78:	e0bfff03 	ldbu	r2,-4(fp)
 c003d7c:	10800814 	ori	r2,r2,32
 c003d80:	e0bfff05 	stb	r2,-4(fp)
	}
	if (HIRQ & bmSNDBAVIRQ) //if the send buffer is clear (previous transfer completed without issue)
 c003d84:	e0bfff43 	ldbu	r2,-3(fp)
 c003d88:	1080020c 	andi	r2,r2,8
 c003d8c:	10000326 	beq	r2,zero,c003d9c <MaxIntHandler+0x80>
	{
		MAXreg_wr(rSNDBC, 0x00);//clear the send buffer (not really necessary, but clears interrupt)
 c003d90:	000b883a 	mov	r5,zero
 c003d94:	01000e04 	movi	r4,56
 c003d98:	c00366c0 	call	c00366c <MAXreg_wr>
	}
	if (HIRQ & bmBUSEVENTIRQ) {           //bus event is either reset or suspend
 c003d9c:	e0bfff43 	ldbu	r2,-3(fp)
 c003da0:	1080004c 	andi	r2,r2,1
 c003da4:	10000626 	beq	r2,zero,c003dc0 <MaxIntHandler+0xa4>
		usb_task_state++;                       //advance USB task state machine
 c003da8:	d0a00703 	ldbu	r2,-32740(gp)
 c003dac:	10800044 	addi	r2,r2,1
 c003db0:	d0a00705 	stb	r2,-32740(gp)
		HIRQ_sendback |= bmBUSEVENTIRQ;
 c003db4:	e0bfff03 	ldbu	r2,-4(fp)
 c003db8:	10800054 	ori	r2,r2,1
 c003dbc:	e0bfff05 	stb	r2,-4(fp)
	}
	/* End HIRQ interrupts handling, clear serviced IRQs    */
	MAXreg_wr( rHIRQ, HIRQ_sendback); //write '1' to CONDETIRQ to ack bus state change
 c003dc0:	e0bfff03 	ldbu	r2,-4(fp)
 c003dc4:	100b883a 	mov	r5,r2
 c003dc8:	01003204 	movi	r4,200
 c003dcc:	c00366c0 	call	c00366c <MAXreg_wr>
}
 c003dd0:	0001883a 	nop
 c003dd4:	e037883a 	mov	sp,fp
 c003dd8:	dfc00117 	ldw	ra,4(sp)
 c003ddc:	df000017 	ldw	fp,0(sp)
 c003de0:	dec00204 	addi	sp,sp,8
 c003de4:	f800283a 	ret

0c003de8 <MaxGpxHandler>:

void MaxGpxHandler(void) {
 c003de8:	defffd04 	addi	sp,sp,-12
 c003dec:	dfc00215 	stw	ra,8(sp)
 c003df0:	df000115 	stw	fp,4(sp)
 c003df4:	df000104 	addi	fp,sp,4
	BYTE GPINIRQ;
	GPINIRQ = MAXreg_rd( rGPINIRQ);            //read both IRQ registers
 c003df8:	01002c04 	movi	r4,176
 c003dfc:	c00385c0 	call	c00385c <MAXreg_rd>
 c003e00:	e0bfff05 	stb	r2,-4(fp)
}
 c003e04:	0001883a 	nop
 c003e08:	e037883a 	mov	sp,fp
 c003e0c:	dfc00117 	ldw	ra,4(sp)
 c003e10:	df000017 	ldw	fp,0(sp)
 c003e14:	dec00204 	addi	sp,sp,8
 c003e18:	f800283a 	ret

0c003e1c <XferCtrlReq>:
/* depending on request. Actual requests are defined as macros                                                                                      */
/* return codes:                */
/* 00       =   success         */
/* 01-0f    =   non-zero HRSLT  */
BYTE XferCtrlReq( BYTE addr, BYTE ep, BYTE bmReqType, BYTE bRequest, BYTE wValLo, BYTE wValHi, WORD wInd, WORD nbytes, BYTE* dataptr )
{
 c003e1c:	defff104 	addi	sp,sp,-60
 c003e20:	dfc00e15 	stw	ra,56(sp)
 c003e24:	df000d15 	stw	fp,52(sp)
 c003e28:	df000d04 	addi	fp,sp,52
 c003e2c:	2015883a 	mov	r10,r4
 c003e30:	2813883a 	mov	r9,r5
 c003e34:	3011883a 	mov	r8,r6
 c003e38:	380d883a 	mov	r6,r7
 c003e3c:	e1400217 	ldw	r5,8(fp)
 c003e40:	e1000317 	ldw	r4,12(fp)
 c003e44:	e0c00417 	ldw	r3,16(fp)
 c003e48:	e0800517 	ldw	r2,20(fp)
 c003e4c:	e2bff805 	stb	r10,-32(fp)
 c003e50:	e27ff905 	stb	r9,-28(fp)
 c003e54:	e23ffa05 	stb	r8,-24(fp)
 c003e58:	e1bffb05 	stb	r6,-20(fp)
 c003e5c:	e17ffc05 	stb	r5,-16(fp)
 c003e60:	e13ffd05 	stb	r4,-12(fp)
 c003e64:	e0fffe0d 	sth	r3,-8(fp)
 c003e68:	e0bfff0d 	sth	r2,-4(fp)
 BOOL direction = FALSE;        //request direction, IN or OUT
 c003e6c:	e03ff415 	stw	zero,-48(fp)
 BYTE datastage = 1; //request data stage present or absent
 c003e70:	00800044 	movi	r2,1
 c003e74:	e0bff505 	stb	r2,-44(fp)
 BYTE rcode;
 SETUP_PKT setup_pkt;
    if( dataptr == NULL ) {
 c003e78:	e0800617 	ldw	r2,24(fp)
 c003e7c:	1000011e 	bne	r2,zero,c003e84 <XferCtrlReq+0x68>
        datastage = 0;
 c003e80:	e03ff505 	stb	zero,-44(fp)
    }
    MAXreg_wr( rPERADDR, addr );                    //set peripheral address
 c003e84:	e0bff803 	ldbu	r2,-32(fp)
 c003e88:	100b883a 	mov	r5,r2
 c003e8c:	01003804 	movi	r4,224
 c003e90:	c00366c0 	call	c00366c <MAXreg_wr>
    /* fill in setup packet */
    if( bmReqType & 0x80 ) {
 c003e94:	e0bffa03 	ldbu	r2,-24(fp)
 c003e98:	10803fcc 	andi	r2,r2,255
 c003e9c:	1080201c 	xori	r2,r2,128
 c003ea0:	10bfe004 	addi	r2,r2,-128
 c003ea4:	1000020e 	bge	r2,zero,c003eb0 <XferCtrlReq+0x94>
        direction = TRUE;                   		//determine request direction
 c003ea8:	00800044 	movi	r2,1
 c003eac:	e0bff415 	stw	r2,-48(fp)
    }
    /* fill in setup packet */
    setup_pkt.ReqType_u.bmRequestType = bmReqType;
 c003eb0:	e0bffa03 	ldbu	r2,-24(fp)
 c003eb4:	e0bff585 	stb	r2,-42(fp)
    setup_pkt.bRequest = bRequest;
 c003eb8:	e0bffb03 	ldbu	r2,-20(fp)
 c003ebc:	e0bff5c5 	stb	r2,-41(fp)
    setup_pkt.wVal_u.wValueLo = wValLo;
 c003ec0:	e0bffc03 	ldbu	r2,-16(fp)
 c003ec4:	e0bff605 	stb	r2,-40(fp)
    setup_pkt.wVal_u.wValueHi = wValHi;
 c003ec8:	e0bffd03 	ldbu	r2,-12(fp)
 c003ecc:	e0bff645 	stb	r2,-39(fp)
    setup_pkt.wIndex = wInd;
 c003ed0:	e0bffe0b 	ldhu	r2,-8(fp)
 c003ed4:	e0bff68d 	sth	r2,-38(fp)
    setup_pkt.wLength = nbytes;
 c003ed8:	e0bfff0b 	ldhu	r2,-4(fp)
 c003edc:	e0bff70d 	sth	r2,-36(fp)
    MAXbytes_wr( rSUDFIFO, 8, (BYTE *)&setup_pkt );     //transfer to setup packet FIFO
 c003ee0:	e0bff584 	addi	r2,fp,-42
 c003ee4:	100d883a 	mov	r6,r2
 c003ee8:	01400204 	movi	r5,8
 c003eec:	01000804 	movi	r4,32
 c003ef0:	c0036f40 	call	c0036f4 <MAXbytes_wr>
    rcode = XferDispatchPkt( tokSETUP, ep );            //dispatch packet
 c003ef4:	e0bff903 	ldbu	r2,-28(fp)
 c003ef8:	100b883a 	mov	r5,r2
 c003efc:	01000404 	movi	r4,16
 c003f00:	c0040c40 	call	c0040c4 <XferDispatchPkt>
 c003f04:	e0bff545 	stb	r2,-43(fp)
    if( rcode ) {                                       //return HRSLT if not zero
 c003f08:	e0bff543 	ldbu	r2,-43(fp)
 c003f0c:	10000226 	beq	r2,zero,c003f18 <XferCtrlReq+0xfc>
        return( rcode );
 c003f10:	e0bff543 	ldbu	r2,-43(fp)
 c003f14:	00000f06 	br	c003f54 <XferCtrlReq+0x138>
    }
    rcode = ctrl_xfers[ datastage ]( addr, ep, nbytes, dataptr, direction );    //call data stage or no data stage transfer
 c003f18:	e0bff503 	ldbu	r2,-44(fp)
 c003f1c:	1085883a 	add	r2,r2,r2
 c003f20:	1087883a 	add	r3,r2,r2
 c003f24:	d0a00504 	addi	r2,gp,-32748
 c003f28:	1885883a 	add	r2,r3,r2
 c003f2c:	10800017 	ldw	r2,0(r2)
 c003f30:	e13ff803 	ldbu	r4,-32(fp)
 c003f34:	e17ff903 	ldbu	r5,-28(fp)
 c003f38:	e1bfff0b 	ldhu	r6,-4(fp)
 c003f3c:	e0fff417 	ldw	r3,-48(fp)
 c003f40:	d8c00015 	stw	r3,0(sp)
 c003f44:	e1c00617 	ldw	r7,24(fp)
 c003f48:	103ee83a 	callr	r2
 c003f4c:	e0bff545 	stb	r2,-43(fp)
    return( rcode );
 c003f50:	e0bff543 	ldbu	r2,-43(fp)
}
 c003f54:	e037883a 	mov	sp,fp
 c003f58:	dfc00117 	ldw	ra,4(sp)
 c003f5c:	df000017 	ldw	fp,0(sp)
 c003f60:	dec00204 	addi	sp,sp,8
 c003f64:	f800283a 	ret

0c003f68 <XferCtrlData>:
/* Control transfer with data stage */
BYTE XferCtrlData( BYTE addr, BYTE ep, WORD nbytes, BYTE* dataptr, BOOL direction )
{
 c003f68:	defff804 	addi	sp,sp,-32
 c003f6c:	dfc00715 	stw	ra,28(sp)
 c003f70:	df000615 	stw	fp,24(sp)
 c003f74:	df000604 	addi	fp,sp,24
 c003f78:	2807883a 	mov	r3,r5
 c003f7c:	3005883a 	mov	r2,r6
 c003f80:	e1ffff15 	stw	r7,-4(fp)
 c003f84:	e13ffc05 	stb	r4,-16(fp)
 c003f88:	e0fffd05 	stb	r3,-12(fp)
 c003f8c:	e0bffe0d 	sth	r2,-8(fp)
  BYTE rcode;

    //MAXreg_wr( rHCTL, bmRCVTOG1 );       //set toggle to DATA1
    if( direction ) {   //IN transfer
 c003f90:	e0800217 	ldw	r2,8(fp)
 c003f94:	10002826 	beq	r2,zero,c004038 <XferCtrlData+0xd0>
        devtable[ addr ].epinfo[ ep ].rcvToggle = bmRCVTOG1;
 c003f98:	e0fffc03 	ldbu	r3,-16(fp)
 c003f9c:	008300b4 	movhi	r2,3074
 c003fa0:	1097bc04 	addi	r2,r2,24304
 c003fa4:	180690fa 	slli	r3,r3,3
 c003fa8:	10c5883a 	add	r2,r2,r3
 c003fac:	10c00017 	ldw	r3,0(r2)
 c003fb0:	e0bffd03 	ldbu	r2,-12(fp)
 c003fb4:	100490fa 	slli	r2,r2,3
 c003fb8:	1885883a 	add	r2,r3,r2
 c003fbc:	00c00804 	movi	r3,32
 c003fc0:	10c00185 	stb	r3,6(r2)
        rcode = XferInTransfer( addr, ep, nbytes, dataptr, devtable[ addr ].epinfo[ ep ].MaxPktSize );
 c003fc4:	e13ffc03 	ldbu	r4,-16(fp)
 c003fc8:	e17ffd03 	ldbu	r5,-12(fp)
 c003fcc:	e1bffe0b 	ldhu	r6,-8(fp)
 c003fd0:	e0fffc03 	ldbu	r3,-16(fp)
 c003fd4:	008300b4 	movhi	r2,3074
 c003fd8:	1097bc04 	addi	r2,r2,24304
 c003fdc:	180690fa 	slli	r3,r3,3
 c003fe0:	10c5883a 	add	r2,r2,r3
 c003fe4:	10c00017 	ldw	r3,0(r2)
 c003fe8:	e0bffd03 	ldbu	r2,-12(fp)
 c003fec:	100490fa 	slli	r2,r2,3
 c003ff0:	1885883a 	add	r2,r3,r2
 c003ff4:	1080008b 	ldhu	r2,2(r2)
 c003ff8:	10803fcc 	andi	r2,r2,255
 c003ffc:	d8800015 	stw	r2,0(sp)
 c004000:	e1ffff17 	ldw	r7,-4(fp)
 c004004:	c0042400 	call	c004240 <XferInTransfer>
 c004008:	e0bffb05 	stb	r2,-20(fp)
        if( rcode ) {
 c00400c:	e0bffb03 	ldbu	r2,-20(fp)
 c004010:	10000226 	beq	r2,zero,c00401c <XferCtrlData+0xb4>
        return( rcode );
 c004014:	e0bffb03 	ldbu	r2,-20(fp)
 c004018:	00000806 	br	c00403c <XferCtrlData+0xd4>
        }
        rcode = XferDispatchPkt( tokOUTHS, ep );
 c00401c:	e0bffd03 	ldbu	r2,-12(fp)
 c004020:	100b883a 	mov	r5,r2
 c004024:	01002804 	movi	r4,160
 c004028:	c0040c40 	call	c0040c4 <XferDispatchPkt>
 c00402c:	e0bffb05 	stb	r2,-20(fp)
        return( rcode );
 c004030:	e0bffb03 	ldbu	r2,-20(fp)
 c004034:	00000106 	br	c00403c <XferCtrlData+0xd4>
    }
    else {              //OUT not implemented
        return( 0xff );
 c004038:	00bfffc4 	movi	r2,-1
    }
}
 c00403c:	e037883a 	mov	sp,fp
 c004040:	dfc00117 	ldw	ra,4(sp)
 c004044:	df000017 	ldw	fp,0(sp)
 c004048:	dec00204 	addi	sp,sp,8
 c00404c:	f800283a 	ret

0c004050 <XferCtrlND>:
/* Control transfer with status stage and no data stage */
BYTE XferCtrlND( BYTE addr, BYTE ep, WORD nbytes, BYTE* dataptr, BOOL direction )
{
 c004050:	defff904 	addi	sp,sp,-28
 c004054:	dfc00615 	stw	ra,24(sp)
 c004058:	df000515 	stw	fp,20(sp)
 c00405c:	df000504 	addi	fp,sp,20
 c004060:	2807883a 	mov	r3,r5
 c004064:	3005883a 	mov	r2,r6
 c004068:	e1ffff15 	stw	r7,-4(fp)
 c00406c:	e13ffc05 	stb	r4,-16(fp)
 c004070:	e0fffd05 	stb	r3,-12(fp)
 c004074:	e0bffe0d 	sth	r2,-8(fp)
  BYTE rcode;
    if( direction ) { //GET
 c004078:	e0800217 	ldw	r2,8(fp)
 c00407c:	10000626 	beq	r2,zero,c004098 <XferCtrlND+0x48>
        rcode = XferDispatchPkt( tokOUTHS, ep );
 c004080:	e0bffd03 	ldbu	r2,-12(fp)
 c004084:	100b883a 	mov	r5,r2
 c004088:	01002804 	movi	r4,160
 c00408c:	c0040c40 	call	c0040c4 <XferDispatchPkt>
 c004090:	e0bffb05 	stb	r2,-20(fp)
 c004094:	00000506 	br	c0040ac <XferCtrlND+0x5c>
    }
    else {
        rcode = XferDispatchPkt( tokINHS, ep );
 c004098:	e0bffd03 	ldbu	r2,-12(fp)
 c00409c:	100b883a 	mov	r5,r2
 c0040a0:	01002004 	movi	r4,128
 c0040a4:	c0040c40 	call	c0040c4 <XferDispatchPkt>
 c0040a8:	e0bffb05 	stb	r2,-20(fp)
    }
    return( rcode );
 c0040ac:	e0bffb03 	ldbu	r2,-20(fp)
}
 c0040b0:	e037883a 	mov	sp,fp
 c0040b4:	dfc00117 	ldw	ra,4(sp)
 c0040b8:	df000017 	ldw	fp,0(sp)
 c0040bc:	dec00204 	addi	sp,sp,8
 c0040c0:	f800283a 	ret

0c0040c4 <XferDispatchPkt>:
/* Result code: 0 success, nonzero = error condition                                                */
/* If NAK, tries to re-send up to USB_NAK_LIMIT times                                               */
/* If bus timeout, re-sends up to USB_RETRY_LIMIT times                                             */
/* return codes 0x00-0x0f are HRSLT( 0x00 being success ), 0xff means timeout                       */
BYTE XferDispatchPkt( BYTE token, BYTE ep )
{
 c0040c4:	defff904 	addi	sp,sp,-28
 c0040c8:	dfc00615 	stw	ra,24(sp)
 c0040cc:	df000515 	stw	fp,20(sp)
 c0040d0:	df000504 	addi	fp,sp,20
 c0040d4:	2007883a 	mov	r3,r4
 c0040d8:	2805883a 	mov	r2,r5
 c0040dc:	e0fffe05 	stb	r3,-8(fp)
 c0040e0:	e0bfff05 	stb	r2,-4(fp)
 * alt_nticks() returns the elapsed number of system clock ticks since reset.
 */

static ALT_INLINE alt_u32 ALT_ALWAYS_INLINE alt_nticks (void)
{
  return _alt_nticks;
 c0040e4:	d0a7b017 	ldw	r2,-24896(gp)
 DWORD timeout = (alt_nticks()*1000)/alt_ticks_per_second() + USB_XFER_TIMEOUT;
 c0040e8:	0140fa04 	movi	r5,1000
 c0040ec:	1009883a 	mov	r4,r2
 c0040f0:	c004e680 	call	c004e68 <__mulsi3>
 c0040f4:	1007883a 	mov	r3,r2
 * Obtain the system clock rate in ticks/s. 
 */

static ALT_INLINE alt_u32 ALT_ALWAYS_INLINE alt_ticks_per_second (void)
{
  return _alt_tick_rate;
 c0040f8:	d0a7af17 	ldw	r2,-24900(gp)
 c0040fc:	100b883a 	mov	r5,r2
 c004100:	1809883a 	mov	r4,r3
 c004104:	c004dac0 	call	c004dac <__udivsi3>
 c004108:	1084e204 	addi	r2,r2,5000
 c00410c:	e0bffc15 	stw	r2,-16(fp)
 BYTE tmpdata;
 BYTE rcode;
 char retry_count = 0;
 c004110:	e03ffb45 	stb	zero,-19(fp)
 BYTE nak_count = 0;
 c004114:	e03ffb85 	stb	zero,-18(fp)

    while( 1 ) {
        MAXreg_wr( rHXFR, ( token|ep ));            //launch the transfer
 c004118:	e0fffe03 	ldbu	r3,-8(fp)
 c00411c:	e0bfff03 	ldbu	r2,-4(fp)
 c004120:	1884b03a 	or	r2,r3,r2
 c004124:	10803fcc 	andi	r2,r2,255
 c004128:	100b883a 	mov	r5,r2
 c00412c:	01003c04 	movi	r4,240
 c004130:	c00366c0 	call	c00366c <MAXreg_wr>
        rcode = 0xff;
 c004134:	00bfffc4 	movi	r2,-1
 c004138:	e0bffb05 	stb	r2,-20(fp)
        while( (alt_nticks()*1000)/alt_ticks_per_second() < timeout ) {
 c00413c:	00000d06 	br	c004174 <XferDispatchPkt+0xb0>
            tmpdata = MAXreg_rd( rHIRQ );
 c004140:	01003204 	movi	r4,200
 c004144:	c00385c0 	call	c00385c <MAXreg_rd>
 c004148:	e0bffd05 	stb	r2,-12(fp)
            if( tmpdata & bmHXFRDNIRQ ) {
 c00414c:	e0bffd03 	ldbu	r2,-12(fp)
 c004150:	10803fcc 	andi	r2,r2,255
 c004154:	1080201c 	xori	r2,r2,128
 c004158:	10bfe004 	addi	r2,r2,-128
 c00415c:	1000050e 	bge	r2,zero,c004174 <XferDispatchPkt+0xb0>
                MAXreg_wr( rHIRQ, bmHXFRDNIRQ );    //clear the interrupt
 c004160:	01402004 	movi	r5,128
 c004164:	01003204 	movi	r4,200
 c004168:	c00366c0 	call	c00366c <MAXreg_wr>
                rcode = 0x00;
 c00416c:	e03ffb05 	stb	zero,-20(fp)
                break;
 c004170:	00000c06 	br	c0041a4 <XferDispatchPkt+0xe0>
 * alt_nticks() returns the elapsed number of system clock ticks since reset.
 */

static ALT_INLINE alt_u32 ALT_ALWAYS_INLINE alt_nticks (void)
{
  return _alt_nticks;
 c004174:	d0a7b017 	ldw	r2,-24896(gp)
 BYTE nak_count = 0;

    while( 1 ) {
        MAXreg_wr( rHXFR, ( token|ep ));            //launch the transfer
        rcode = 0xff;
        while( (alt_nticks()*1000)/alt_ticks_per_second() < timeout ) {
 c004178:	0140fa04 	movi	r5,1000
 c00417c:	1009883a 	mov	r4,r2
 c004180:	c004e680 	call	c004e68 <__mulsi3>
 c004184:	1007883a 	mov	r3,r2
 * Obtain the system clock rate in ticks/s. 
 */

static ALT_INLINE alt_u32 ALT_ALWAYS_INLINE alt_ticks_per_second (void)
{
  return _alt_tick_rate;
 c004188:	d0a7af17 	ldw	r2,-24900(gp)
 c00418c:	100b883a 	mov	r5,r2
 c004190:	1809883a 	mov	r4,r3
 c004194:	c004dac0 	call	c004dac <__udivsi3>
 c004198:	1007883a 	mov	r3,r2
 c00419c:	e0bffc17 	ldw	r2,-16(fp)
 c0041a0:	18bfe736 	bltu	r3,r2,c004140 <__alt_data_end+0xfc004140>
                MAXreg_wr( rHIRQ, bmHXFRDNIRQ );    //clear the interrupt
                rcode = 0x00;
                break;
            }
        }
        if( rcode != 0x00 ) {               //exit if timeout
 c0041a4:	e0bffb03 	ldbu	r2,-20(fp)
 c0041a8:	10000226 	beq	r2,zero,c0041b4 <XferDispatchPkt+0xf0>
            return( rcode );
 c0041ac:	e0bffb03 	ldbu	r2,-20(fp)
 c0041b0:	00001e06 	br	c00422c <XferDispatchPkt+0x168>
        }
        rcode = ( MAXreg_rd( rHRSL ) & 0x0f );
 c0041b4:	01003e04 	movi	r4,248
 c0041b8:	c00385c0 	call	c00385c <MAXreg_rd>
 c0041bc:	108003cc 	andi	r2,r2,15
 c0041c0:	e0bffb05 	stb	r2,-20(fp)
        if( rcode == hrNAK ) {
 c0041c4:	e0bffb03 	ldbu	r2,-20(fp)
 c0041c8:	10800118 	cmpnei	r2,r2,4
 c0041cc:	1000071e 	bne	r2,zero,c0041ec <XferDispatchPkt+0x128>
            nak_count++;
 c0041d0:	e0bffb83 	ldbu	r2,-18(fp)
 c0041d4:	10800044 	addi	r2,r2,1
 c0041d8:	e0bffb85 	stb	r2,-18(fp)
            if( nak_count == USB_NAK_LIMIT ) {
 c0041dc:	e0bffb83 	ldbu	r2,-18(fp)
 c0041e0:	10803218 	cmpnei	r2,r2,200
 c0041e4:	10000b1e 	bne	r2,zero,c004214 <XferDispatchPkt+0x150>
                break;
 c0041e8:	00000f06 	br	c004228 <XferDispatchPkt+0x164>
            }
            else {
                continue;
            }
        }
        if( rcode == hrTIMEOUT ) {
 c0041ec:	e0bffb03 	ldbu	r2,-20(fp)
 c0041f0:	10800398 	cmpnei	r2,r2,14
 c0041f4:	1000091e 	bne	r2,zero,c00421c <XferDispatchPkt+0x158>
            retry_count++;
 c0041f8:	e0bffb43 	ldbu	r2,-19(fp)
 c0041fc:	10800044 	addi	r2,r2,1
 c004200:	e0bffb45 	stb	r2,-19(fp)
            if( retry_count == USB_RETRY_LIMIT ) {
 c004204:	e0bffb47 	ldb	r2,-19(fp)
 c004208:	108000d8 	cmpnei	r2,r2,3
 c00420c:	10000526 	beq	r2,zero,c004224 <XferDispatchPkt+0x160>
                break;
            }
            else {
                continue;
 c004210:	00000106 	br	c004218 <XferDispatchPkt+0x154>
            nak_count++;
            if( nak_count == USB_NAK_LIMIT ) {
                break;
            }
            else {
                continue;
 c004214:	0001883a 	nop
            else {
                continue;
            }
        }
        else break;
    }//while( 1 )
 c004218:	003fbf06 	br	c004118 <__alt_data_end+0xfc004118>
            }
            else {
                continue;
            }
        }
        else break;
 c00421c:	0001883a 	nop
 c004220:	00000106 	br	c004228 <XferDispatchPkt+0x164>
            }
        }
        if( rcode == hrTIMEOUT ) {
            retry_count++;
            if( retry_count == USB_RETRY_LIMIT ) {
                break;
 c004224:	0001883a 	nop
                continue;
            }
        }
        else break;
    }//while( 1 )
    return( rcode );
 c004228:	e0bffb03 	ldbu	r2,-20(fp)
}
 c00422c:	e037883a 	mov	sp,fp
 c004230:	dfc00117 	ldw	ra,4(sp)
 c004234:	df000017 	ldw	fp,0(sp)
 c004238:	dec00204 	addi	sp,sp,8
 c00423c:	f800283a 	ret

0c004240 <XferInTransfer>:
/* IN transfer to arbitrary endpoint. Assumes PERADDR is set. Handles multiple packets if necessary. Transfers 'nbytes' bytes.
    Keep sending INs and writes data to memory area pointed by 'data' */
/* rcode 0 if no errors. rcode 01-0f is relayed from prvXferDispatchPkt(). Rcode f0 means RCVDAVIRQ error,
            fe USB xfer timeout */
BYTE XferInTransfer( BYTE addr/* not sure if it's necessary */, BYTE ep, WORD nbytes, BYTE* data, BYTE maxpktsize )
{
 c004240:	defff804 	addi	sp,sp,-32
 c004244:	dfc00715 	stw	ra,28(sp)
 c004248:	df000615 	stw	fp,24(sp)
 c00424c:	df000604 	addi	fp,sp,24
 c004250:	2011883a 	mov	r8,r4
 c004254:	2809883a 	mov	r4,r5
 c004258:	3007883a 	mov	r3,r6
 c00425c:	e1fffe15 	stw	r7,-8(fp)
 c004260:	e0800217 	ldw	r2,8(fp)
 c004264:	e23ffb05 	stb	r8,-20(fp)
 c004268:	e13ffc05 	stb	r4,-16(fp)
 c00426c:	e0fffd0d 	sth	r3,-12(fp)
 c004270:	e0bfff05 	stb	r2,-4(fp)
 BYTE rcode;
 BYTE i;
 BYTE tmpbyte;
 BYTE pktsize;
 WORD xfrlen = 0;
 c004274:	e03ffa0d 	sth	zero,-24(fp)
    MAXreg_wr( rHCTL, devtable[ addr ].epinfo[ ep ].rcvToggle );    //set toggle value
 c004278:	e0fffb03 	ldbu	r3,-20(fp)
 c00427c:	008300b4 	movhi	r2,3074
 c004280:	1097bc04 	addi	r2,r2,24304
 c004284:	180690fa 	slli	r3,r3,3
 c004288:	10c5883a 	add	r2,r2,r3
 c00428c:	10c00017 	ldw	r3,0(r2)
 c004290:	e0bffc03 	ldbu	r2,-16(fp)
 c004294:	100490fa 	slli	r2,r2,3
 c004298:	1885883a 	add	r2,r3,r2
 c00429c:	10800183 	ldbu	r2,6(r2)
 c0042a0:	10803fcc 	andi	r2,r2,255
 c0042a4:	100b883a 	mov	r5,r2
 c0042a8:	01003a04 	movi	r4,232
 c0042ac:	c00366c0 	call	c00366c <MAXreg_wr>
    while( 1 ) { // use a 'return' to exit this loop
        rcode = XferDispatchPkt( tokIN, ep );           //IN packet to EP-'endpoint'. Function takes care of NAKS.
 c0042b0:	e0bffc03 	ldbu	r2,-16(fp)
 c0042b4:	100b883a 	mov	r5,r2
 c0042b8:	0009883a 	mov	r4,zero
 c0042bc:	c0040c40 	call	c0040c4 <XferDispatchPkt>
 c0042c0:	e0bffa85 	stb	r2,-22(fp)
        if( rcode ) {
 c0042c4:	e0bffa83 	ldbu	r2,-22(fp)
 c0042c8:	10000226 	beq	r2,zero,c0042d4 <XferInTransfer+0x94>
            return( rcode );                            //should be 0, indicating ACK. Else return error code.
 c0042cc:	e0bffa83 	ldbu	r2,-22(fp)
 c0042d0:	00003a06 	br	c0043bc <XferInTransfer+0x17c>
        }
        /* check for RCVDAVIRQ and generate error if not present */
        /* the only case when absence of RCVDAVIRQ makes sense is when toggle error occurred. Need to add handling for that */
        if(( MAXreg_rd( rHIRQ ) & bmRCVDAVIRQ ) == 0 ) {
 c0042d4:	01003204 	movi	r4,200
 c0042d8:	c00385c0 	call	c00385c <MAXreg_rd>
 c0042dc:	10803fcc 	andi	r2,r2,255
 c0042e0:	1080010c 	andi	r2,r2,4
 c0042e4:	1000021e 	bne	r2,zero,c0042f0 <XferInTransfer+0xb0>
            return ( 0xf0 );                            //receive error
 c0042e8:	00bffc04 	movi	r2,-16
 c0042ec:	00003306 	br	c0043bc <XferInTransfer+0x17c>
        }
        pktsize = MAXreg_rd( rRCVBC );                  //number of received bytes
 c0042f0:	01000c04 	movi	r4,48
 c0042f4:	c00385c0 	call	c00385c <MAXreg_rd>
 c0042f8:	e0bffac5 	stb	r2,-21(fp)
        //printf ("pktsize: %d\n", pktsize);
        data = MAXbytes_rd( rRCVFIFO, pktsize, data );
 c0042fc:	e0bffac3 	ldbu	r2,-21(fp)
 c004300:	e1bffe17 	ldw	r6,-8(fp)
 c004304:	100b883a 	mov	r5,r2
 c004308:	01000204 	movi	r4,8
 c00430c:	c0038d00 	call	c0038d0 <MAXbytes_rd>
 c004310:	e0bffe15 	stw	r2,-8(fp)
        MAXreg_wr( rHIRQ, bmRCVDAVIRQ );                // Clear the IRQ & free the buffer
 c004314:	01400104 	movi	r5,4
 c004318:	01003204 	movi	r4,200
 c00431c:	c00366c0 	call	c00366c <MAXreg_wr>
        xfrlen += pktsize;                              // add this packet's byte count to total transfer length
 c004320:	e0fffac3 	ldbu	r3,-21(fp)
 c004324:	e0bffa0b 	ldhu	r2,-24(fp)
 c004328:	1885883a 	add	r2,r3,r2
 c00432c:	e0bffa0d 	sth	r2,-24(fp)
        /* The transfer is complete under two conditions:           */
        /* 1. The device sent a short packet (L.T. maxPacketSize)   */
        /* 2. 'nbytes' have been transferred.                       */
        if (( pktsize < maxpktsize ) || (xfrlen >= nbytes )) {    // have we transferred 'nbytes' bytes?
 c004330:	e0fffac3 	ldbu	r3,-21(fp)
 c004334:	e0bfff03 	ldbu	r2,-4(fp)
 c004338:	18800336 	bltu	r3,r2,c004348 <XferInTransfer+0x108>
 c00433c:	e0fffa0b 	ldhu	r3,-24(fp)
 c004340:	e0bffd0b 	ldhu	r2,-12(fp)
 c004344:	18bfda36 	bltu	r3,r2,c0042b0 <__alt_data_end+0xfc0042b0>
            if( MAXreg_rd( rHRSL ) & bmRCVTOGRD ) {                 //save toggle value
 c004348:	01003e04 	movi	r4,248
 c00434c:	c00385c0 	call	c00385c <MAXreg_rd>
 c004350:	10803fcc 	andi	r2,r2,255
 c004354:	1080040c 	andi	r2,r2,16
 c004358:	10000c26 	beq	r2,zero,c00438c <XferInTransfer+0x14c>
                devtable[ addr ].epinfo[ ep ].rcvToggle = bmRCVTOG1;
 c00435c:	e0fffb03 	ldbu	r3,-20(fp)
 c004360:	008300b4 	movhi	r2,3074
 c004364:	1097bc04 	addi	r2,r2,24304
 c004368:	180690fa 	slli	r3,r3,3
 c00436c:	10c5883a 	add	r2,r2,r3
 c004370:	10c00017 	ldw	r3,0(r2)
 c004374:	e0bffc03 	ldbu	r2,-16(fp)
 c004378:	100490fa 	slli	r2,r2,3
 c00437c:	1885883a 	add	r2,r3,r2
 c004380:	00c00804 	movi	r3,32
 c004384:	10c00185 	stb	r3,6(r2)
 c004388:	00000b06 	br	c0043b8 <XferInTransfer+0x178>
            }
            else {
                devtable[ addr ].epinfo[ ep ].rcvToggle = bmRCVTOG0;
 c00438c:	e0fffb03 	ldbu	r3,-20(fp)
 c004390:	008300b4 	movhi	r2,3074
 c004394:	1097bc04 	addi	r2,r2,24304
 c004398:	180690fa 	slli	r3,r3,3
 c00439c:	10c5883a 	add	r2,r2,r3
 c0043a0:	10c00017 	ldw	r3,0(r2)
 c0043a4:	e0bffc03 	ldbu	r2,-16(fp)
 c0043a8:	100490fa 	slli	r2,r2,3
 c0043ac:	1885883a 	add	r2,r3,r2
 c0043b0:	00c00404 	movi	r3,16
 c0043b4:	10c00185 	stb	r3,6(r2)
            }
            return( 0 );
 c0043b8:	0005883a 	mov	r2,zero
        }
  }//while( 1 )
}
 c0043bc:	e037883a 	mov	sp,fp
 c0043c0:	dfc00117 	ldw	ra,4(sp)
 c0043c4:	df000017 	ldw	fp,0(sp)
 c0043c8:	dec00204 	addi	sp,sp,8
 c0043cc:	f800283a 	ret

0c0043d0 <USB_init>:
/* initialization of USB data structures */
void USB_init( void )
{
 c0043d0:	defffe04 	addi	sp,sp,-8
 c0043d4:	df000115 	stw	fp,4(sp)
 c0043d8:	df000104 	addi	fp,sp,4
  BYTE i;
    for( i = 0; i < ( USB_NUMDEVICES + 1 ); i++ ) {
 c0043dc:	e03fff05 	stb	zero,-4(fp)
 c0043e0:	00001006 	br	c004424 <USB_init+0x54>
        devtable[ i ].epinfo = NULL;       //clear device table
 c0043e4:	e0ffff03 	ldbu	r3,-4(fp)
 c0043e8:	008300b4 	movhi	r2,3074
 c0043ec:	1097bc04 	addi	r2,r2,24304
 c0043f0:	180690fa 	slli	r3,r3,3
 c0043f4:	10c5883a 	add	r2,r2,r3
 c0043f8:	10000015 	stw	zero,0(r2)
        devtable[ i ].devclass = 0;
 c0043fc:	e0ffff03 	ldbu	r3,-4(fp)
 c004400:	008300b4 	movhi	r2,3074
 c004404:	1097bc04 	addi	r2,r2,24304
 c004408:	180690fa 	slli	r3,r3,3
 c00440c:	10c5883a 	add	r2,r2,r3
 c004410:	10800104 	addi	r2,r2,4
 c004414:	10000005 	stb	zero,0(r2)
}
/* initialization of USB data structures */
void USB_init( void )
{
  BYTE i;
    for( i = 0; i < ( USB_NUMDEVICES + 1 ); i++ ) {
 c004418:	e0bfff03 	ldbu	r2,-4(fp)
 c00441c:	10800044 	addi	r2,r2,1
 c004420:	e0bfff05 	stb	r2,-4(fp)
 c004424:	e0bfff03 	ldbu	r2,-4(fp)
 c004428:	10800270 	cmpltui	r2,r2,9
 c00442c:	103fed1e 	bne	r2,zero,c0043e4 <__alt_data_end+0xfc0043e4>
        devtable[ i ].epinfo = NULL;       //clear device table
        devtable[ i ].devclass = 0;
    }
    devtable[ 0 ].epinfo = &dev0ep;  //set single ep for uninitialized device
 c004430:	008300b4 	movhi	r2,3074
 c004434:	1097bc04 	addi	r2,r2,24304
 c004438:	d0e7a004 	addi	r3,gp,-24960
 c00443c:	10c00015 	stw	r3,0(r2)
    dev0ep.MaxPktSize = 0;
 c004440:	d027a08d 	sth	zero,-24958(gp)
    dev0ep.sndToggle = bmSNDTOG0;   //set DATA0/1 toggles to 0
 c004444:	00801004 	movi	r2,64
 c004448:	d0a7a145 	stb	r2,-24955(gp)
    dev0ep.rcvToggle = bmRCVTOG0;
 c00444c:	00800404 	movi	r2,16
 c004450:	d0a7a185 	stb	r2,-24954(gp)
}
 c004454:	0001883a 	nop
 c004458:	e037883a 	mov	sp,fp
 c00445c:	df000017 	ldw	fp,0(sp)
 c004460:	dec00104 	addi	sp,sp,4
 c004464:	f800283a 	ret

0c004468 <USB_Task>:
/* error codes: 01-0f HRSLT        */
/* ff - unsupported device         */
/* fe - no address available       */
/* fd - no client driver available */
void USB_Task( void )
{
 c004468:	deffb204 	addi	sp,sp,-312
 c00446c:	dfc04d15 	stw	ra,308(sp)
 c004470:	df004c15 	stw	fp,304(sp)
 c004474:	dc004b15 	stw	r16,300(sp)
 c004478:	df004c04 	addi	fp,sp,304
 USB_DEVICE_DESCRIPTOR buf;

 BYTE rcode, tmpdata;
 BYTE i;

    switch( usb_task_state & USB_STATE_MASK ) {
 c00447c:	d0a00703 	ldbu	r2,-32740(gp)
 c004480:	10803fcc 	andi	r2,r2,255
 c004484:	10803c0c 	andi	r2,r2,240
 c004488:	10c00820 	cmpeqi	r3,r2,32
 c00448c:	1801121e 	bne	r3,zero,c0048d8 <USB_Task+0x470>
 c004490:	10c00848 	cmpgei	r3,r2,33
 c004494:	1800041e 	bne	r3,zero,c0044a8 <USB_Task+0x40>
 c004498:	10000a26 	beq	r2,zero,c0044c4 <USB_Task+0x5c>
 c00449c:	10800420 	cmpeqi	r2,r2,16
 c0044a0:	10001b1e 	bne	r2,zero,c004510 <USB_Task+0xa8>
        case( USB_STATE_ERROR ):
            //vTaskDelay( LED_RATE ); //stay here if error
            break;//( USB_STATE_ERROR )
        default:
            //Should never get here
            break;
 c0044a4:	00017a06 	br	c004a90 <USB_Task+0x628>
 USB_DEVICE_DESCRIPTOR buf;

