
final_2.elf:     file format elf32-littlenios2
final_2.elf
architecture: nios2:r1, flags 0x00000112:
EXEC_P, HAS_SYMS, D_PAGED
start address 0x0c000230

Program Header:
    LOAD off    0x00001000 vaddr 0x0c000000 paddr 0x0c000000 align 2**12
         filesz 0x00000020 memsz 0x00000020 flags r-x
    LOAD off    0x00001020 vaddr 0x0c000020 paddr 0x0c000020 align 2**12
         filesz 0x0001e2ac memsz 0x0001e2ac flags r-x
    LOAD off    0x0001f2cc vaddr 0x0c01e2cc paddr 0x0c0200fc align 2**12
         filesz 0x00001e30 memsz 0x00001e30 flags rw-
    LOAD off    0x00021f2c vaddr 0x0c021f2c paddr 0x0c021f2c align 2**12
         filesz 0x00000000 memsz 0x00004dec flags rw-

Sections:
Idx Name          Size      VMA       LMA       File off  Algn
  0 .entry        00000020  0c000000  0c000000  00001000  2**5
                  CONTENTS, ALLOC, LOAD, READONLY, CODE
  1 .exceptions   00000210  0c000020  0c000020  00001020  2**2
                  CONTENTS, ALLOC, LOAD, READONLY, CODE
  2 .text         0001d590  0c000230  0c000230  00001230  2**2
                  CONTENTS, ALLOC, LOAD, READONLY, CODE
  3 .rodata       00000b0c  0c01d7c0  0c01d7c0  0001e7c0  2**2
                  CONTENTS, ALLOC, LOAD, READONLY, DATA
  4 .rwdata       00001e30  0c01e2cc  0c0200fc  0001f2cc  2**2
                  CONTENTS, ALLOC, LOAD, DATA, SMALL_DATA
  5 .bss          00004dec  0c021f2c  0c021f2c  00021f2c  2**2
                  ALLOC, SMALL_DATA
  6 .onchip_memory2_0 00000000  00000000  00000000  000210fc  2**0
                  CONTENTS
  7 .sdram        00000000  0c026d18  0c026d18  000210fc  2**0
                  CONTENTS
  8 .comment      00000023  00000000  00000000  000210fc  2**0
                  CONTENTS, READONLY
  9 .debug_aranges 00001478  00000000  00000000  00021120  2**3
                  CONTENTS, READONLY, DEBUGGING
 10 .debug_info   0003628f  00000000  00000000  00022598  2**0
                  CONTENTS, READONLY, DEBUGGING
 11 .debug_abbrev 0000d546  00000000  00000000  00058827  2**0
                  CONTENTS, READONLY, DEBUGGING
 12 .debug_line   00011a5f  00000000  00000000  00065d6d  2**0
                  CONTENTS, READONLY, DEBUGGING
 13 .debug_frame  000035a0  00000000  00000000  000777cc  2**2
                  CONTENTS, READONLY, DEBUGGING
 14 .debug_str    00005140  00000000  00000000  0007ad6c  2**0
                  CONTENTS, READONLY, DEBUGGING
 15 .debug_loc    0002502a  00000000  00000000  0007feac  2**0
                  CONTENTS, READONLY, DEBUGGING
 16 .debug_alt_sim_info 00000040  00000000  00000000  000a4ed8  2**2
                  CONTENTS, READONLY, DEBUGGING
 17 .debug_ranges 00002158  00000000  00000000  000a4f18  2**3
                  CONTENTS, READONLY, DEBUGGING
 18 .thread_model 00000003  00000000  00000000  000ab6f2  2**0
                  CONTENTS, READONLY
 19 .cpu          0000000c  00000000  00000000  000ab6f5  2**0
                  CONTENTS, READONLY
 20 .qsys         00000001  00000000  00000000  000ab701  2**0
                  CONTENTS, READONLY
 21 .simulation_enabled 00000001  00000000  00000000  000ab702  2**0
                  CONTENTS, READONLY
 22 .sysid_hash   00000004  00000000  00000000  000ab703  2**0
                  CONTENTS, READONLY
 23 .sysid_base   00000004  00000000  00000000  000ab707  2**0
                  CONTENTS, READONLY
 24 .sysid_time   00000004  00000000  00000000  000ab70b  2**0
                  CONTENTS, READONLY
 25 .stderr_dev   0000000b  00000000  00000000  000ab70f  2**0
                  CONTENTS, READONLY
 26 .stdin_dev    0000000b  00000000  00000000  000ab71a  2**0
                  CONTENTS, READONLY
 27 .stdout_dev   0000000b  00000000  00000000  000ab725  2**0
                  CONTENTS, READONLY
 28 .sopc_system_name 00000006  00000000  00000000  000ab730  2**0
                  CONTENTS, READONLY
 29 .quartus_project_dir 00000012  00000000  00000000  000ab736  2**0
                  CONTENTS, READONLY
 30 .jdi          00004d26  00000000  00000000  000ab748  2**0
                  CONTENTS, READONLY
 31 .sopcinfo     0008a4ea  00000000  00000000  000b046e  2**0
                  CONTENTS, READONLY
SYMBOL TABLE:
0c000000 l    d  .entry	00000000 .entry
0c000020 l    d  .exceptions	00000000 .exceptions
0c000230 l    d  .text	00000000 .text
0c01d7c0 l    d  .rodata	00000000 .rodata
0c01e2cc l    d  .rwdata	00000000 .rwdata
0c021f2c l    d  .bss	00000000 .bss
00000000 l    d  .onchip_memory2_0	00000000 .onchip_memory2_0
0c026d18 l    d  .sdram	00000000 .sdram
00000000 l    d  .comment	00000000 .comment
00000000 l    d  .debug_aranges	00000000 .debug_aranges
00000000 l    d  .debug_info	00000000 .debug_info
00000000 l    d  .debug_abbrev	00000000 .debug_abbrev
00000000 l    d  .debug_line	00000000 .debug_line
00000000 l    d  .debug_frame	00000000 .debug_frame
00000000 l    d  .debug_str	00000000 .debug_str
00000000 l    d  .debug_loc	00000000 .debug_loc
00000000 l    d  .debug_alt_sim_info	00000000 .debug_alt_sim_info
00000000 l    d  .debug_ranges	00000000 .debug_ranges
00000000 l    df *ABS*	00000000 ../final_2_bsp//obj/HAL/src/crt0.o
0c000268 l       .text	00000000 alt_after_alt_main
00000000 l    df *ABS*	00000000 alt_irq_handler.c
00000000 l    df *ABS*	00000000 alt_instruction_exception_entry.c
00000000 l    df *ABS*	00000000 USB_drive.c
0c02009c l     O .rwdata	00000001 addr
00000000 l    df *ABS*	00000000 main.c
0c0200a0 l     O .rwdata	00000004 vga_ctrl
0c01e2cc l     O .rwdata	00000170 colors
00000000 l    df *ABS*	00000000 text_mode_vga_color.c
0c0200a4 l     O .rwdata	00000004 vga_ctrl
0c01e43c l     O .rwdata	00000170 colors
00000000 l    df *ABS*	00000000 HID.c
00000000 l    df *ABS*	00000000 MAX3421E.c
00000000 l    df *ABS*	00000000 transfer.c
0c021f40 l     O .bss	00000004 usb_delay.2608
0c021f44 l     O .bss	00000001 tmp_addr.2609
00000000 l    df *ABS*	00000000 lib2-divmod.c
00000000 l    df *ABS*	00000000 lib2-mul.c
00000000 l    df *ABS*	00000000 malloc.c
00000000 l    df *ABS*	00000000 mallocr.c
00000000 l    df *ABS*	00000000 printf.c
00000000 l    df *ABS*	00000000 puts.c
00000000 l    df *ABS*	00000000 rand.c
00000000 l    df *ABS*	00000000 sbrkr.c
00000000 l    df *ABS*	00000000 scanf.c
00000000 l    df *ABS*	00000000 sprintf.c
00000000 l    df *ABS*	00000000 strlen.c
00000000 l    df *ABS*	00000000 vfprintf.c
0c01dbc6 l     O .rodata	00000010 zeroes.4389
0c01dbd6 l     O .rodata	00000010 blanks.4388
00000000 l    df *ABS*	00000000 vfprintf.c
0c01dbe6 l     O .rodata	00000010 zeroes.4404
0c009a90 l     F .text	000000bc __sbprintf
0c01dbf6 l     O .rodata	00000010 blanks.4403
00000000 l    df *ABS*	00000000 vfscanf.c
0c01dc0e l     O .rodata	00000022 basefix.4359
00000000 l    df *ABS*	00000000 wsetup.c
00000000 l    df *ABS*	00000000 ctype_.c
0c01dd31 l     O .rodata	00000180 _ctype_b
00000000 l    df *ABS*	00000000 dtoa.c
0c00b6fc l     F .text	00000228 quorem
00000000 l    df *ABS*	00000000 fflush.c
00000000 l    df *ABS*	00000000 findfp.c
0c00d254 l     F .text	00000008 __fp_unlock
0c00d268 l     F .text	0000019c __sinit.part.1
0c00d404 l     F .text	00000008 __fp_lock
00000000 l    df *ABS*	00000000 fread.c
00000000 l    df *ABS*	00000000 mallocr.c
00000000 l    df *ABS*	00000000 fvwrite.c
00000000 l    df *ABS*	00000000 fwalk.c
00000000 l    df *ABS*	00000000 impure.c
0c01e9e4 l     O .rwdata	00000424 impure_data
00000000 l    df *ABS*	00000000 int_errno.c
00000000 l    df *ABS*	00000000 iswspace.c
00000000 l    df *ABS*	00000000 locale.c
0c01ee28 l     O .rwdata	00000020 lc_ctype_charset
0c01ee08 l     O .rwdata	00000020 lc_message_charset
0c01ee48 l     O .rwdata	00000038 lconv
00000000 l    df *ABS*	00000000 makebuf.c
00000000 l    df *ABS*	00000000 mbrtowc.c
00000000 l    df *ABS*	00000000 mbtowc_r.c
00000000 l    df *ABS*	00000000 memchr.c
00000000 l    df *ABS*	00000000 memcpy.c
00000000 l    df *ABS*	00000000 memmove.c
00000000 l    df *ABS*	00000000 memset.c
00000000 l    df *ABS*	00000000 mprec.c
0c01ded4 l     O .rodata	0000000c p05.2768
00000000 l    df *ABS*	00000000 mallocr.c
00000000 l    df *ABS*	00000000 refill.c
0c0102b0 l     F .text	0000001c lflush
00000000 l    df *ABS*	00000000 s_fpclassify.c
00000000 l    df *ABS*	00000000 sccl.c
00000000 l    df *ABS*	00000000 sf_nan.c
00000000 l    df *ABS*	00000000 stdio.c
00000000 l    df *ABS*	00000000 strcmp.c
00000000 l    df *ABS*	00000000 strtod.c
0c010804 l     F .text	00000064 sulp
0c01e008 l     O .rodata	00000014 fpinan.2773
0c01e01c l     O .rodata	00000014 fpi.2737
0c01e030 l     O .rodata	00000028 tinytens
00000000 l    df *ABS*	00000000 strtol.c
00000000 l    df *ABS*	00000000 strtoll_r.c
00000000 l    df *ABS*	00000000 strtoul.c
00000000 l    df *ABS*	00000000 strtoull_r.c
00000000 l    df *ABS*	00000000 vfprintf.c
0c01e058 l     O .rodata	00000010 zeroes.4333
0c01e068 l     O .rodata	00000010 blanks.4332
00000000 l    df *ABS*	00000000 ungetc.c
00000000 l    df *ABS*	00000000 vfprintf.c
0c014280 l     F .text	000000fc __sprint_r.part.0
0c01e078 l     O .rodata	00000010 zeroes.4349
0c0158bc l     F .text	000000bc __sbprintf
0c01e088 l     O .rodata	00000010 blanks.4348
00000000 l    df *ABS*	00000000 writer.c
00000000 l    df *ABS*	00000000 closer.c
00000000 l    df *ABS*	00000000 mallocr.c
00000000 l    df *ABS*	00000000 fclose.c
00000000 l    df *ABS*	00000000 fputwc.c
00000000 l    df *ABS*	00000000 fstatr.c
00000000 l    df *ABS*	00000000 gdtoa-gethex.c
0c015e70 l     F .text	00000100 rshift
00000000 l    df *ABS*	00000000 gdtoa-hexnan.c
00000000 l    df *ABS*	00000000 isattyr.c
00000000 l    df *ABS*	00000000 lseekr.c
00000000 l    df *ABS*	00000000 readr.c
00000000 l    df *ABS*	00000000 strncmp.c
00000000 l    df *ABS*	00000000 wbuf.c
00000000 l    df *ABS*	00000000 wcrtomb.c
00000000 l    df *ABS*	00000000 wctomb_r.c
00000000 l    df *ABS*	00000000 libgcc2.c
00000000 l    df *ABS*	00000000 libgcc2.c
00000000 l    df *ABS*	00000000 libgcc2.c
00000000 l    df *ABS*	00000000 libgcc2.c
00000000 l    df *ABS*	00000000 eqsf2.c
00000000 l    df *ABS*	00000000 gesf2.c
00000000 l    df *ABS*	00000000 lesf2.c
00000000 l    df *ABS*	00000000 adddf3.c
00000000 l    df *ABS*	00000000 divdf3.c
00000000 l    df *ABS*	00000000 eqdf2.c
00000000 l    df *ABS*	00000000 gedf2.c
00000000 l    df *ABS*	00000000 ledf2.c
00000000 l    df *ABS*	00000000 muldf3.c
00000000 l    df *ABS*	00000000 subdf3.c
00000000 l    df *ABS*	00000000 fixdfsi.c
00000000 l    df *ABS*	00000000 floatsidf.c
00000000 l    df *ABS*	00000000 floatunsidf.c
00000000 l    df *ABS*	00000000 truncdfsf2.c
00000000 l    df *ABS*	00000000 libgcc2.c
00000000 l    df *ABS*	00000000 libgcc2.c
00000000 l    df *ABS*	00000000 alt_close.c
0c01a8c8 l     F .text	0000003c alt_get_errno
00000000 l    df *ABS*	00000000 alt_dev.c
0c01a9dc l     F .text	0000002c alt_dev_null_write
00000000 l    df *ABS*	00000000 alt_errno.c
00000000 l    df *ABS*	00000000 alt_fstat.c
0c01aa08 l     F .text	0000003c alt_get_errno
00000000 l    df *ABS*	00000000 alt_isatty.c
0c01aafc l     F .text	0000003c alt_get_errno
00000000 l    df *ABS*	00000000 alt_load.c
0c01abe4 l     F .text	00000068 alt_load_section
00000000 l    df *ABS*	00000000 alt_lseek.c
0c01acd0 l     F .text	0000003c alt_get_errno
00000000 l    df *ABS*	00000000 alt_main.c
00000000 l    df *ABS*	00000000 alt_malloc_lock.c
00000000 l    df *ABS*	00000000 alt_printf.c
00000000 l    df *ABS*	00000000 alt_putchar.c
00000000 l    df *ABS*	00000000 alt_read.c
0c01b114 l     F .text	0000003c alt_get_errno
00000000 l    df *ABS*	00000000 alt_release_fd.c
00000000 l    df *ABS*	00000000 alt_sbrk.c
0c0200ec l     O .rwdata	00000004 heap_end
00000000 l    df *ABS*	00000000 alt_tick.c
00000000 l    df *ABS*	00000000 alt_usleep.c
00000000 l    df *ABS*	00000000 alt_write.c
0c01b55c l     F .text	0000003c alt_get_errno
00000000 l    df *ABS*	00000000 alt_sys_init.c
0c01b698 l     F .text	00000034 alt_dev_reg
0c01f028 l     O .rwdata	00001060 jtag_uart_0
00000000 l    df *ABS*	00000000 altera_avalon_jtag_uart_fd.c
00000000 l    df *ABS*	00000000 altera_avalon_jtag_uart_init.c
0c01b98c l     F .text	0000020c altera_avalon_jtag_uart_irq
0c01bb98 l     F .text	000000a0 altera_avalon_jtag_uart_timeout
00000000 l    df *ABS*	00000000 altera_avalon_jtag_uart_ioctl.c
00000000 l    df *ABS*	00000000 altera_avalon_jtag_uart_read.c
00000000 l    df *ABS*	00000000 altera_avalon_jtag_uart_write.c
00000000 l    df *ABS*	00000000 altera_avalon_spi.c
00000000 l    df *ABS*	00000000 altera_avalon_timer_sc.c
0c01c3cc l     F .text	00000078 alt_avalon_timer_sc_irq
00000000 l    df *ABS*	00000000 alt_alarm_start.c
00000000 l    df *ABS*	00000000 alt_busy_sleep.c
00000000 l    df *ABS*	00000000 alt_dcache_flush_all.c
00000000 l    df *ABS*	00000000 alt_dev_llist_insert.c
0c01c764 l     F .text	0000003c alt_get_errno
00000000 l    df *ABS*	00000000 alt_do_ctors.c
00000000 l    df *ABS*	00000000 alt_do_dtors.c
00000000 l    df *ABS*	00000000 alt_icache_flush_all.c
00000000 l    df *ABS*	00000000 alt_iic.c
00000000 l    df *ABS*	00000000 alt_iic_isr_register.c
00000000 l    df *ABS*	00000000 alt_io_redirect.c
0c01cbc4 l     F .text	000000e4 alt_open_fd
00000000 l    df *ABS*	00000000 alt_irq_vars.c
00000000 l    df *ABS*	00000000 alt_open.c
0c01cd24 l     F .text	0000003c alt_get_errno
0c01cd60 l     F .text	000000ec alt_file_locked
00000000 l    df *ABS*	00000000 altera_nios2_gen2_irq.c
00000000 l    df *ABS*	00000000 alt_find_dev.c
00000000 l    df *ABS*	00000000 alt_find_file.c
00000000 l    df *ABS*	00000000 alt_get_fd.c
00000000 l    df *ABS*	00000000 atexit.c
00000000 l    df *ABS*	00000000 exit.c
00000000 l    df *ABS*	00000000 memcmp.c
00000000 l    df *ABS*	00000000 putc.c
00000000 l    df *ABS*	00000000 __atexit.c
00000000 l    df *ABS*	00000000 __call_atexit.c
00000000 l    df *ABS*	00000000 alt_exit.c
0c021f7c g     O .bss	00000004 alt_instruction_exception_handler
0c00fbd4 g     F .text	00000074 _mprec_log10
0c00fcc0 g     F .text	0000008c __any_on
0c016a1c g     F .text	00000054 _isatty_r
0c01dee0 g     O .rodata	00000028 __mprec_tinytens
0c01ade8 g     F .text	0000007c alt_main
0c0200a8 g     O .rwdata	00000008 ctrl_xfers
0c005170 g     F .text	000000c0 _puts_r
0c026c18 g     O .bss	00000100 alt_irq
0c016a70 g     F .text	00000060 _lseek_r
0c003ea8 g     F .text	00000644 USB_Task
0c0010a0 g     F .text	0000010c TetrisMain
0c0200fc g       *ABS*	00000000 __flash_rwdata_start
0c0190f8 g     F .text	00000088 .hidden __eqdf2
0c026d18 g       *ABS*	00000000 __alt_heap_start
0c005134 g     F .text	0000003c printf
0c016d58 g     F .text	0000009c _wcrtomb_r
0c002f58 g     F .text	00000088 kbdPoll
0c0106c4 g     F .text	0000005c __sseek
0c00d5b4 g     F .text	00000010 __sinit
0c016c00 g     F .text	00000140 __swbuf_r
0c00e328 g     F .text	0000007c _setlocale_r
0c00d40c g     F .text	00000078 __sfmoreglue
0c014268 g     F .text	00000018 ungetc
0c01ae88 g     F .text	00000024 __malloc_unlock
0c0022a8 g     F .text	000002b4 textVGAColorScreenSaver
0c01d7c0 g     O .rodata	00000118 tetrisBlocks
0c000e98 g     F .text	00000148 TetrisCheckLineComplete
0c001498 g     F .text	000001f0 GetDriverandReport
0c010868 g     F .text	000015e4 _strtod_r
0c001998 g     F .text	000004a0 keyInput
0c00041c g     F .text	000001b8 TetrisCheckCollision
0c00ea10 g     F .text	0000015c memmove
0c00d59c g     F .text	00000018 _cleanup
0c021fd0 g     O .bss	00004b00 colorValues
0c00ec94 g     F .text	000000a8 _Balloc
0c0030ac g     F .text	00000088 MAXreg_wr
0c01e5ac g     O .rwdata	00000030 ClientDriverTable
0c019180 g     F .text	000000dc .hidden __gtdf2
0c01cfa8 g     F .text	00000024 altera_nios2_gen2_irq_init
0c0044ec g     F .text	0000002c MSDProbe
0c000000 g     F .entry	0000000c __reset
0c0039a8 g     F .text	000000e8 XferCtrlData
0c020090 g     O .rwdata	00000004 nextColor
0c0025c8 g     F .text	000000b8 VGAwriteText
0c000020 g       *ABS*	00000000 __flash_exceptions_start
0c021f80 g     O .bss	00000010 hid_ep
0c015e14 g     F .text	0000005c _fstat_r
0c021f54 g     O .bss	00000004 errno
0c00b540 g     F .text	0000001c __svfscanf
0c010640 g     F .text	00000008 __seofread
0c000398 g     F .text	00000084 TetrisCleanup
0c012c60 g     F .text	000013a0 ___svfiprintf_internal_r
0c021f68 g     O .bss	00000004 alt_argv
0c028088 g       *ABS*	00000000 _gp
0c01b52c g     F .text	00000030 usleep
0c00329c g     F .text	00000074 MAXreg_rd
0c001f20 g     F .text	00000050 textVGAColorClr
0c020088 g     O .rwdata	00000004 boardColor
0c01eea8 g     O .rwdata	00000180 alt_fd_list
0c002e90 g     F .text	00000040 HID_init
0c0008fc g     F .text	00000148 TetrisPrintBlock
0c01cfcc g     F .text	00000090 alt_find_dev
0c00e8c8 g     F .text	00000148 memcpy
0c0167c0 g     F .text	0000025c __hexnan
0c02008c g     O .rwdata	00000004 nextBlock
0c00d25c g     F .text	0000000c _cleanup_r
0c01a538 g     F .text	000000dc .hidden __floatsidf
0c01cca8 g     F .text	0000007c alt_io_redirect
0c01925c g     F .text	000000f4 .hidden __ltdf2
0c01d7c0 g       *ABS*	00000000 __DTOR_END__
0c005230 g     F .text	00000014 puts
0c01d228 g     F .text	0000009c alt_exception_cause_generated_bad_addr
0c00e66c g     F .text	000000d8 mbrtowc
0c0104a0 g     F .text	00000074 __fpclassifyd
0c00b55c g     F .text	0000004c _vfscanf_r
0c00fb30 g     F .text	000000a4 __ratio
0c0158a0 g     F .text	0000001c __vfiprintf_internal
0c01bd90 g     F .text	0000021c altera_avalon_jtag_uart_read
0c0048d0 g     F .text	00000014 malloc
0c005104 g     F .text	00000030 _printf_r
00000000 g       *ABS*	00000000 __alt_mem_onchip_memory2_0
0c0047ec g     F .text	00000064 .hidden __udivsi3
0c01ab38 g     F .text	000000ac isatty
0c00e2f8 g     F .text	00000030 iswspace
0c01df30 g     O .rodata	000000c8 __mprec_tens
0c00e3a4 g     F .text	0000000c __locale_charset
0c017db4 g     F .text	000000c8 .hidden __lesf2
0c01704c g     F .text	00000074 .hidden __fixunsdfsi
0c021f50 g     O .bss	00000004 __malloc_top_pad
0c000fe0 g     F .text	00000060 TetrisInputLeft
0c012754 g     F .text	0000001c strtoul
0c0200b0 g     O .rwdata	00000001 usb_task_state
0c0200c8 g     O .rwdata	00000004 __mb_cur_max
0c00e3d4 g     F .text	0000000c _localeconv_r
0c012770 g     F .text	00000320 _strtoull_r
0c00f0c8 g     F .text	0000003c __i2b
0c00dca8 g     F .text	000004c8 __sfvwrite_r
0c0052c0 g     F .text	00000054 _sbrk_r
0c016ad0 g     F .text	00000060 _read_r
0c003664 g     F .text	00000094 MAX3421E_init
0c001964 g     F .text	00000034 setKeycode
0c0200e4 g     O .rwdata	00000004 alt_max_fd
0c015b08 g     F .text	000000f0 _fclose_r
0c00d224 g     F .text	00000030 fflush
0c021f4c g     O .bss	00000004 __malloc_max_sbrked_mem
0c017e7c g     F .text	000008ac .hidden __adddf3
0c017c80 g     F .text	00000078 .hidden __nesf2
0c00f8d8 g     F .text	0000010c __b2d
0c0176bc g     F .text	000005c4 .hidden __umoddi3
0c01ad0c g     F .text	000000dc lseek
0c0200c0 g     O .rwdata	00000004 _global_impure_ptr
0c00fd4c g     F .text	00000564 _realloc_r
0c026d18 g       *ABS*	00000000 __bss_end
0c01cad4 g     F .text	000000f0 alt_iic_isr_register
0c01b424 g     F .text	00000108 alt_tick
0c01e098 g     O .rodata	00000100 __hexdig
0c0170c0 g     F .text	000005fc .hidden __udivdi3
0c015d70 g     F .text	00000024 _fputwc_r
0c01df08 g     O .rodata	00000028 __mprec_bigtens
0c00eeac g     F .text	00000104 __s2b
0c01a614 g     F .text	000000a8 .hidden __floatunsidf
0c00f618 g     F .text	00000060 __mcmp
0c00d5d4 g     F .text	00000018 __fp_lock_all
0c01ca88 g     F .text	0000004c alt_ic_irq_enabled
0c01b388 g     F .text	0000009c alt_alarm_stop
0c0121bc g     F .text	0000001c strtol
0c021f78 g     O .bss	00000004 alt_irq_active
0c0045b4 g     F .text	0000002c DummyProbe
0c0000fc g     F .exceptions	000000d4 alt_irq_handler
0c000d74 g     F .text	00000124 TetrisClearLine
0c01ee80 g     O .rwdata	00000028 alt_dev_null
0c002ed0 g     F .text	00000088 mousePoll
0c0034b8 g     F .text	00000024 Vbus_power
0c01c744 g     F .text	00000020 alt_dcache_flush_all
0c00efb0 g     F .text	00000068 __hi0bits
0c01a4b8 g     F .text	00000080 .hidden __fixdfsi
0c011e4c g     F .text	00000018 strtod
0c0200fc g       *ABS*	00000000 __ram_rwdata_end
0c0200dc g     O .rwdata	00000008 alt_dev_list
0c021f2c g     O .bss	00000004 score
0c01b598 g     F .text	00000100 write
0c01d38c g     F .text	000000a0 _putc_r
0c017cf8 g     F .text	000000bc .hidden __gtsf2
0c01e2cc g       *ABS*	00000000 __ram_rodata_end
0c021f45 g     O .bss	00000001 usb_error
0c01aa44 g     F .text	000000b8 fstat
0c01925c g     F .text	000000f4 .hidden __ledf2
0c00f390 g     F .text	00000140 __pow5mult
0c014394 g     F .text	0000150c ___vfiprintf_internal_r
0c021f60 g     O .bss	00000004 __nlocale_changed
0c004850 g     F .text	00000058 .hidden __umodsi3
0c00026c g     F .text	0000012c TetrisInitialize
0c005350 g     F .text	00000030 _scanf_r
0c026d18 g       *ABS*	00000000 end
0c01b8cc g     F .text	000000c0 altera_avalon_jtag_uart_init
0c0001d0 g     F .exceptions	00000060 alt_instruction_exception_entry
0c003b04 g     F .text	0000017c XferDispatchPkt
0c01d7c0 g       *ABS*	00000000 __CTOR_LIST__
10000000 g       *ABS*	00000000 __alt_stack_pointer
0c01c444 g     F .text	0000007c alt_avalon_timer_sc_init
0c01a864 g     F .text	00000064 .hidden __clzsi2
0c01bfac g     F .text	00000224 altera_avalon_jtag_uart_write
0c00d5c4 g     F .text	00000004 __sfp_lock_acquire
0c00e7e4 g     F .text	000000e4 memchr
0c007798 g     F .text	000022dc ___vfprintf_internal_r
0c003828 g     F .text	00000034 MaxGpxHandler
0c005380 g     F .text	00000058 _sprintf_r
0c00d998 g     F .text	00000310 _free_r
0c01aeac g     F .text	0000022c alt_printf
0c00e3b0 g     F .text	00000010 __locale_mb_cur_max
0c01d60c g     F .text	00000180 __call_exitprocs
0c021f5c g     O .bss	00000004 __mlocale_changed
0c0200b4 g     O .rwdata	00000004 __malloc_sbrk_base
0c000230 g     F .text	0000003c _start
0c020098 g     O .rwdata	00000004 level
0c021f70 g     O .bss	00000004 _alt_tick_rate
0c003310 g     F .text	00000108 MAXbytes_rd
0c0121d8 g     F .text	00000304 _strtoll_r
0c00525c g     F .text	00000064 rand
0c00f4d0 g     F .text	00000148 __lshift
0c01c1d0 g     F .text	000001fc alt_avalon_spi_command
0c021f74 g     O .bss	00000004 _alt_nticks
0c01b150 g     F .text	00000104 read
0c01b704 g     F .text	00000064 alt_sys_init
0c012a90 g     F .text	000001d0 __ssprint_r
0c026bd0 g     O .bss	00000048 devtable
0c01d4f4 g     F .text	00000118 __register_exitproc
0c002a88 g     F .text	00000408 HIDKProbe
0c021f90 g     O .bss	00000018 msd_ep
0c001040 g     F .text	00000060 TetrisInputRight
0c016b30 g     F .text	000000d0 strncmp
0c00f104 g     F .text	0000028c __multiply
0c01bc38 g     F .text	00000068 altera_avalon_jtag_uart_close
0c003e10 g     F .text	00000098 USB_init
0c026ad0 g     O .bss	00000100 bigbuf
0c0048a8 g     F .text	00000028 .hidden __mulsi3
0c01e2cc g       *ABS*	00000000 __ram_rwdata_start
0c01d7c0 g       *ABS*	00000000 __ram_rodata_start
0c021fa8 g     O .bss	00000028 __malloc_current_mallinfo
0c017c80 g     F .text	00000078 .hidden __eqsf2
0c021f3c g     O .bss	00000001 last_usb_task_state
0c00f9e4 g     F .text	0000014c __d2b
0c021f34 g     O .bss	00000008 dev0ep
0c0016cc g     F .text	00000048 clearLED
0c01b768 g     F .text	00000060 altera_avalon_jtag_uart_read_fd
0c0124dc g     F .text	00000278 _strtoul_r
0c01d164 g     F .text	000000c4 alt_get_fd
0c01c5ec g     F .text	00000158 alt_busy_sleep
0c004518 g     F .text	00000038 MSDEventHandler
0c0159d8 g     F .text	00000054 _close_r
0c01d310 g     F .text	0000007c memcmp
0c01b828 g     F .text	00000050 altera_avalon_jtag_uart_close_fd
0c026d18 g       *ABS*	00000000 __alt_stack_base
0c01b878 g     F .text	00000054 altera_avalon_jtag_uart_ioctl_fd
0c00b5a8 g     F .text	00000154 __swsetup_r
0c018728 g     F .text	000009d0 .hidden __divdf3
0c00d484 g     F .text	00000118 __sfp
0c00fc48 g     F .text	00000078 __copybits
0c01e5dc g     O .rwdata	00000408 __malloc_av_
0c00d5d0 g     F .text	00000004 __sinit_lock_release
0c00457c g     F .text	00000038 CDCEventHandler
0c019350 g     F .text	0000086c .hidden __muldf3
0c0045e0 g     F .text	00000038 DummyEventHandler
0c0105ec g     F .text	00000054 __sread
0c00d840 g     F .text	00000034 fread
0c01d05c g     F .text	00000108 alt_find_file
0c01c7a0 g     F .text	000000a4 alt_dev_llist_insert
0c01ae64 g     F .text	00000024 __malloc_lock
0c01b2d8 g     F .text	000000b0 sbrk
0c0054dc g     F .text	000022bc ___svfprintf_internal_r
0c00d1c8 g     F .text	0000005c _fflush_r
0c015a2c g     F .text	000000dc _calloc_r
0c021f2c g       *ABS*	00000000 __bss_start
0c0034dc g     F .text	00000188 MAX_busprobe
0c021f30 g     O .bss	00000002 hid_device
0c00eb6c g     F .text	00000128 memset
0c001e38 g     F .text	000000e8 main
0c0036f8 g     F .text	00000064 MAX3421E_Task
0c021f6c g     O .bss	00000004 alt_envp
0c021f48 g     O .bss	00000004 __malloc_max_total_mem
0c01b7c8 g     F .text	00000060 altera_avalon_jtag_uart_write_fd
0c016d40 g     F .text	00000018 __swbuf
0c005244 g     F .text	00000018 srand
0c004670 g     F .text	00000084 ConvUTF8ToStr
0c017db4 g     F .text	000000c8 .hidden __ltsf2
0c00d604 g     F .text	0000023c _fread_r
0c000a44 g     F .text	000002c0 TetrisRotateBlock
0c0005d4 g     F .text	00000328 TetrisCreateBlock
0c010720 g     F .text	00000008 __sclose
10000000 g       *ABS*	00000000 __alt_heap_limit
0c0021a8 g     F .text	00000100 screenVGAinitializer
0c015bf8 g     F .text	00000014 fclose
0c00255c g     F .text	0000006c VGADrawColorBox
0c011f64 g     F .text	00000258 _strtol_r
0c01a6bc g     F .text	000001a8 .hidden __truncdfsf2
0c00b924 g     F .text	00001688 _dtoa_r
0c0048f8 g     F .text	0000080c _malloc_r
0c016eb4 g     F .text	00000030 __ascii_wctomb
0c0200e8 g     O .rwdata	00000004 alt_errno
0c014000 g     F .text	000000d4 __submore
0c00e170 g     F .text	000000c4 _fwalk
0c00e788 g     F .text	0000005c _mbtowc_r
0c01d42c g     F .text	000000c8 putc
0c0046f4 g     F .text	00000084 .hidden __divsi3
0c003c80 g     F .text	00000190 XferInTransfer
0c002080 g     F .text	00000128 setColorPalette
0c00182c g     F .text	00000138 printSignedHex1
0c00d874 g     F .text	00000124 _malloc_trim_r
0c01d7c0 g       *ABS*	00000000 __CTOR_END__
0c0011ac g     F .text	00000238 TetrisPrintBoard
0c004638 g     F .text	00000038 GetDevtable
0c010728 g     F .text	000000dc strcmp
0c01d7c0 g       *ABS*	00000000 __flash_rodata_start
0c01d7c0 g       *ABS*	00000000 __DTOR_LIST__
0c003a90 g     F .text	00000074 XferCtrlND
0c0190f8 g     F .text	00000088 .hidden __nedf2
0c003418 g     F .text	000000a0 MAX3421E_reset
0c01b6cc g     F .text	00000038 alt_irq_init
0c01b254 g     F .text	00000084 alt_release_fd
0c0053d8 g     F .text	0000006c sprintf
0c01e198 g     O .rodata	00000100 .hidden __clz_tab
0c021f58 g     O .bss	00000004 _PathLocale
0c011e64 g     F .text	00000100 strtof
0c01d2c4 g     F .text	00000014 atexit
0c017cf8 g     F .text	000000bc .hidden __gesf2
0c015978 g     F .text	00000060 _write_r
0c00e3e0 g     F .text	00000018 setlocale
0c005314 g     F .text	0000003c scanf
0c000d04 g     F .text	00000070 TetrisFallBlocks
0c0105e4 g     F .text	00000008 nanf
0c0200c4 g     O .rwdata	00000004 _impure_ptr
0c021f64 g     O .bss	00000004 alt_argc
0c00cfac g     F .text	0000021c __sflush_r
0c00e5c0 g     F .text	000000ac _mbrtowc_r
0c01c8a4 g     F .text	00000060 _do_dtors
0c00e3cc g     F .text	00000008 __locale_cjk_lang
0c003134 g     F .text	00000168 MAXbytes_wr
0c0102cc g     F .text	000001d4 __srefill_r
0c000020 g       .exceptions	00000000 alt_irq_entry
0c00e744 g     F .text	00000044 __ascii_mbtowc
0c00f874 g     F .text	00000064 __ulp
0c00d5ec g     F .text	00000018 __fp_unlock_all
0c0200d4 g     O .rwdata	00000008 alt_fs_list
0c004550 g     F .text	0000002c CDCProbe
0c000020 g       *ABS*	00000000 __ram_exceptions_start
0c00e3f8 g     F .text	0000000c localeconv
0c001688 g     F .text	00000044 setLED
0c004618 g     F .text	00000020 GetUsbTaskState
0c0013e4 g     F .text	000000b4 paintScreen
0c01c924 g     F .text	00000050 alt_ic_isr_register
0c01d964 g     O .rodata	00000010 devclasses
0c0200fc g       *ABS*	00000000 _edata
0c003018 g     F .text	00000038 HIDKEventHandler
0c026d18 g       *ABS*	00000000 _end
0c00375c g     F .text	000000cc MaxIntHandler
0c015c0c g     F .text	00000164 __fputwc
0c000230 g       *ABS*	00000000 __ram_exceptions_end
0c00b4d8 g     F .text	00000068 vfscanf
0c01bca0 g     F .text	000000f0 altera_avalon_jtag_uart_ioctl
0c001f70 g     F .text	00000110 textVGADrawColorText
0c003050 g     F .text	00000034 SPI_init
0c01c9fc g     F .text	0000008c alt_ic_irq_disable
0c020094 g     O .rwdata	00000004 tetrisBlockCount
0c010648 g     F .text	0000007c __swrite
0c0200b8 g     O .rwdata	00000004 __malloc_trim_threshold
0c00e3c0 g     F .text	0000000c __locale_msgcharset
0c01d2d8 g     F .text	00000038 exit
0c00e234 g     F .text	000000c4 _fwalk_reent
0c00f678 g     F .text	000001fc __mdiff
0c004778 g     F .text	00000074 .hidden __modsi3
0c0200bc g     O .rwdata	00000004 __ctype_ptr__
10000000 g       *ABS*	00000000 __alt_data_end
0c000020 g     F .exceptions	00000000 alt_exception
0c00d5c8 g     F .text	00000004 __sfp_lock_release
0c000000 g       *ABS*	00000000 __alt_mem_sdram
0c010514 g     F .text	000000d0 __sccl
0c01dc30 g     O .rodata	00000101 _ctype_
0c0200cc g     O .rwdata	00000004 __mbtowc
0c002fe0 g     F .text	00000038 HIDMEventHandler
0c01d78c g     F .text	00000034 _exit
0c01c4c0 g     F .text	0000012c alt_alarm_start
0c001714 g     F .text	00000118 printSignedHex0
0c016f40 g     F .text	0000010c .hidden __muldi3
0c00e404 g     F .text	000001bc __smakebuf_r
0c005444 g     F .text	00000098 strlen
0c01ce4c g     F .text	0000015c open
0c019180 g     F .text	000000dc .hidden __gedf2
0c01b0d8 g     F .text	0000003c alt_putchar
0c015f70 g     F .text	00000850 __gethex
0c0200d0 g     O .rwdata	00000004 __wctomb
0c01437c g     F .text	00000018 __sprint_r
0c01c904 g     F .text	00000020 alt_icache_flush_all
0c0200f8 g     O .rwdata	00000004 alt_priority_mask
0c01c974 g     F .text	00000088 alt_ic_irq_enable
0c009a74 g     F .text	0000001c __vfprintf_internal
0c002680 g     F .text	00000408 HIDMProbe
0c016ee4 g     F .text	0000005c _wctomb_r
0c003084 g     F .text	00000028 SPI_wr
0c019bbc g     F .text	000008fc .hidden __subdf3
0c00f018 g     F .text	000000b0 __lo0bits
0c009b4c g     F .text	0000198c __svfscanf_r
0c0200f0 g     O .rwdata	00000008 alt_alarm_list
0c0140d4 g     F .text	00000194 _ungetc_r
0c01c844 g     F .text	00000060 _do_ctors
0c016df4 g     F .text	000000c0 wcrtomb
0c01a904 g     F .text	000000d8 close
0c01ac4c g     F .text	00000084 alt_load
0c015d94 g     F .text	00000080 fputwc
0c0048e4 g     F .text	00000014 free
0c00d5cc g     F .text	00000004 __sinit_lock_acquire
0c00385c g     F .text	0000014c XferCtrlReq
0c00ed64 g     F .text	00000148 __multadd
0c00ed3c g     F .text	00000028 _Bfree



Disassembly of section .entry:

0c000000 <__reset>:
 * Jump to the _start entry point in the .text section if reset code
 * is allowed or if optimizing for RTL simulation.
 */
#if defined(ALT_ALLOW_CODE_AT_RESET) || defined(ALT_SIM_OPTIMIZE)
    /* Jump to the _start entry point in the .text section. */
    movhi r1, %hi(_start)
 c000000:	00430034 	movhi	at,3072
    ori r1, r1, %lo(_start)
 c000004:	08408c14 	ori	at,at,560
    jmp r1
 c000008:	0800683a 	jmp	at
	...

Disassembly of section .exceptions:

0c000020 <alt_exception>:

#else /* ALT_EXCEPTION_STACK disabled */
        /* 
         * Reserve space on normal stack for registers about to be pushed.
         */
        addi  sp, sp, -76
 c000020:	deffed04 	addi	sp,sp,-76
         * documentation for details).
         *
         * Leave a gap in the stack frame at 4(sp) for the muldiv handler to
         * store zero into.
         */
        stw   ra,  0(sp)
 c000024:	dfc00015 	stw	ra,0(sp)
        stw   r1,   8(sp)
 c000028:	d8400215 	stw	at,8(sp)
        stw   r2,  12(sp)
 c00002c:	d8800315 	stw	r2,12(sp)
        stw   r3,  16(sp)
 c000030:	d8c00415 	stw	r3,16(sp)
        stw   r4,  20(sp)
 c000034:	d9000515 	stw	r4,20(sp)
        stw   r5,  24(sp)
 c000038:	d9400615 	stw	r5,24(sp)
        stw   r6,  28(sp)
 c00003c:	d9800715 	stw	r6,28(sp)
        stw   r7,  32(sp)
 c000040:	d9c00815 	stw	r7,32(sp)
        rdctl r5, estatus   /* Read early to avoid usage stall */
 c000044:	000b307a 	rdctl	r5,estatus
        stw   r8,  36(sp)
 c000048:	da000915 	stw	r8,36(sp)
        stw   r9,  40(sp)
 c00004c:	da400a15 	stw	r9,40(sp)
        stw   r10, 44(sp)
 c000050:	da800b15 	stw	r10,44(sp)
        stw   r11, 48(sp)
 c000054:	dac00c15 	stw	r11,48(sp)
        stw   r12, 52(sp)
 c000058:	db000d15 	stw	r12,52(sp)
        stw   r13, 56(sp)
 c00005c:	db400e15 	stw	r13,56(sp)
        stw   r14, 60(sp)
 c000060:	db800f15 	stw	r14,60(sp)
        stw   r15, 64(sp)
 c000064:	dbc01015 	stw	r15,64(sp)
        /*
         * ea-4 contains the address of the instruction being executed
         * when the exception occured. For interrupt exceptions, we will
         * will be re-issue the isntruction. Store it in 72(sp)
         */
        stw   r5,  68(sp)  /* estatus */
 c000068:	d9401115 	stw	r5,68(sp)
        addi  r15, ea, -4  /* instruction that caused exception */
 c00006c:	ebffff04 	addi	r15,ea,-4
        stw   r15,  72(sp)
 c000070:	dbc01215 	stw	r15,72(sp)
#else
        /*
         * Test to see if the exception was a software exception or caused 
         * by an external interrupt, and vector accordingly.
         */
        rdctl r4, ipending
 c000074:	0009313a 	rdctl	r4,ipending
        andi  r2, r5, 1
 c000078:	2880004c 	andi	r2,r5,1
        beq   r2, zero, .Lnot_irq
 c00007c:	10000326 	beq	r2,zero,c00008c <alt_exception+0x6c>
        beq   r4, zero, .Lnot_irq
 c000080:	20000226 	beq	r4,zero,c00008c <alt_exception+0x6c>
        /*
         * Now that all necessary registers have been preserved, call 
         * alt_irq_handler() to process the interrupts.
         */

        call alt_irq_handler
 c000084:	c0000fc0 	call	c0000fc <alt_irq_handler>

        .section .exceptions.irqreturn, "xa"

        br    .Lexception_exit
 c000088:	00000706 	br	c0000a8 <alt_exception+0x88>
         * upon completion, so we write ea (address of instruction *after*
         * the one where the exception occured) into 72(sp). The actual
         * instruction that caused the exception is written in r2, which these
         * handlers will utilize.
         */
        stw ea, 72(sp) /* EA is PC+4 so will skip over instruction causing exception */
 c00008c:	df401215 	stw	ea,72(sp)
.Lunknown_16bit:
        addi.n r4, r4, 2 /* Need PC+2 to skip over instruction causing exception */
        stw r4, 72(sp)

#else /* CDX is not Enabled and all instructions are 32bits */
        ldw r2, -4(ea) /* Instruction value that caused exception */
 c000090:	e8bfff17 	ldw	r2,-4(ea)
         * debugger is present) or go into an infinite loop since the
         * handling behavior is undefined; in that case we will not return here.
         */

        /* Load exception-causing address as first argument (r4) */
        addi   r4, ea, -4
 c000094:	e93fff04 	addi	r4,ea,-4

        /* Call the instruction-exception entry */
        call   alt_instruction_exception_entry
 c000098:	c0001d00 	call	c0001d0 <alt_instruction_exception_entry>
         * instruction
         *
         * Return code was 0: Skip. The instruction after the exception is
         * already stored in 72(sp).
         */
        bne   r2, r0, .Lexception_exit
 c00009c:	1000021e 	bne	r2,zero,c0000a8 <alt_exception+0x88>

        /*
         * Otherwise, modify 72(sp) to re-issue the instruction that caused the
         * exception.
         */
        addi  r15, ea, -4  /* instruction that caused exception */
 c0000a0:	ebffff04 	addi	r15,ea,-4
        stw   r15,  72(sp)
 c0000a4:	dbc01215 	stw	r15,72(sp)
        /* 
         * Restore the saved registers, so that all general purpose registers 
         * have been restored to their state at the time the interrupt occured.
         */

        ldw   r5,  68(sp)
 c0000a8:	d9401117 	ldw	r5,68(sp)
        ldw   ea,  72(sp)  /* This becomes the PC once eret is executed */
 c0000ac:	df401217 	ldw	ea,72(sp)
        ldw   ra,   0(sp)
 c0000b0:	dfc00017 	ldw	ra,0(sp)

        wrctl estatus, r5
 c0000b4:	2801707a 	wrctl	estatus,r5

        ldw   r1,   8(sp)
 c0000b8:	d8400217 	ldw	at,8(sp)
        ldw   r2,  12(sp)
 c0000bc:	d8800317 	ldw	r2,12(sp)
        ldw   r3,  16(sp)
 c0000c0:	d8c00417 	ldw	r3,16(sp)
        ldw   r4,  20(sp)
 c0000c4:	d9000517 	ldw	r4,20(sp)
        ldw   r5,  24(sp)
 c0000c8:	d9400617 	ldw	r5,24(sp)
        ldw   r6,  28(sp)
 c0000cc:	d9800717 	ldw	r6,28(sp)
        ldw   r7,  32(sp)
 c0000d0:	d9c00817 	ldw	r7,32(sp)

#if defined(ALT_EXCEPTION_STACK) && defined(ALT_STACK_CHECK)
        ldw   et, %gprel(alt_exception_old_stack_limit)(gp)
#endif

        ldw   r8,  36(sp)
 c0000d4:	da000917 	ldw	r8,36(sp)
        ldw   r9,  40(sp)
 c0000d8:	da400a17 	ldw	r9,40(sp)
        ldw   r10, 44(sp)
 c0000dc:	da800b17 	ldw	r10,44(sp)
        ldw   r11, 48(sp)
 c0000e0:	dac00c17 	ldw	r11,48(sp)
        ldw   r12, 52(sp)
 c0000e4:	db000d17 	ldw	r12,52(sp)
        ldw   r13, 56(sp)
 c0000e8:	db400e17 	ldw	r13,56(sp)
        ldw   r14, 60(sp)
 c0000ec:	db800f17 	ldw	r14,60(sp)
        ldw   r15, 64(sp)
 c0000f0:	dbc01017 	ldw	r15,64(sp)
        stw   et, %gprel(alt_stack_limit_value)(gp)
        stw   zero, %gprel(alt_exception_old_stack_limit)(gp)
#endif /* ALT_STACK_CHECK */
        ldw   sp,  76(sp)
#else /* ALT_EXCEPTION_STACK disabled */
        addi  sp, sp, 76
 c0000f4:	dec01304 	addi	sp,sp,76

        /*
         * Return to the interrupted instruction.
         */

        eret
 c0000f8:	ef80083a 	eret

0c0000fc <alt_irq_handler>:
 * instruction is present if the macro ALT_CI_INTERRUPT_VECTOR defined.
 */

void alt_irq_handler (void) __attribute__ ((section (".exceptions")));
void alt_irq_handler (void)
{
 c0000fc:	defff904 	addi	sp,sp,-28
 c000100:	dfc00615 	stw	ra,24(sp)
 c000104:	df000515 	stw	fp,20(sp)
 c000108:	df000504 	addi	fp,sp,20
  
  /*
   * Notify the operating system that we are at interrupt level.
   */ 
  
  ALT_OS_INT_ENTER();
 c00010c:	0001883a 	nop
#ifndef NIOS2_EIC_PRESENT
static ALT_INLINE alt_u32 ALT_ALWAYS_INLINE alt_irq_pending (void)
{
  alt_u32 active;

  NIOS2_READ_IPENDING (active);
 c000110:	0005313a 	rdctl	r2,ipending
 c000114:	e0bffe15 	stw	r2,-8(fp)

  return active;
 c000118:	e0bffe17 	ldw	r2,-8(fp)
   * Consider the case where the high priority interupt is asserted during
   * the interrupt entry sequence for a lower priority interrupt to see why
   * this is the case.
   */

  active = alt_irq_pending ();
 c00011c:	e0bffb15 	stw	r2,-20(fp)

  do
  {
    i = 0;
 c000120:	e03ffd15 	stw	zero,-12(fp)
    mask = 1;
 c000124:	00800044 	movi	r2,1
 c000128:	e0bffc15 	stw	r2,-16(fp)
     * called to clear the interrupt condition.
     */

    do
    {
      if (active & mask)
 c00012c:	e0fffb17 	ldw	r3,-20(fp)
 c000130:	e0bffc17 	ldw	r2,-16(fp)
 c000134:	1884703a 	and	r2,r3,r2
 c000138:	10001426 	beq	r2,zero,c00018c <alt_irq_handler+0x90>
      { 
#ifdef ALT_ENHANCED_INTERRUPT_API_PRESENT
        alt_irq[i].handler(alt_irq[i].context); 
 c00013c:	008300b4 	movhi	r2,3074
 c000140:	109b0604 	addi	r2,r2,27672
 c000144:	e0fffd17 	ldw	r3,-12(fp)
 c000148:	180690fa 	slli	r3,r3,3
 c00014c:	10c5883a 	add	r2,r2,r3
 c000150:	10c00017 	ldw	r3,0(r2)
 c000154:	008300b4 	movhi	r2,3074
 c000158:	109b0604 	addi	r2,r2,27672
 c00015c:	e13ffd17 	ldw	r4,-12(fp)
 c000160:	200890fa 	slli	r4,r4,3
 c000164:	1105883a 	add	r2,r2,r4
 c000168:	10800104 	addi	r2,r2,4
 c00016c:	10800017 	ldw	r2,0(r2)
 c000170:	1009883a 	mov	r4,r2
 c000174:	183ee83a 	callr	r3
#else
        alt_irq[i].handler(alt_irq[i].context, i); 
#endif
        break;
 c000178:	0001883a 	nop
#ifndef NIOS2_EIC_PRESENT
static ALT_INLINE alt_u32 ALT_ALWAYS_INLINE alt_irq_pending (void)
{
  alt_u32 active;

  NIOS2_READ_IPENDING (active);
 c00017c:	0005313a 	rdctl	r2,ipending
 c000180:	e0bfff15 	stw	r2,-4(fp)

  return active;
 c000184:	e0bfff17 	ldw	r2,-4(fp)
 c000188:	00000706 	br	c0001a8 <alt_irq_handler+0xac>
      }
      mask <<= 1;
 c00018c:	e0bffc17 	ldw	r2,-16(fp)
 c000190:	1085883a 	add	r2,r2,r2
 c000194:	e0bffc15 	stw	r2,-16(fp)
      i++;
 c000198:	e0bffd17 	ldw	r2,-12(fp)
 c00019c:	10800044 	addi	r2,r2,1
 c0001a0:	e0bffd15 	stw	r2,-12(fp)

    } while (1);
 c0001a4:	003fe106 	br	c00012c <__alt_data_end+0xfc00012c>

    active = alt_irq_pending ();
 c0001a8:	e0bffb15 	stw	r2,-20(fp)
    
  } while (active);
 c0001ac:	e0bffb17 	ldw	r2,-20(fp)
 c0001b0:	103fdb1e 	bne	r2,zero,c000120 <__alt_data_end+0xfc000120>

  /*
   * Notify the operating system that interrupt processing is complete.
   */ 

  ALT_OS_INT_EXIT();
 c0001b4:	0001883a 	nop
}
 c0001b8:	0001883a 	nop
 c0001bc:	e037883a 	mov	sp,fp
 c0001c0:	dfc00117 	ldw	ra,4(sp)
 c0001c4:	df000017 	ldw	fp,0(sp)
 c0001c8:	dec00204 	addi	sp,sp,8
 c0001cc:	f800283a 	ret

0c0001d0 <alt_instruction_exception_entry>:
 * that handler if it has been registered. Absent a handler, it will
 * break break or hang as discussed below.
 */
int 
alt_instruction_exception_entry (alt_u32 exception_pc)
{
 c0001d0:	defffb04 	addi	sp,sp,-20
 c0001d4:	dfc00415 	stw	ra,16(sp)
 c0001d8:	df000315 	stw	fp,12(sp)
 c0001dc:	df000304 	addi	fp,sp,12
 c0001e0:	e13fff15 	stw	r4,-4(fp)
  cause = ( (cause & NIOS2_EXCEPTION_REG_CAUSE_MASK) >>
              NIOS2_EXCEPTION_REG_CAUSE_OFST );

  NIOS2_READ_BADADDR(badaddr);
#else
  cause = NIOS2_EXCEPTION_CAUSE_NOT_PRESENT;
 c0001e4:	00bfffc4 	movi	r2,-1
 c0001e8:	e0bffd15 	stw	r2,-12(fp)
  badaddr = 0;
 c0001ec:	e03ffe15 	stw	zero,-8(fp)
#endif /* NIOS2_HAS_EXTRA_EXCEPTION_INFO */

  if(alt_instruction_exception_handler) {
 c0001f0:	d0a7bd17 	ldw	r2,-24844(gp)
 c0001f4:	10000726 	beq	r2,zero,c000214 <alt_instruction_exception_entry+0x44>
     * Call handler. Its return value indicates whether the exception-causing
     * instruction should be re-issued. The code that called us,
     * alt_eceptions_entry.S, will look at this value and adjust the ea
     * register as necessary
     */
    return alt_instruction_exception_handler(cause, exception_pc, badaddr);
 c0001f8:	d0a7bd17 	ldw	r2,-24844(gp)
 c0001fc:	e0fffd17 	ldw	r3,-12(fp)
 c000200:	e1bffe17 	ldw	r6,-8(fp)
 c000204:	e17fff17 	ldw	r5,-4(fp)
 c000208:	1809883a 	mov	r4,r3
 c00020c:	103ee83a 	callr	r2
 c000210:	00000206 	br	c00021c <alt_instruction_exception_entry+0x4c>
   *    (a peripheral which negates its interrupt output before its
   *    interrupt handler has been executed will cause spurious interrupts)
   */
  else {
#ifdef NIOS2_HAS_DEBUG_STUB
    NIOS2_BREAK();
 c000214:	003da03a 	break	0
      ;
#endif /* NIOS2_HAS_DEBUG_STUB */
  }

  /* We should not get here. Remove compiler warning. */
  return NIOS2_EXCEPTION_RETURN_REISSUE_INST;
 c000218:	0005883a 	mov	r2,zero
}
 c00021c:	e037883a 	mov	sp,fp
 c000220:	dfc00117 	ldw	ra,4(sp)
 c000224:	df000017 	ldw	fp,0(sp)
 c000228:	dec00204 	addi	sp,sp,8
 c00022c:	f800283a 	ret

Disassembly of section .text:

0c000230 <_start>:

    /*
     * Now that the caches are initialized, set up the stack pointer and global pointer.
     * The values provided by the linker are assumed to be correctly aligned.
     */
    movhi sp, %hi(__alt_stack_pointer)
 c000230:	06c40034 	movhi	sp,4096
    ori sp, sp, %lo(__alt_stack_pointer)
 c000234:	dec00014 	ori	sp,sp,0
    movhi gp, %hi(_gp)
 c000238:	068300b4 	movhi	gp,3074
    ori gp, gp, %lo(_gp)
 c00023c:	d6a02214 	ori	gp,gp,32904
 */
#ifndef ALT_SIM_OPTIMIZE
    /* Log that the BSS is about to be cleared. */
    ALT_LOG_PUTS(alt_log_msg_bss)

    movhi r2, %hi(__bss_start)
 c000240:	008300b4 	movhi	r2,3074
    ori r2, r2, %lo(__bss_start)
 c000244:	1087cb14 	ori	r2,r2,7980

    movhi r3, %hi(__bss_end)
 c000248:	00c300b4 	movhi	r3,3074
    ori r3, r3, %lo(__bss_end)
 c00024c:	18db4614 	ori	r3,r3,27928

    beq r2, r3, 1f
 c000250:	10c00326 	beq	r2,r3,c000260 <_start+0x30>

0:
    stw zero, (r2)
 c000254:	10000015 	stw	zero,0(r2)
    addi r2, r2, 4
 c000258:	10800104 	addi	r2,r2,4
    bltu r2, r3, 0b
 c00025c:	10fffd36 	bltu	r2,r3,c000254 <__alt_data_end+0xfc000254>
     * section aren't defined until alt_load() has been called).
     */
    mov   et, zero
#endif

    call alt_load
 c000260:	c01ac4c0 	call	c01ac4c <alt_load>

    /* Log that alt_main is about to be called. */
    ALT_LOG_PUTS(alt_log_msg_alt_main)

    /* Call the C entry point. It should never return. */
    call alt_main
 c000264:	c01ade80 	call	c01ade8 <alt_main>

0c000268 <alt_after_alt_main>:

    /* Wait in infinite loop in case alt_main does return. */
alt_after_alt_main:
    br alt_after_alt_main
 c000268:	003fff06 	br	c000268 <__alt_data_end+0xfc000268>

0c00026c <TetrisInitialize>:
const int tetrisBlockCount = sizeof(tetrisBlocks) / sizeof(TetrisBlock);
int colorValues[80][60];
int level = 2;
int score;

void TetrisInitialize(TetrisGameState* state, int width, int height) {
 c00026c:	defff804 	addi	sp,sp,-32
 c000270:	dfc00715 	stw	ra,28(sp)
 c000274:	df000615 	stw	fp,24(sp)
 c000278:	dc000515 	stw	r16,20(sp)
 c00027c:	df000604 	addi	fp,sp,24
 c000280:	e13ffc15 	stw	r4,-16(fp)
 c000284:	e17ffd15 	stw	r5,-12(fp)
 c000288:	e1bffe15 	stw	r6,-8(fp)
    int x, y;

    state->completedLines = 0;
 c00028c:	e0bffc17 	ldw	r2,-16(fp)
 c000290:	10000415 	stw	zero,16(r2)
    state->dead = 0;
 c000294:	e0bffc17 	ldw	r2,-16(fp)
 c000298:	10000315 	stw	zero,12(r2)
    state->boardWidth = width;
 c00029c:	e0bffc17 	ldw	r2,-16(fp)
 c0002a0:	e0fffd17 	ldw	r3,-12(fp)
 c0002a4:	10c00115 	stw	r3,4(r2)
    state->boardHeight = height+4;
 c0002a8:	e0bffe17 	ldw	r2,-8(fp)
 c0002ac:	10c00104 	addi	r3,r2,4
 c0002b0:	e0bffc17 	ldw	r2,-16(fp)
 c0002b4:	10c00215 	stw	r3,8(r2)
    state->board = (int**)malloc(sizeof(int*) * width);
 c0002b8:	e0bffd17 	ldw	r2,-12(fp)
 c0002bc:	1085883a 	add	r2,r2,r2
 c0002c0:	1085883a 	add	r2,r2,r2
 c0002c4:	1009883a 	mov	r4,r2
 c0002c8:	c0048d00 	call	c0048d0 <malloc>
 c0002cc:	1007883a 	mov	r3,r2
 c0002d0:	e0bffc17 	ldw	r2,-16(fp)
 c0002d4:	10c00015 	stw	r3,0(r2)

    for (x = 0; x < width; x++) {
 c0002d8:	e03ffa15 	stw	zero,-24(fp)
 c0002dc:	00002406 	br	c000370 <TetrisInitialize+0x104>
        state->board[x] = (int*)malloc(sizeof(int) * height);
 c0002e0:	e0bffc17 	ldw	r2,-16(fp)
 c0002e4:	10c00017 	ldw	r3,0(r2)
 c0002e8:	e0bffa17 	ldw	r2,-24(fp)
 c0002ec:	1085883a 	add	r2,r2,r2
 c0002f0:	1085883a 	add	r2,r2,r2
 c0002f4:	18a1883a 	add	r16,r3,r2
 c0002f8:	e0bffe17 	ldw	r2,-8(fp)
 c0002fc:	1085883a 	add	r2,r2,r2
 c000300:	1085883a 	add	r2,r2,r2
 c000304:	1009883a 	mov	r4,r2
 c000308:	c0048d00 	call	c0048d0 <malloc>
 c00030c:	80800015 	stw	r2,0(r16)
        for (y = 0; y < height; y++) {
 c000310:	e03ffb15 	stw	zero,-20(fp)
 c000314:	00001006 	br	c000358 <TetrisInitialize+0xec>
            //state->board[x][y] = ' ';
            state->board[x][y] = boardColor;
 c000318:	e0bffc17 	ldw	r2,-16(fp)
 c00031c:	10c00017 	ldw	r3,0(r2)
 c000320:	e0bffa17 	ldw	r2,-24(fp)
 c000324:	1085883a 	add	r2,r2,r2
 c000328:	1085883a 	add	r2,r2,r2
 c00032c:	1885883a 	add	r2,r3,r2
 c000330:	10c00017 	ldw	r3,0(r2)
 c000334:	e0bffb17 	ldw	r2,-20(fp)
 c000338:	1085883a 	add	r2,r2,r2
 c00033c:	1085883a 	add	r2,r2,r2
 c000340:	1885883a 	add	r2,r3,r2
 c000344:	d0e00017 	ldw	r3,-32768(gp)
 c000348:	10c00015 	stw	r3,0(r2)
    state->boardHeight = height+4;
    state->board = (int**)malloc(sizeof(int*) * width);

    for (x = 0; x < width; x++) {
        state->board[x] = (int*)malloc(sizeof(int) * height);
        for (y = 0; y < height; y++) {
 c00034c:	e0bffb17 	ldw	r2,-20(fp)
 c000350:	10800044 	addi	r2,r2,1
 c000354:	e0bffb15 	stw	r2,-20(fp)
 c000358:	e0fffb17 	ldw	r3,-20(fp)
 c00035c:	e0bffe17 	ldw	r2,-8(fp)
 c000360:	18bfed16 	blt	r3,r2,c000318 <__alt_data_end+0xfc000318>
    state->dead = 0;
    state->boardWidth = width;
    state->boardHeight = height+4;
    state->board = (int**)malloc(sizeof(int*) * width);

    for (x = 0; x < width; x++) {
 c000364:	e0bffa17 	ldw	r2,-24(fp)
 c000368:	10800044 	addi	r2,r2,1
 c00036c:	e0bffa15 	stw	r2,-24(fp)
 c000370:	e0fffa17 	ldw	r3,-24(fp)
 c000374:	e0bffd17 	ldw	r2,-12(fp)
 c000378:	18bfd916 	blt	r3,r2,c0002e0 <__alt_data_end+0xfc0002e0>
            state->board[x][y] = boardColor;
        }
    }

    //state->pause = 0;
}
 c00037c:	0001883a 	nop
 c000380:	e6ffff04 	addi	sp,fp,-4
 c000384:	dfc00217 	ldw	ra,8(sp)
 c000388:	df000117 	ldw	fp,4(sp)
 c00038c:	dc000017 	ldw	r16,0(sp)
 c000390:	dec00304 	addi	sp,sp,12
 c000394:	f800283a 	ret

0c000398 <TetrisCleanup>:

void TetrisCleanup(TetrisGameState* state) {
 c000398:	defffc04 	addi	sp,sp,-16
 c00039c:	dfc00315 	stw	ra,12(sp)
 c0003a0:	df000215 	stw	fp,8(sp)
 c0003a4:	df000204 	addi	fp,sp,8
 c0003a8:	e13fff15 	stw	r4,-4(fp)
    int x;
    for (x = 0; x < state->boardWidth; x++) {
 c0003ac:	e03ffe15 	stw	zero,-8(fp)
 c0003b0:	00000c06 	br	c0003e4 <TetrisCleanup+0x4c>
        free(state->board[x]);
 c0003b4:	e0bfff17 	ldw	r2,-4(fp)
 c0003b8:	10c00017 	ldw	r3,0(r2)
 c0003bc:	e0bffe17 	ldw	r2,-8(fp)
 c0003c0:	1085883a 	add	r2,r2,r2
 c0003c4:	1085883a 	add	r2,r2,r2
 c0003c8:	1885883a 	add	r2,r3,r2
 c0003cc:	10800017 	ldw	r2,0(r2)
 c0003d0:	1009883a 	mov	r4,r2
 c0003d4:	c0048e40 	call	c0048e4 <free>
    //state->pause = 0;
}

void TetrisCleanup(TetrisGameState* state) {
    int x;
    for (x = 0; x < state->boardWidth; x++) {
 c0003d8:	e0bffe17 	ldw	r2,-8(fp)
 c0003dc:	10800044 	addi	r2,r2,1
 c0003e0:	e0bffe15 	stw	r2,-8(fp)
 c0003e4:	e0bfff17 	ldw	r2,-4(fp)
 c0003e8:	10800117 	ldw	r2,4(r2)
 c0003ec:	e0fffe17 	ldw	r3,-8(fp)
 c0003f0:	18bff016 	blt	r3,r2,c0003b4 <__alt_data_end+0xfc0003b4>
        free(state->board[x]);
    }
    free(state->board);
 c0003f4:	e0bfff17 	ldw	r2,-4(fp)
 c0003f8:	10800017 	ldw	r2,0(r2)
 c0003fc:	1009883a 	mov	r4,r2
 c000400:	c0048e40 	call	c0048e4 <free>
}
 c000404:	0001883a 	nop
 c000408:	e037883a 	mov	sp,fp
 c00040c:	dfc00117 	ldw	ra,4(sp)
 c000410:	df000017 	ldw	fp,0(sp)
 c000414:	dec00204 	addi	sp,sp,8
 c000418:	f800283a 	ret

0c00041c <TetrisCheckCollision>:
    }

    printf("\n");
}*/

int TetrisCheckCollision(TetrisGameState* state) {
 c00041c:	deffef04 	addi	sp,sp,-68
 c000420:	dfc01015 	stw	ra,64(sp)
 c000424:	df000f15 	stw	fp,60(sp)
 c000428:	df000f04 	addi	fp,sp,60
 c00042c:	e13fff15 	stw	r4,-4(fp)
    int x, y, X, Y;

    TetrisBlock activeBlock = state->activeBlock;
 c000430:	e0bfff17 	ldw	r2,-4(fp)
 c000434:	10c00517 	ldw	r3,20(r2)
 c000438:	e0fff515 	stw	r3,-44(fp)
 c00043c:	10c00617 	ldw	r3,24(r2)
 c000440:	e0fff615 	stw	r3,-40(fp)
 c000444:	10c00717 	ldw	r3,28(r2)
 c000448:	e0fff715 	stw	r3,-36(fp)
 c00044c:	10c00817 	ldw	r3,32(r2)
 c000450:	e0fff815 	stw	r3,-32(fp)
 c000454:	10c00917 	ldw	r3,36(r2)
 c000458:	e0fff915 	stw	r3,-28(fp)
 c00045c:	10c00a17 	ldw	r3,40(r2)
 c000460:	e0fffa15 	stw	r3,-24(fp)
 c000464:	10c00b17 	ldw	r3,44(r2)
 c000468:	e0fffb15 	stw	r3,-20(fp)
 c00046c:	10c00c17 	ldw	r3,48(r2)
 c000470:	e0fffc15 	stw	r3,-16(fp)
 c000474:	10c00d17 	ldw	r3,52(r2)
 c000478:	e0fffd15 	stw	r3,-12(fp)
 c00047c:	10800e17 	ldw	r2,56(r2)
 c000480:	e0bffe15 	stw	r2,-8(fp)

    for (x = 0; x < activeBlock.width; x++) {
 c000484:	e03ff115 	stw	zero,-60(fp)
 c000488:	00004906 	br	c0005b0 <TetrisCheckCollision+0x194>
        for (y = 0; y < activeBlock.height; y++) {
 c00048c:	e03ff215 	stw	zero,-56(fp)
 c000490:	00004106 	br	c000598 <TetrisCheckCollision+0x17c>
            X = state->activeBlockX + x;
 c000494:	e0bfff17 	ldw	r2,-4(fp)
 c000498:	10c00f17 	ldw	r3,60(r2)
 c00049c:	e0bff117 	ldw	r2,-60(fp)
 c0004a0:	1885883a 	add	r2,r3,r2
 c0004a4:	e0bff315 	stw	r2,-52(fp)
            Y = state->activeBlockY + y;
 c0004a8:	e0bfff17 	ldw	r2,-4(fp)
 c0004ac:	10c01017 	ldw	r3,64(r2)
 c0004b0:	e0bff217 	ldw	r2,-56(fp)
 c0004b4:	1885883a 	add	r2,r3,r2
 c0004b8:	e0bff415 	stw	r2,-48(fp)

            if (X < 0 || X >= state->boardWidth) return 1;
 c0004bc:	e0bff317 	ldw	r2,-52(fp)
 c0004c0:	10000416 	blt	r2,zero,c0004d4 <TetrisCheckCollision+0xb8>
 c0004c4:	e0bfff17 	ldw	r2,-4(fp)
 c0004c8:	10800117 	ldw	r2,4(r2)
 c0004cc:	e0fff317 	ldw	r3,-52(fp)
 c0004d0:	18800216 	blt	r3,r2,c0004dc <TetrisCheckCollision+0xc0>
 c0004d4:	00800044 	movi	r2,1
 c0004d8:	00003906 	br	c0005c0 <TetrisCheckCollision+0x1a4>

            if (activeBlock.data[y][x] != ' ') {
 c0004dc:	e0bff217 	ldw	r2,-56(fp)
 c0004e0:	01400144 	movi	r5,5
 c0004e4:	1009883a 	mov	r4,r2
 c0004e8:	c0048a80 	call	c0048a8 <__mulsi3>
 c0004ec:	e13ff104 	addi	r4,fp,-60
 c0004f0:	2087883a 	add	r3,r4,r2
 c0004f4:	e0bff117 	ldw	r2,-60(fp)
 c0004f8:	1885883a 	add	r2,r3,r2
 c0004fc:	10800604 	addi	r2,r2,24
 c000500:	10800003 	ldbu	r2,0(r2)
 c000504:	10803fcc 	andi	r2,r2,255
 c000508:	1080201c 	xori	r2,r2,128
 c00050c:	10bfe004 	addi	r2,r2,-128
 c000510:	10800820 	cmpeqi	r2,r2,32
 c000514:	10001d1e 	bne	r2,zero,c00058c <TetrisCheckCollision+0x170>
                if ((Y >= state->boardHeight) ||
 c000518:	e0bfff17 	ldw	r2,-4(fp)
 c00051c:	10800217 	ldw	r2,8(r2)
 c000520:	e0fff417 	ldw	r3,-48(fp)
 c000524:	1880170e 	bge	r3,r2,c000584 <TetrisCheckCollision+0x168>
 c000528:	e0bff317 	ldw	r2,-52(fp)
 c00052c:	10001716 	blt	r2,zero,c00058c <TetrisCheckCollision+0x170>
                    (X >= 0 && X < state->boardWidth && Y >= 3 &&
 c000530:	e0bfff17 	ldw	r2,-4(fp)
 c000534:	10800117 	ldw	r2,4(r2)
 c000538:	e0fff317 	ldw	r3,-52(fp)
 c00053c:	1880130e 	bge	r3,r2,c00058c <TetrisCheckCollision+0x170>
 c000540:	e0bff417 	ldw	r2,-48(fp)
 c000544:	108000d0 	cmplti	r2,r2,3
 c000548:	1000101e 	bne	r2,zero,c00058c <TetrisCheckCollision+0x170>
                    	//state->board[X][Y] != ' '))
						state->board[X][Y] != boardColor)) {
 c00054c:	e0bfff17 	ldw	r2,-4(fp)
 c000550:	10c00017 	ldw	r3,0(r2)
 c000554:	e0bff317 	ldw	r2,-52(fp)
 c000558:	1085883a 	add	r2,r2,r2
 c00055c:	1085883a 	add	r2,r2,r2
 c000560:	1885883a 	add	r2,r3,r2
 c000564:	10c00017 	ldw	r3,0(r2)
 c000568:	e0bff417 	ldw	r2,-48(fp)
 c00056c:	1085883a 	add	r2,r2,r2
 c000570:	1085883a 	add	r2,r2,r2
 c000574:	1885883a 	add	r2,r3,r2
 c000578:	10c00017 	ldw	r3,0(r2)
 c00057c:	d0a00017 	ldw	r2,-32768(gp)

            if (X < 0 || X >= state->boardWidth) return 1;

            if (activeBlock.data[y][x] != ' ') {
                if ((Y >= state->boardHeight) ||
                    (X >= 0 && X < state->boardWidth && Y >= 3 &&
 c000580:	18800226 	beq	r3,r2,c00058c <TetrisCheckCollision+0x170>
                    	//state->board[X][Y] != ' '))
						state->board[X][Y] != boardColor)) {
                    return 1;
 c000584:	00800044 	movi	r2,1
 c000588:	00000d06 	br	c0005c0 <TetrisCheckCollision+0x1a4>
    int x, y, X, Y;

    TetrisBlock activeBlock = state->activeBlock;

    for (x = 0; x < activeBlock.width; x++) {
        for (y = 0; y < activeBlock.height; y++) {
 c00058c:	e0bff217 	ldw	r2,-56(fp)
 c000590:	10800044 	addi	r2,r2,1
 c000594:	e0bff215 	stw	r2,-56(fp)
 c000598:	e0bff617 	ldw	r2,-40(fp)
 c00059c:	e0fff217 	ldw	r3,-56(fp)
 c0005a0:	18bfbc16 	blt	r3,r2,c000494 <__alt_data_end+0xfc000494>
int TetrisCheckCollision(TetrisGameState* state) {
    int x, y, X, Y;

    TetrisBlock activeBlock = state->activeBlock;

    for (x = 0; x < activeBlock.width; x++) {
 c0005a4:	e0bff117 	ldw	r2,-60(fp)
 c0005a8:	10800044 	addi	r2,r2,1
 c0005ac:	e0bff115 	stw	r2,-60(fp)
 c0005b0:	e0bff517 	ldw	r2,-44(fp)
 c0005b4:	e0fff117 	ldw	r3,-60(fp)
 c0005b8:	18bfb416 	blt	r3,r2,c00048c <__alt_data_end+0xfc00048c>
                }
            }
        }
    }

    return 0;
 c0005bc:	0005883a 	mov	r2,zero
}
 c0005c0:	e037883a 	mov	sp,fp
 c0005c4:	dfc00117 	ldw	ra,4(sp)
 c0005c8:	df000017 	ldw	fp,0(sp)
 c0005cc:	dec00204 	addi	sp,sp,8
 c0005d0:	f800283a 	ret

0c0005d4 <TetrisCreateBlock>:

void TetrisCreateBlock(TetrisGameState* state) {
 c0005d4:	deffec04 	addi	sp,sp,-80
 c0005d8:	dfc01315 	stw	ra,76(sp)
 c0005dc:	df001215 	stw	fp,72(sp)
 c0005e0:	dc401115 	stw	r17,68(sp)
 c0005e4:	dc001015 	stw	r16,64(sp)
 c0005e8:	df001204 	addi	fp,sp,72
 c0005ec:	e13ffd15 	stw	r4,-12(fp)
    state->activeBlock = tetrisBlocks[nextBlock];
 c0005f0:	d0a00117 	ldw	r2,-32764(gp)
 c0005f4:	e43ffd17 	ldw	r16,-12(fp)
 c0005f8:	044300b4 	movhi	r17,3074
 c0005fc:	8c75f004 	addi	r17,r17,-10304
 c000600:	01400a04 	movi	r5,40
 c000604:	1009883a 	mov	r4,r2
 c000608:	c0048a80 	call	c0048a8 <__mulsi3>
 c00060c:	8885883a 	add	r2,r17,r2
 c000610:	10c00017 	ldw	r3,0(r2)
 c000614:	80c00515 	stw	r3,20(r16)
 c000618:	10c00117 	ldw	r3,4(r2)
 c00061c:	80c00615 	stw	r3,24(r16)
 c000620:	10c00217 	ldw	r3,8(r2)
 c000624:	80c00715 	stw	r3,28(r16)
 c000628:	10c00317 	ldw	r3,12(r2)
 c00062c:	80c00815 	stw	r3,32(r16)
 c000630:	10c00417 	ldw	r3,16(r2)
 c000634:	80c00915 	stw	r3,36(r16)
 c000638:	10c00517 	ldw	r3,20(r2)
 c00063c:	80c00a15 	stw	r3,40(r16)
 c000640:	10c00617 	ldw	r3,24(r2)
 c000644:	80c00b15 	stw	r3,44(r16)
 c000648:	10c00717 	ldw	r3,28(r2)
 c00064c:	80c00c15 	stw	r3,48(r16)
 c000650:	10c00817 	ldw	r3,32(r2)
 c000654:	80c00d15 	stw	r3,52(r16)
 c000658:	10800917 	ldw	r2,36(r2)
 c00065c:	80800e15 	stw	r2,56(r16)

    state->activeBlockX =
        (state->boardWidth / 2) - (state->activeBlock.width / 2);
 c000660:	e0bffd17 	ldw	r2,-12(fp)
 c000664:	10800117 	ldw	r2,4(r2)
 c000668:	1006d7fa 	srli	r3,r2,31
 c00066c:	1885883a 	add	r2,r3,r2
 c000670:	1005d07a 	srai	r2,r2,1
 c000674:	1009883a 	mov	r4,r2
 c000678:	e0bffd17 	ldw	r2,-12(fp)
 c00067c:	10800517 	ldw	r2,20(r2)
 c000680:	1006d7fa 	srli	r3,r2,31
 c000684:	1885883a 	add	r2,r3,r2
 c000688:	1005d07a 	srai	r2,r2,1
 c00068c:	2087c83a 	sub	r3,r4,r2
}

void TetrisCreateBlock(TetrisGameState* state) {
    state->activeBlock = tetrisBlocks[nextBlock];

    state->activeBlockX =
 c000690:	e0bffd17 	ldw	r2,-12(fp)
 c000694:	10c00f15 	stw	r3,60(r2)
        (state->boardWidth / 2) - (state->activeBlock.width / 2);

    state->activeBlockY = 4-state->activeBlock.height;
 c000698:	e0bffd17 	ldw	r2,-12(fp)
 c00069c:	10800617 	ldw	r2,24(r2)
 c0006a0:	00c00104 	movi	r3,4
 c0006a4:	1887c83a 	sub	r3,r3,r2
 c0006a8:	e0bffd17 	ldw	r2,-12(fp)
 c0006ac:	10c01015 	stw	r3,64(r2)

    state->activeBlock.color = nextColor; //current block's color
 c0006b0:	d0e00217 	ldw	r3,-32760(gp)
 c0006b4:	e0bffd17 	ldw	r2,-12(fp)
 c0006b8:	10c00e15 	stw	r3,56(r2)

    //nextBlock = rand() % tetrisBlockCount; //next block's color
  	int color = (rand() % 15)+1;
 c0006bc:	c00525c0 	call	c00525c <rand>
 c0006c0:	014003c4 	movi	r5,15
 c0006c4:	1009883a 	mov	r4,r2
 c0006c8:	c0047780 	call	c004778 <__modsi3>
 c0006cc:	10800044 	addi	r2,r2,1
 c0006d0:	e0bfef15 	stw	r2,-68(fp)
    if (color == boardColor || color == nextColor) color = (rand() % 15)+1;
 c0006d4:	d0a00017 	ldw	r2,-32768(gp)
 c0006d8:	e0ffef17 	ldw	r3,-68(fp)
 c0006dc:	18800326 	beq	r3,r2,c0006ec <TetrisCreateBlock+0x118>
 c0006e0:	d0a00217 	ldw	r2,-32760(gp)
 c0006e4:	e0ffef17 	ldw	r3,-68(fp)
 c0006e8:	1880061e 	bne	r3,r2,c000704 <TetrisCreateBlock+0x130>
 c0006ec:	c00525c0 	call	c00525c <rand>
 c0006f0:	014003c4 	movi	r5,15
 c0006f4:	1009883a 	mov	r4,r2
 c0006f8:	c0047780 	call	c004778 <__modsi3>
 c0006fc:	10800044 	addi	r2,r2,1
 c000700:	e0bfef15 	stw	r2,-68(fp)
    //nextColor = color; //next color
  	for (int i = 0; i < rand() % 3; i++) {
 c000704:	e03ff015 	stw	zero,-64(fp)
 c000708:	00000506 	br	c000720 <TetrisCreateBlock+0x14c>
  		TetrisRotateBlock(state); //roate block
 c00070c:	e13ffd17 	ldw	r4,-12(fp)
 c000710:	c000a440 	call	c000a44 <TetrisRotateBlock>

    //nextBlock = rand() % tetrisBlockCount; //next block's color
  	int color = (rand() % 15)+1;
    if (color == boardColor || color == nextColor) color = (rand() % 15)+1;
    //nextColor = color; //next color
  	for (int i = 0; i < rand() % 3; i++) {
 c000714:	e0bff017 	ldw	r2,-64(fp)
 c000718:	10800044 	addi	r2,r2,1
 c00071c:	e0bff015 	stw	r2,-64(fp)
 c000720:	c00525c0 	call	c00525c <rand>
 c000724:	014000c4 	movi	r5,3
 c000728:	1009883a 	mov	r4,r2
 c00072c:	c0047780 	call	c004778 <__modsi3>
 c000730:	1007883a 	mov	r3,r2
 c000734:	e0bff017 	ldw	r2,-64(fp)
 c000738:	10fff416 	blt	r2,r3,c00070c <__alt_data_end+0xfc00070c>
  		TetrisRotateBlock(state); //roate block
  	}
  	TetrisBlock previewBlock = tetrisBlocks[nextBlock]; //preview next block
 c00073c:	d0a00117 	ldw	r2,-32764(gp)
 c000740:	040300b4 	movhi	r16,3074
 c000744:	8435f004 	addi	r16,r16,-10304
 c000748:	01400a04 	movi	r5,40
 c00074c:	1009883a 	mov	r4,r2
 c000750:	c0048a80 	call	c0048a8 <__mulsi3>
 c000754:	8085883a 	add	r2,r16,r2
 c000758:	10c00017 	ldw	r3,0(r2)
 c00075c:	e0fff315 	stw	r3,-52(fp)
 c000760:	10c00117 	ldw	r3,4(r2)
 c000764:	e0fff415 	stw	r3,-48(fp)
 c000768:	10c00217 	ldw	r3,8(r2)
 c00076c:	e0fff515 	stw	r3,-44(fp)
 c000770:	10c00317 	ldw	r3,12(r2)
 c000774:	e0fff615 	stw	r3,-40(fp)
 c000778:	10c00417 	ldw	r3,16(r2)
 c00077c:	e0fff715 	stw	r3,-36(fp)
 c000780:	10c00517 	ldw	r3,20(r2)
 c000784:	e0fff815 	stw	r3,-32(fp)
 c000788:	10c00617 	ldw	r3,24(r2)
 c00078c:	e0fff915 	stw	r3,-28(fp)
 c000790:	10c00717 	ldw	r3,28(r2)
 c000794:	e0fffa15 	stw	r3,-24(fp)
 c000798:	10c00817 	ldw	r3,32(r2)
 c00079c:	e0fffb15 	stw	r3,-20(fp)
 c0007a0:	10800917 	ldw	r2,36(r2)
 c0007a4:	e0bffc15 	stw	r2,-16(fp)
  	for (int x = 0; x < 5; x++) {
 c0007a8:	e03ff115 	stw	zero,-60(fp)
 c0007ac:	00003706 	br	c00088c <TetrisCreateBlock+0x2b8>
  		for (int y = 0; y < 5; y++) {
 c0007b0:	e03ff215 	stw	zero,-56(fp)
 c0007b4:	00002f06 	br	c000874 <TetrisCreateBlock+0x2a0>
			if ((x < previewBlock.width &&  y < previewBlock.height) && previewBlock.data[y][x] != ' ') 	VGADrawColorBox(x+14+2-previewBlock.width/2, y+10, color);
 c0007b8:	e0bff317 	ldw	r2,-52(fp)
 c0007bc:	e0fff117 	ldw	r3,-60(fp)
 c0007c0:	1880200e 	bge	r3,r2,c000844 <TetrisCreateBlock+0x270>
 c0007c4:	e0bff417 	ldw	r2,-48(fp)
 c0007c8:	e0fff217 	ldw	r3,-56(fp)
 c0007cc:	18801d0e 	bge	r3,r2,c000844 <TetrisCreateBlock+0x270>
 c0007d0:	e0bff217 	ldw	r2,-56(fp)
 c0007d4:	01400144 	movi	r5,5
 c0007d8:	1009883a 	mov	r4,r2
 c0007dc:	c0048a80 	call	c0048a8 <__mulsi3>
 c0007e0:	e13fef04 	addi	r4,fp,-68
 c0007e4:	2087883a 	add	r3,r4,r2
 c0007e8:	e0bff117 	ldw	r2,-60(fp)
 c0007ec:	1885883a 	add	r2,r3,r2
 c0007f0:	10800604 	addi	r2,r2,24
 c0007f4:	10800003 	ldbu	r2,0(r2)
 c0007f8:	10803fcc 	andi	r2,r2,255
 c0007fc:	1080201c 	xori	r2,r2,128
 c000800:	10bfe004 	addi	r2,r2,-128
 c000804:	10800820 	cmpeqi	r2,r2,32
 c000808:	10000e1e 	bne	r2,zero,c000844 <TetrisCreateBlock+0x270>
 c00080c:	e0bff117 	ldw	r2,-60(fp)
 c000810:	10c00404 	addi	r3,r2,16
 c000814:	e0bff317 	ldw	r2,-52(fp)
 c000818:	1008d7fa 	srli	r4,r2,31
 c00081c:	2085883a 	add	r2,r4,r2
 c000820:	1005d07a 	srai	r2,r2,1
 c000824:	1887c83a 	sub	r3,r3,r2
 c000828:	e0bff217 	ldw	r2,-56(fp)
 c00082c:	10800284 	addi	r2,r2,10
 c000830:	e1bfef17 	ldw	r6,-68(fp)
 c000834:	100b883a 	mov	r5,r2
 c000838:	1809883a 	mov	r4,r3
 c00083c:	c00255c0 	call	c00255c <VGADrawColorBox>
 c000840:	00000906 	br	c000868 <TetrisCreateBlock+0x294>
			else VGADrawColorBox(x+14, y+10, boardColor);
 c000844:	e0bff117 	ldw	r2,-60(fp)
 c000848:	10c00384 	addi	r3,r2,14
 c00084c:	e0bff217 	ldw	r2,-56(fp)
 c000850:	10800284 	addi	r2,r2,10
 c000854:	d1200017 	ldw	r4,-32768(gp)
 c000858:	200d883a 	mov	r6,r4
 c00085c:	100b883a 	mov	r5,r2
 c000860:	1809883a 	mov	r4,r3
 c000864:	c00255c0 	call	c00255c <VGADrawColorBox>
  	for (int i = 0; i < rand() % 3; i++) {
  		TetrisRotateBlock(state); //roate block
  	}
  	TetrisBlock previewBlock = tetrisBlocks[nextBlock]; //preview next block
  	for (int x = 0; x < 5; x++) {
  		for (int y = 0; y < 5; y++) {
 c000868:	e0bff217 	ldw	r2,-56(fp)
 c00086c:	10800044 	addi	r2,r2,1
 c000870:	e0bff215 	stw	r2,-56(fp)
 c000874:	e0bff217 	ldw	r2,-56(fp)
 c000878:	10800150 	cmplti	r2,r2,5
 c00087c:	103fce1e 	bne	r2,zero,c0007b8 <__alt_data_end+0xfc0007b8>
    //nextColor = color; //next color
  	for (int i = 0; i < rand() % 3; i++) {
  		TetrisRotateBlock(state); //roate block
  	}
  	TetrisBlock previewBlock = tetrisBlocks[nextBlock]; //preview next block
  	for (int x = 0; x < 5; x++) {
 c000880:	e0bff117 	ldw	r2,-60(fp)
 c000884:	10800044 	addi	r2,r2,1
 c000888:	e0bff115 	stw	r2,-60(fp)
 c00088c:	e0bff117 	ldw	r2,-60(fp)
 c000890:	10800150 	cmplti	r2,r2,5
 c000894:	103fc61e 	bne	r2,zero,c0007b0 <__alt_data_end+0xfc0007b0>
			if ((x < previewBlock.width &&  y < previewBlock.height) && previewBlock.data[y][x] != ' ') 	VGADrawColorBox(x+14+2-previewBlock.width/2, y+10, color);
			else VGADrawColorBox(x+14, y+10, boardColor);
  		}
  	}

    if (TetrisCheckCollision(state)) {
 c000898:	e13ffd17 	ldw	r4,-12(fp)
 c00089c:	c00041c0 	call	c00041c <TetrisCheckCollision>
 c0008a0:	10000e26 	beq	r2,zero,c0008dc <TetrisCreateBlock+0x308>
        state->dead = 1;
 c0008a4:	e0bffd17 	ldw	r2,-12(fp)
 c0008a8:	00c00044 	movi	r3,1
 c0008ac:	10c00315 	stw	r3,12(r2)
		printf("end game");
 c0008b0:	010300b4 	movhi	r4,3074
 c0008b4:	21363604 	addi	r4,r4,-10024
 c0008b8:	c0051340 	call	c005134 <printf>
		VGAwriteText(25-(strlen("GAME OVER")/2),(10+24/2),0,2,"GAME OVER");
 c0008bc:	008300b4 	movhi	r2,3074
 c0008c0:	10b63904 	addi	r2,r2,-10012
 c0008c4:	d8800015 	stw	r2,0(sp)
 c0008c8:	01c00084 	movi	r7,2
 c0008cc:	000d883a 	mov	r6,zero
 c0008d0:	01400584 	movi	r5,22
 c0008d4:	01000544 	movi	r4,21
 c0008d8:	c0025c80 	call	c0025c8 <VGAwriteText>
    }
}
 c0008dc:	0001883a 	nop
 c0008e0:	e6fffe04 	addi	sp,fp,-8
 c0008e4:	dfc00317 	ldw	ra,12(sp)
 c0008e8:	df000217 	ldw	fp,8(sp)
 c0008ec:	dc400117 	ldw	r17,4(sp)
 c0008f0:	dc000017 	ldw	r16,0(sp)
 c0008f4:	dec00404 	addi	sp,sp,16
 c0008f8:	f800283a 	ret

0c0008fc <TetrisPrintBlock>:

void TetrisPrintBlock(TetrisGameState* state) {
 c0008fc:	defff104 	addi	sp,sp,-60
 c000900:	dfc00e15 	stw	ra,56(sp)
 c000904:	df000d15 	stw	fp,52(sp)
 c000908:	df000d04 	addi	fp,sp,52
 c00090c:	e13fff15 	stw	r4,-4(fp)
    TetrisBlock activeBlock = state->activeBlock;
 c000910:	e0bfff17 	ldw	r2,-4(fp)
 c000914:	10c00517 	ldw	r3,20(r2)
 c000918:	e0fff515 	stw	r3,-44(fp)
 c00091c:	10c00617 	ldw	r3,24(r2)
 c000920:	e0fff615 	stw	r3,-40(fp)
 c000924:	10c00717 	ldw	r3,28(r2)
 c000928:	e0fff715 	stw	r3,-36(fp)
 c00092c:	10c00817 	ldw	r3,32(r2)
 c000930:	e0fff815 	stw	r3,-32(fp)
 c000934:	10c00917 	ldw	r3,36(r2)
 c000938:	e0fff915 	stw	r3,-28(fp)
 c00093c:	10c00a17 	ldw	r3,40(r2)
 c000940:	e0fffa15 	stw	r3,-24(fp)
 c000944:	10c00b17 	ldw	r3,44(r2)
 c000948:	e0fffb15 	stw	r3,-20(fp)
 c00094c:	10c00c17 	ldw	r3,48(r2)
 c000950:	e0fffc15 	stw	r3,-16(fp)
 c000954:	10c00d17 	ldw	r3,52(r2)
 c000958:	e0fffd15 	stw	r3,-12(fp)
 c00095c:	10800e17 	ldw	r2,56(r2)
 c000960:	e0bffe15 	stw	r2,-8(fp)

    int x, y;

    for (x = 0; x < activeBlock.width; x++) {
 c000964:	e03ff315 	stw	zero,-52(fp)
 c000968:	00002d06 	br	c000a20 <TetrisPrintBlock+0x124>
        for (y = 0; y < activeBlock.height; y++) {
 c00096c:	e03ff415 	stw	zero,-48(fp)
 c000970:	00002506 	br	c000a08 <TetrisPrintBlock+0x10c>
            if (activeBlock.data[y][x] != ' ') {
 c000974:	e0bff417 	ldw	r2,-48(fp)
 c000978:	01400144 	movi	r5,5
 c00097c:	1009883a 	mov	r4,r2
 c000980:	c0048a80 	call	c0048a8 <__mulsi3>
 c000984:	e13ff304 	addi	r4,fp,-52
 c000988:	2087883a 	add	r3,r4,r2
 c00098c:	e0bff317 	ldw	r2,-52(fp)
 c000990:	1885883a 	add	r2,r3,r2
 c000994:	10800404 	addi	r2,r2,16
 c000998:	10800003 	ldbu	r2,0(r2)
 c00099c:	10803fcc 	andi	r2,r2,255
 c0009a0:	1080201c 	xori	r2,r2,128
 c0009a4:	10bfe004 	addi	r2,r2,-128
 c0009a8:	10800820 	cmpeqi	r2,r2,32
 c0009ac:	1000131e 	bne	r2,zero,c0009fc <TetrisPrintBlock+0x100>
				state->board[state->activeBlockX + x][state->activeBlockY + y] =
 c0009b0:	e0bfff17 	ldw	r2,-4(fp)
 c0009b4:	10c00017 	ldw	r3,0(r2)
 c0009b8:	e0bfff17 	ldw	r2,-4(fp)
 c0009bc:	11000f17 	ldw	r4,60(r2)
 c0009c0:	e0bff317 	ldw	r2,-52(fp)
 c0009c4:	2085883a 	add	r2,r4,r2
 c0009c8:	1085883a 	add	r2,r2,r2
 c0009cc:	1085883a 	add	r2,r2,r2
 c0009d0:	1885883a 	add	r2,r3,r2
 c0009d4:	10c00017 	ldw	r3,0(r2)
 c0009d8:	e0bfff17 	ldw	r2,-4(fp)
 c0009dc:	11001017 	ldw	r4,64(r2)
 c0009e0:	e0bff417 	ldw	r2,-48(fp)
 c0009e4:	2085883a 	add	r2,r4,r2
 c0009e8:	1085883a 	add	r2,r2,r2
 c0009ec:	1085883a 	add	r2,r2,r2
 c0009f0:	1885883a 	add	r2,r3,r2
					//b.data[y][x];
					activeBlock.color;
 c0009f4:	e0fffe17 	ldw	r3,-8(fp)
    int x, y;

    for (x = 0; x < activeBlock.width; x++) {
        for (y = 0; y < activeBlock.height; y++) {
            if (activeBlock.data[y][x] != ' ') {
				state->board[state->activeBlockX + x][state->activeBlockY + y] =
 c0009f8:	10c00015 	stw	r3,0(r2)
    TetrisBlock activeBlock = state->activeBlock;

    int x, y;

    for (x = 0; x < activeBlock.width; x++) {
        for (y = 0; y < activeBlock.height; y++) {
 c0009fc:	e0bff417 	ldw	r2,-48(fp)
 c000a00:	10800044 	addi	r2,r2,1
 c000a04:	e0bff415 	stw	r2,-48(fp)
 c000a08:	e0bff617 	ldw	r2,-40(fp)
 c000a0c:	e0fff417 	ldw	r3,-48(fp)
 c000a10:	18bfd816 	blt	r3,r2,c000974 <__alt_data_end+0xfc000974>
void TetrisPrintBlock(TetrisGameState* state) {
    TetrisBlock activeBlock = state->activeBlock;

    int x, y;

    for (x = 0; x < activeBlock.width; x++) {
 c000a14:	e0bff317 	ldw	r2,-52(fp)
 c000a18:	10800044 	addi	r2,r2,1
 c000a1c:	e0bff315 	stw	r2,-52(fp)
 c000a20:	e0bff517 	ldw	r2,-44(fp)
 c000a24:	e0fff317 	ldw	r3,-52(fp)
 c000a28:	18bfd016 	blt	r3,r2,c00096c <__alt_data_end+0xfc00096c>
					//b.data[y][x];
					activeBlock.color;
            }
        }
    }
}
 c000a2c:	0001883a 	nop
 c000a30:	e037883a 	mov	sp,fp
 c000a34:	dfc00117 	ldw	ra,4(sp)
 c000a38:	df000017 	ldw	fp,0(sp)
 c000a3c:	dec00204 	addi	sp,sp,8
 c000a40:	f800283a 	ret

0c000a44 <TetrisRotateBlock>:

void TetrisRotateBlock(TetrisGameState* state) {
 c000a44:	deffe604 	addi	sp,sp,-104
 c000a48:	dfc01915 	stw	ra,100(sp)
 c000a4c:	df001815 	stw	fp,96(sp)
 c000a50:	dc001715 	stw	r16,92(sp)
 c000a54:	df001804 	addi	fp,sp,96
 c000a58:	e13ffe15 	stw	r4,-8(fp)
    TetrisBlock b = state->activeBlock;
 c000a5c:	e0bffe17 	ldw	r2,-8(fp)
 c000a60:	10c00517 	ldw	r3,20(r2)
 c000a64:	e0ffea15 	stw	r3,-88(fp)
 c000a68:	10c00617 	ldw	r3,24(r2)
 c000a6c:	e0ffeb15 	stw	r3,-84(fp)
 c000a70:	10c00717 	ldw	r3,28(r2)
 c000a74:	e0ffec15 	stw	r3,-80(fp)
 c000a78:	10c00817 	ldw	r3,32(r2)
 c000a7c:	e0ffed15 	stw	r3,-76(fp)
 c000a80:	10c00917 	ldw	r3,36(r2)
 c000a84:	e0ffee15 	stw	r3,-72(fp)
 c000a88:	10c00a17 	ldw	r3,40(r2)
 c000a8c:	e0ffef15 	stw	r3,-68(fp)
 c000a90:	10c00b17 	ldw	r3,44(r2)
 c000a94:	e0fff015 	stw	r3,-64(fp)
 c000a98:	10c00c17 	ldw	r3,48(r2)
 c000a9c:	e0fff115 	stw	r3,-60(fp)
 c000aa0:	10c00d17 	ldw	r3,52(r2)
 c000aa4:	e0fff215 	stw	r3,-56(fp)
 c000aa8:	10800e17 	ldw	r2,56(r2)
 c000aac:	e0bff315 	stw	r2,-52(fp)
    TetrisBlock s = b;
 c000ab0:	e0bfea17 	ldw	r2,-88(fp)
 c000ab4:	e0bff415 	stw	r2,-48(fp)
 c000ab8:	e0bfeb17 	ldw	r2,-84(fp)
 c000abc:	e0bff515 	stw	r2,-44(fp)
 c000ac0:	e0bfec17 	ldw	r2,-80(fp)
 c000ac4:	e0bff615 	stw	r2,-40(fp)
 c000ac8:	e0bfed17 	ldw	r2,-76(fp)
 c000acc:	e0bff715 	stw	r2,-36(fp)
 c000ad0:	e0bfee17 	ldw	r2,-72(fp)
 c000ad4:	e0bff815 	stw	r2,-32(fp)
 c000ad8:	e0bfef17 	ldw	r2,-68(fp)
 c000adc:	e0bff915 	stw	r2,-28(fp)
 c000ae0:	e0bff017 	ldw	r2,-64(fp)
 c000ae4:	e0bffa15 	stw	r2,-24(fp)
 c000ae8:	e0bff117 	ldw	r2,-60(fp)
 c000aec:	e0bffb15 	stw	r2,-20(fp)
 c000af0:	e0bff217 	ldw	r2,-56(fp)
 c000af4:	e0bffc15 	stw	r2,-16(fp)
 c000af8:	e0bff317 	ldw	r2,-52(fp)
 c000afc:	e0bffd15 	stw	r2,-12(fp)

    int x, y;

    b.width = s.height;
 c000b00:	e0bff517 	ldw	r2,-44(fp)
 c000b04:	e0bfea15 	stw	r2,-88(fp)
    b.height = s.width;
 c000b08:	e0bff417 	ldw	r2,-48(fp)
 c000b0c:	e0bfeb15 	stw	r2,-84(fp)

    for (x = 0; x < s.width; x++) {
 c000b10:	e03fe815 	stw	zero,-96(fp)
 c000b14:	00002206 	br	c000ba0 <TetrisRotateBlock+0x15c>
        for (y = 0; y < s.height; y++) {
 c000b18:	e03fe915 	stw	zero,-92(fp)
 c000b1c:	00001a06 	br	c000b88 <TetrisRotateBlock+0x144>
            b.data[x][y] = s.data[s.height - y - 1][x];
 c000b20:	e0fff517 	ldw	r3,-44(fp)
 c000b24:	e0bfe917 	ldw	r2,-92(fp)
 c000b28:	1885c83a 	sub	r2,r3,r2
 c000b2c:	10bfffc4 	addi	r2,r2,-1
 c000b30:	01400144 	movi	r5,5
 c000b34:	1009883a 	mov	r4,r2
 c000b38:	c0048a80 	call	c0048a8 <__mulsi3>
 c000b3c:	e13fe804 	addi	r4,fp,-96
 c000b40:	2087883a 	add	r3,r4,r2
 c000b44:	e0bfe817 	ldw	r2,-96(fp)
 c000b48:	1885883a 	add	r2,r3,r2
 c000b4c:	10800e04 	addi	r2,r2,56
 c000b50:	14000003 	ldbu	r16,0(r2)
 c000b54:	e0bfe817 	ldw	r2,-96(fp)
 c000b58:	01400144 	movi	r5,5
 c000b5c:	1009883a 	mov	r4,r2
 c000b60:	c0048a80 	call	c0048a8 <__mulsi3>
 c000b64:	e13fe804 	addi	r4,fp,-96
 c000b68:	2087883a 	add	r3,r4,r2
 c000b6c:	e0bfe917 	ldw	r2,-92(fp)
 c000b70:	1885883a 	add	r2,r3,r2
 c000b74:	10800404 	addi	r2,r2,16
 c000b78:	14000005 	stb	r16,0(r2)

    b.width = s.height;
    b.height = s.width;

    for (x = 0; x < s.width; x++) {
        for (y = 0; y < s.height; y++) {
 c000b7c:	e0bfe917 	ldw	r2,-92(fp)
 c000b80:	10800044 	addi	r2,r2,1
 c000b84:	e0bfe915 	stw	r2,-92(fp)
 c000b88:	e0bff517 	ldw	r2,-44(fp)
 c000b8c:	e0ffe917 	ldw	r3,-92(fp)
 c000b90:	18bfe316 	blt	r3,r2,c000b20 <__alt_data_end+0xfc000b20>
    int x, y;

    b.width = s.height;
    b.height = s.width;

    for (x = 0; x < s.width; x++) {
 c000b94:	e0bfe817 	ldw	r2,-96(fp)
 c000b98:	10800044 	addi	r2,r2,1
 c000b9c:	e0bfe815 	stw	r2,-96(fp)
 c000ba0:	e0bff417 	ldw	r2,-48(fp)
 c000ba4:	e0ffe817 	ldw	r3,-96(fp)
 c000ba8:	18bfdb16 	blt	r3,r2,c000b18 <__alt_data_end+0xfc000b18>
        for (y = 0; y < s.height; y++) {
            b.data[x][y] = s.data[s.height - y - 1][x];
        }
    }

    x = state->activeBlockX;
 c000bac:	e0bffe17 	ldw	r2,-8(fp)
 c000bb0:	10800f17 	ldw	r2,60(r2)
 c000bb4:	e0bfe815 	stw	r2,-96(fp)
    y = state->activeBlockY;
 c000bb8:	e0bffe17 	ldw	r2,-8(fp)
 c000bbc:	10801017 	ldw	r2,64(r2)
 c000bc0:	e0bfe915 	stw	r2,-92(fp)

    state->activeBlockX -= (b.width - s.width) / 2;
 c000bc4:	e0bffe17 	ldw	r2,-8(fp)
 c000bc8:	10c00f17 	ldw	r3,60(r2)
 c000bcc:	e13fea17 	ldw	r4,-88(fp)
 c000bd0:	e0bff417 	ldw	r2,-48(fp)
 c000bd4:	2085c83a 	sub	r2,r4,r2
 c000bd8:	1008d7fa 	srli	r4,r2,31
 c000bdc:	2085883a 	add	r2,r4,r2
 c000be0:	1005d07a 	srai	r2,r2,1
 c000be4:	1887c83a 	sub	r3,r3,r2
 c000be8:	e0bffe17 	ldw	r2,-8(fp)
 c000bec:	10c00f15 	stw	r3,60(r2)
    state->activeBlockY -= (b.height - s.height) / 2;
 c000bf0:	e0bffe17 	ldw	r2,-8(fp)
 c000bf4:	10c01017 	ldw	r3,64(r2)
 c000bf8:	e13feb17 	ldw	r4,-84(fp)
 c000bfc:	e0bff517 	ldw	r2,-44(fp)
 c000c00:	2085c83a 	sub	r2,r4,r2
 c000c04:	1008d7fa 	srli	r4,r2,31
 c000c08:	2085883a 	add	r2,r4,r2
 c000c0c:	1005d07a 	srai	r2,r2,1
 c000c10:	1887c83a 	sub	r3,r3,r2
 c000c14:	e0bffe17 	ldw	r2,-8(fp)
 c000c18:	10c01015 	stw	r3,64(r2)
    state->activeBlock = b;
 c000c1c:	e0bffe17 	ldw	r2,-8(fp)
 c000c20:	e0ffea17 	ldw	r3,-88(fp)
 c000c24:	10c00515 	stw	r3,20(r2)
 c000c28:	e0ffeb17 	ldw	r3,-84(fp)
 c000c2c:	10c00615 	stw	r3,24(r2)
 c000c30:	e0ffec17 	ldw	r3,-80(fp)
 c000c34:	10c00715 	stw	r3,28(r2)
 c000c38:	e0ffed17 	ldw	r3,-76(fp)
 c000c3c:	10c00815 	stw	r3,32(r2)
 c000c40:	e0ffee17 	ldw	r3,-72(fp)
 c000c44:	10c00915 	stw	r3,36(r2)
 c000c48:	e0ffef17 	ldw	r3,-68(fp)
 c000c4c:	10c00a15 	stw	r3,40(r2)
 c000c50:	e0fff017 	ldw	r3,-64(fp)
 c000c54:	10c00b15 	stw	r3,44(r2)
 c000c58:	e0fff117 	ldw	r3,-60(fp)
 c000c5c:	10c00c15 	stw	r3,48(r2)
 c000c60:	e0fff217 	ldw	r3,-56(fp)
 c000c64:	10c00d15 	stw	r3,52(r2)
 c000c68:	e0fff317 	ldw	r3,-52(fp)
 c000c6c:	10c00e15 	stw	r3,56(r2)

    if (TetrisCheckCollision(state)) {
 c000c70:	e13ffe17 	ldw	r4,-8(fp)
 c000c74:	c00041c0 	call	c00041c <TetrisCheckCollision>
 c000c78:	10001b26 	beq	r2,zero,c000ce8 <TetrisRotateBlock+0x2a4>
        state->activeBlock = s;
 c000c7c:	e0bffe17 	ldw	r2,-8(fp)
 c000c80:	e0fff417 	ldw	r3,-48(fp)
 c000c84:	10c00515 	stw	r3,20(r2)
 c000c88:	e0fff517 	ldw	r3,-44(fp)
 c000c8c:	10c00615 	stw	r3,24(r2)
 c000c90:	e0fff617 	ldw	r3,-40(fp)
 c000c94:	10c00715 	stw	r3,28(r2)
 c000c98:	e0fff717 	ldw	r3,-36(fp)
 c000c9c:	10c00815 	stw	r3,32(r2)
 c000ca0:	e0fff817 	ldw	r3,-32(fp)
 c000ca4:	10c00915 	stw	r3,36(r2)
 c000ca8:	e0fff917 	ldw	r3,-28(fp)
 c000cac:	10c00a15 	stw	r3,40(r2)
 c000cb0:	e0fffa17 	ldw	r3,-24(fp)
 c000cb4:	10c00b15 	stw	r3,44(r2)
 c000cb8:	e0fffb17 	ldw	r3,-20(fp)
 c000cbc:	10c00c15 	stw	r3,48(r2)
 c000cc0:	e0fffc17 	ldw	r3,-16(fp)
 c000cc4:	10c00d15 	stw	r3,52(r2)
 c000cc8:	e0fffd17 	ldw	r3,-12(fp)
 c000ccc:	10c00e15 	stw	r3,56(r2)
        state->activeBlockX = x;
 c000cd0:	e0bffe17 	ldw	r2,-8(fp)
 c000cd4:	e0ffe817 	ldw	r3,-96(fp)
 c000cd8:	10c00f15 	stw	r3,60(r2)
        state->activeBlockY = y;
 c000cdc:	e0bffe17 	ldw	r2,-8(fp)
 c000ce0:	e0ffe917 	ldw	r3,-92(fp)
 c000ce4:	10c01015 	stw	r3,64(r2)
    }
}
 c000ce8:	0001883a 	nop
 c000cec:	e6ffff04 	addi	sp,fp,-4
 c000cf0:	dfc00217 	ldw	ra,8(sp)
 c000cf4:	df000117 	ldw	fp,4(sp)
 c000cf8:	dc000017 	ldw	r16,0(sp)
 c000cfc:	dec00304 	addi	sp,sp,12
 c000d00:	f800283a 	ret

0c000d04 <TetrisFallBlocks>:

void TetrisFallBlocks(TetrisGameState* state) {
 c000d04:	defffd04 	addi	sp,sp,-12
 c000d08:	dfc00215 	stw	ra,8(sp)
 c000d0c:	df000115 	stw	fp,4(sp)
 c000d10:	df000104 	addi	fp,sp,4
 c000d14:	e13fff15 	stw	r4,-4(fp)
	++state->activeBlockY;
 c000d18:	e0bfff17 	ldw	r2,-4(fp)
 c000d1c:	10801017 	ldw	r2,64(r2)
 c000d20:	10c00044 	addi	r3,r2,1
 c000d24:	e0bfff17 	ldw	r2,-4(fp)
 c000d28:	10c01015 	stw	r3,64(r2)

	if (TetrisCheckCollision(state)) {
 c000d2c:	e13fff17 	ldw	r4,-4(fp)
 c000d30:	c00041c0 	call	c00041c <TetrisCheckCollision>
 c000d34:	10000926 	beq	r2,zero,c000d5c <TetrisFallBlocks+0x58>
		--state->activeBlockY;
 c000d38:	e0bfff17 	ldw	r2,-4(fp)
 c000d3c:	10801017 	ldw	r2,64(r2)
 c000d40:	10ffffc4 	addi	r3,r2,-1
 c000d44:	e0bfff17 	ldw	r2,-4(fp)
 c000d48:	10c01015 	stw	r3,64(r2)
		TetrisPrintBlock(state);
 c000d4c:	e13fff17 	ldw	r4,-4(fp)
 c000d50:	c0008fc0 	call	c0008fc <TetrisPrintBlock>
		TetrisCreateBlock(state);
 c000d54:	e13fff17 	ldw	r4,-4(fp)
 c000d58:	c0005d40 	call	c0005d4 <TetrisCreateBlock>
	}
}
 c000d5c:	0001883a 	nop
 c000d60:	e037883a 	mov	sp,fp
 c000d64:	dfc00117 	ldw	ra,4(sp)
 c000d68:	df000017 	ldw	fp,0(sp)
 c000d6c:	dec00204 	addi	sp,sp,8
 c000d70:	f800283a 	ret

0c000d74 <TetrisClearLine>:

void TetrisClearLine(TetrisGameState* state, int l) {
 c000d74:	defffb04 	addi	sp,sp,-20
 c000d78:	df000415 	stw	fp,16(sp)
 c000d7c:	df000404 	addi	fp,sp,16
 c000d80:	e13ffe15 	stw	r4,-8(fp)
 c000d84:	e17fff15 	stw	r5,-4(fp)
    int x, y;

    for (y = l; y > 4; --y) {
 c000d88:	e0bfff17 	ldw	r2,-4(fp)
 c000d8c:	e0bffd15 	stw	r2,-12(fp)
 c000d90:	00002706 	br	c000e30 <TetrisClearLine+0xbc>
        for (x = 0; x < state->boardWidth; x++) {
 c000d94:	e03ffc15 	stw	zero,-16(fp)
 c000d98:	00001e06 	br	c000e14 <TetrisClearLine+0xa0>
            state->board[x][y] = state->board[x][y - 1];
 c000d9c:	e0bffe17 	ldw	r2,-8(fp)
 c000da0:	10c00017 	ldw	r3,0(r2)
 c000da4:	e0bffc17 	ldw	r2,-16(fp)
 c000da8:	1085883a 	add	r2,r2,r2
 c000dac:	1085883a 	add	r2,r2,r2
 c000db0:	1885883a 	add	r2,r3,r2
 c000db4:	10c00017 	ldw	r3,0(r2)
 c000db8:	e0bffd17 	ldw	r2,-12(fp)
 c000dbc:	1085883a 	add	r2,r2,r2
 c000dc0:	1085883a 	add	r2,r2,r2
 c000dc4:	1887883a 	add	r3,r3,r2
 c000dc8:	e0bffe17 	ldw	r2,-8(fp)
 c000dcc:	11000017 	ldw	r4,0(r2)
 c000dd0:	e0bffc17 	ldw	r2,-16(fp)
 c000dd4:	1085883a 	add	r2,r2,r2
 c000dd8:	1085883a 	add	r2,r2,r2
 c000ddc:	2085883a 	add	r2,r4,r2
 c000de0:	11000017 	ldw	r4,0(r2)
 c000de4:	e17ffd17 	ldw	r5,-12(fp)
 c000de8:	00900034 	movhi	r2,16384
 c000dec:	10bfffc4 	addi	r2,r2,-1
 c000df0:	2885883a 	add	r2,r5,r2
 c000df4:	1085883a 	add	r2,r2,r2
 c000df8:	1085883a 	add	r2,r2,r2
 c000dfc:	2085883a 	add	r2,r4,r2
 c000e00:	10800017 	ldw	r2,0(r2)
 c000e04:	18800015 	stw	r2,0(r3)

void TetrisClearLine(TetrisGameState* state, int l) {
    int x, y;

    for (y = l; y > 4; --y) {
        for (x = 0; x < state->boardWidth; x++) {
 c000e08:	e0bffc17 	ldw	r2,-16(fp)
 c000e0c:	10800044 	addi	r2,r2,1
 c000e10:	e0bffc15 	stw	r2,-16(fp)
 c000e14:	e0bffe17 	ldw	r2,-8(fp)
 c000e18:	10800117 	ldw	r2,4(r2)
 c000e1c:	e0fffc17 	ldw	r3,-16(fp)
 c000e20:	18bfde16 	blt	r3,r2,c000d9c <__alt_data_end+0xfc000d9c>
}

void TetrisClearLine(TetrisGameState* state, int l) {
    int x, y;

    for (y = l; y > 4; --y) {
 c000e24:	e0bffd17 	ldw	r2,-12(fp)
 c000e28:	10bfffc4 	addi	r2,r2,-1
 c000e2c:	e0bffd15 	stw	r2,-12(fp)
 c000e30:	e0bffd17 	ldw	r2,-12(fp)
 c000e34:	10800148 	cmpgei	r2,r2,5
 c000e38:	103fd61e 	bne	r2,zero,c000d94 <__alt_data_end+0xfc000d94>
        for (x = 0; x < state->boardWidth; x++) {
            state->board[x][y] = state->board[x][y - 1];
        }
    }

    for (x = 0; x < state->boardWidth; x++) {
 c000e3c:	e03ffc15 	stw	zero,-16(fp)
 c000e40:	00000c06 	br	c000e74 <TetrisClearLine+0x100>
        //state->board[x][0] = ' ';
        state->board[x][0] = boardColor;
 c000e44:	e0bffe17 	ldw	r2,-8(fp)
 c000e48:	10c00017 	ldw	r3,0(r2)
 c000e4c:	e0bffc17 	ldw	r2,-16(fp)
 c000e50:	1085883a 	add	r2,r2,r2
 c000e54:	1085883a 	add	r2,r2,r2
 c000e58:	1885883a 	add	r2,r3,r2
 c000e5c:	10800017 	ldw	r2,0(r2)
 c000e60:	d0e00017 	ldw	r3,-32768(gp)
 c000e64:	10c00015 	stw	r3,0(r2)
        for (x = 0; x < state->boardWidth; x++) {
            state->board[x][y] = state->board[x][y - 1];
        }
    }

    for (x = 0; x < state->boardWidth; x++) {
 c000e68:	e0bffc17 	ldw	r2,-16(fp)
 c000e6c:	10800044 	addi	r2,r2,1
 c000e70:	e0bffc15 	stw	r2,-16(fp)
 c000e74:	e0bffe17 	ldw	r2,-8(fp)
 c000e78:	10800117 	ldw	r2,4(r2)
 c000e7c:	e0fffc17 	ldw	r3,-16(fp)
 c000e80:	18bff016 	blt	r3,r2,c000e44 <__alt_data_end+0xfc000e44>
        //state->board[x][0] = ' ';
        state->board[x][0] = boardColor;
    }
}
 c000e84:	0001883a 	nop
 c000e88:	e037883a 	mov	sp,fp
 c000e8c:	df000017 	ldw	fp,0(sp)
 c000e90:	dec00104 	addi	sp,sp,4
 c000e94:	f800283a 	ret

0c000e98 <TetrisCheckLineComplete>:

void TetrisCheckLineComplete(TetrisGameState* state) {
 c000e98:	defffa04 	addi	sp,sp,-24
 c000e9c:	dfc00515 	stw	ra,20(sp)
 c000ea0:	df000415 	stw	fp,16(sp)
 c000ea4:	df000404 	addi	fp,sp,16
 c000ea8:	e13fff15 	stw	r4,-4(fp)
    int x, y, l;

    for (y = state->boardHeight - 1; y >= 0; y--) {
 c000eac:	e0bfff17 	ldw	r2,-4(fp)
 c000eb0:	10800217 	ldw	r2,8(r2)
 c000eb4:	10bfffc4 	addi	r2,r2,-1
 c000eb8:	e0bffd15 	stw	r2,-12(fp)
 c000ebc:	00004006 	br	c000fc0 <TetrisCheckLineComplete+0x128>
        l = 1;
 c000ec0:	00800044 	movi	r2,1
 c000ec4:	e0bffe15 	stw	r2,-8(fp)

        for (x = 0; x < state->boardWidth && l; x++) {
 c000ec8:	e03ffc15 	stw	zero,-16(fp)
 c000ecc:	00001206 	br	c000f18 <TetrisCheckLineComplete+0x80>
            //if (state->board[x][y] == ' ')
            if (state->board[x][y] == boardColor) {
 c000ed0:	e0bfff17 	ldw	r2,-4(fp)
 c000ed4:	10c00017 	ldw	r3,0(r2)
 c000ed8:	e0bffc17 	ldw	r2,-16(fp)
 c000edc:	1085883a 	add	r2,r2,r2
 c000ee0:	1085883a 	add	r2,r2,r2
 c000ee4:	1885883a 	add	r2,r3,r2
 c000ee8:	10c00017 	ldw	r3,0(r2)
 c000eec:	e0bffd17 	ldw	r2,-12(fp)
 c000ef0:	1085883a 	add	r2,r2,r2
 c000ef4:	1085883a 	add	r2,r2,r2
 c000ef8:	1885883a 	add	r2,r3,r2
 c000efc:	10c00017 	ldw	r3,0(r2)
 c000f00:	d0a00017 	ldw	r2,-32768(gp)
 c000f04:	1880011e 	bne	r3,r2,c000f0c <TetrisCheckLineComplete+0x74>
                l = 0;
 c000f08:	e03ffe15 	stw	zero,-8(fp)
    int x, y, l;

    for (y = state->boardHeight - 1; y >= 0; y--) {
        l = 1;

        for (x = 0; x < state->boardWidth && l; x++) {
 c000f0c:	e0bffc17 	ldw	r2,-16(fp)
 c000f10:	10800044 	addi	r2,r2,1
 c000f14:	e0bffc15 	stw	r2,-16(fp)
 c000f18:	e0bfff17 	ldw	r2,-4(fp)
 c000f1c:	10800117 	ldw	r2,4(r2)
 c000f20:	e0fffc17 	ldw	r3,-16(fp)
 c000f24:	1880020e 	bge	r3,r2,c000f30 <TetrisCheckLineComplete+0x98>
 c000f28:	e0bffe17 	ldw	r2,-8(fp)
 c000f2c:	103fe81e 	bne	r2,zero,c000ed0 <__alt_data_end+0xfc000ed0>
            if (state->board[x][y] == boardColor) {
                l = 0;
            }
        }

        if (l) {
 c000f30:	e0bffe17 	ldw	r2,-8(fp)
 c000f34:	10001f26 	beq	r2,zero,c000fb4 <TetrisCheckLineComplete+0x11c>
            ++(state->completedLines);
 c000f38:	e0bfff17 	ldw	r2,-4(fp)
 c000f3c:	10800417 	ldw	r2,16(r2)
 c000f40:	10c00044 	addi	r3,r2,1
 c000f44:	e0bfff17 	ldw	r2,-4(fp)
 c000f48:	10c00415 	stw	r3,16(r2)
            TetrisClearLine(state, y);
 c000f4c:	e17ffd17 	ldw	r5,-12(fp)
 c000f50:	e13fff17 	ldw	r4,-4(fp)
 c000f54:	c000d740 	call	c000d74 <TetrisClearLine>
            score+=level/2*100;
 c000f58:	d0a00417 	ldw	r2,-32752(gp)
 c000f5c:	1006d7fa 	srli	r3,r2,31
 c000f60:	1885883a 	add	r2,r3,r2
 c000f64:	1005d07a 	srai	r2,r2,1
 c000f68:	01401904 	movi	r5,100
 c000f6c:	1009883a 	mov	r4,r2
 c000f70:	c0048a80 	call	c0048a8 <__mulsi3>
 c000f74:	1007883a 	mov	r3,r2
 c000f78:	d0a7a917 	ldw	r2,-24924(gp)
 c000f7c:	1885883a 	add	r2,r3,r2
 c000f80:	d0a7a915 	stw	r2,-24924(gp)
            printf("%d line(s) completed at %d score %d\n", state->completedLines, y, score);
 c000f84:	e0bfff17 	ldw	r2,-4(fp)
 c000f88:	10800417 	ldw	r2,16(r2)
 c000f8c:	d0e7a917 	ldw	r3,-24924(gp)
 c000f90:	180f883a 	mov	r7,r3
 c000f94:	e1bffd17 	ldw	r6,-12(fp)
 c000f98:	100b883a 	mov	r5,r2
 c000f9c:	010300b4 	movhi	r4,3074
 c000fa0:	21363c04 	addi	r4,r4,-10000
 c000fa4:	c0051340 	call	c005134 <printf>
            y++;
 c000fa8:	e0bffd17 	ldw	r2,-12(fp)
 c000fac:	10800044 	addi	r2,r2,1
 c000fb0:	e0bffd15 	stw	r2,-12(fp)
}

void TetrisCheckLineComplete(TetrisGameState* state) {
    int x, y, l;

    for (y = state->boardHeight - 1; y >= 0; y--) {
 c000fb4:	e0bffd17 	ldw	r2,-12(fp)
 c000fb8:	10bfffc4 	addi	r2,r2,-1
 c000fbc:	e0bffd15 	stw	r2,-12(fp)
 c000fc0:	e0bffd17 	ldw	r2,-12(fp)
 c000fc4:	103fbe0e 	bge	r2,zero,c000ec0 <__alt_data_end+0xfc000ec0>
            score+=level/2*100;
            printf("%d line(s) completed at %d score %d\n", state->completedLines, y, score);
            y++;
        }
    }
}
 c000fc8:	0001883a 	nop
 c000fcc:	e037883a 	mov	sp,fp
 c000fd0:	dfc00117 	ldw	ra,4(sp)
 c000fd4:	df000017 	ldw	fp,0(sp)
 c000fd8:	dec00204 	addi	sp,sp,8
 c000fdc:	f800283a 	ret

0c000fe0 <TetrisInputLeft>:

void TetrisInputLeft(TetrisGameState* state) {
 c000fe0:	defffd04 	addi	sp,sp,-12
 c000fe4:	dfc00215 	stw	ra,8(sp)
 c000fe8:	df000115 	stw	fp,4(sp)
 c000fec:	df000104 	addi	fp,sp,4
 c000ff0:	e13fff15 	stw	r4,-4(fp)
    --state->activeBlockX;
 c000ff4:	e0bfff17 	ldw	r2,-4(fp)
 c000ff8:	10800f17 	ldw	r2,60(r2)
 c000ffc:	10ffffc4 	addi	r3,r2,-1
 c001000:	e0bfff17 	ldw	r2,-4(fp)
 c001004:	10c00f15 	stw	r3,60(r2)

    if (TetrisCheckCollision(state)) ++state->activeBlockX;
 c001008:	e13fff17 	ldw	r4,-4(fp)
 c00100c:	c00041c0 	call	c00041c <TetrisCheckCollision>
 c001010:	10000526 	beq	r2,zero,c001028 <TetrisInputLeft+0x48>
 c001014:	e0bfff17 	ldw	r2,-4(fp)
 c001018:	10800f17 	ldw	r2,60(r2)
 c00101c:	10c00044 	addi	r3,r2,1
 c001020:	e0bfff17 	ldw	r2,-4(fp)
 c001024:	10c00f15 	stw	r3,60(r2)
}
 c001028:	0001883a 	nop
 c00102c:	e037883a 	mov	sp,fp
 c001030:	dfc00117 	ldw	ra,4(sp)
 c001034:	df000017 	ldw	fp,0(sp)
 c001038:	dec00204 	addi	sp,sp,8
 c00103c:	f800283a 	ret

0c001040 <TetrisInputRight>:

void TetrisInputRight(TetrisGameState* state) {
 c001040:	defffd04 	addi	sp,sp,-12
 c001044:	dfc00215 	stw	ra,8(sp)
 c001048:	df000115 	stw	fp,4(sp)
 c00104c:	df000104 	addi	fp,sp,4
 c001050:	e13fff15 	stw	r4,-4(fp)
    ++state->activeBlockX;
 c001054:	e0bfff17 	ldw	r2,-4(fp)
 c001058:	10800f17 	ldw	r2,60(r2)
 c00105c:	10c00044 	addi	r3,r2,1
 c001060:	e0bfff17 	ldw	r2,-4(fp)
 c001064:	10c00f15 	stw	r3,60(r2)

    if (TetrisCheckCollision(state)) --state->activeBlockX;
 c001068:	e13fff17 	ldw	r4,-4(fp)
 c00106c:	c00041c0 	call	c00041c <TetrisCheckCollision>
 c001070:	10000526 	beq	r2,zero,c001088 <TetrisInputRight+0x48>
 c001074:	e0bfff17 	ldw	r2,-4(fp)
 c001078:	10800f17 	ldw	r2,60(r2)
 c00107c:	10ffffc4 	addi	r3,r2,-1
 c001080:	e0bfff17 	ldw	r2,-4(fp)
 c001084:	10c00f15 	stw	r3,60(r2)
}
 c001088:	0001883a 	nop
 c00108c:	e037883a 	mov	sp,fp
 c001090:	dfc00117 	ldw	ra,4(sp)
 c001094:	df000017 	ldw	fp,0(sp)
 c001098:	dec00204 	addi	sp,sp,8
 c00109c:	f800283a 	ret

0c0010a0 <TetrisMain>:

void TetrisMain(int boardWidth, int boardHeight) {
 c0010a0:	deffea04 	addi	sp,sp,-88
 c0010a4:	dfc01515 	stw	ra,84(sp)
 c0010a8:	df001415 	stw	fp,80(sp)
 c0010ac:	df001404 	addi	fp,sp,80
 c0010b0:	e13ffe15 	stw	r4,-8(fp)
 c0010b4:	e17fff15 	stw	r5,-4(fp)
    TetrisGameState state;

    TetrisInitialize(&state, boardWidth, boardHeight);
 c0010b8:	e1bfff17 	ldw	r6,-4(fp)
 c0010bc:	e17ffe17 	ldw	r5,-8(fp)
 c0010c0:	e13fec04 	addi	r4,fp,-80
 c0010c4:	c00026c0 	call	c00026c <TetrisInitialize>
    TetrisCreateBlock(&state);
 c0010c8:	e13fec04 	addi	r4,fp,-80
 c0010cc:	c0005d40 	call	c0005d4 <TetrisCreateBlock>

    while (!state.dead)
 c0010d0:	00002706 	br	c001170 <TetrisMain+0xd0>
    {
        TetrisPrintBoard(&state);
 c0010d4:	e13fec04 	addi	r4,fp,-80
 c0010d8:	c0011ac0 	call	c0011ac <TetrisPrintBoard>
        TetrisFallBlocks(&state);
 c0010dc:	e13fec04 	addi	r4,fp,-80
 c0010e0:	c000d040 	call	c000d04 <TetrisFallBlocks>
        TetrisCheckLineComplete(&state);
 c0010e4:	e13fec04 	addi	r4,fp,-80
 c0010e8:	c000e980 	call	c000e98 <TetrisCheckLineComplete>

        char cmd;
        scanf("%c", &cmd);
 c0010ec:	e0bffd04 	addi	r2,fp,-12
 c0010f0:	100b883a 	mov	r5,r2
 c0010f4:	010300b4 	movhi	r4,3074
 c0010f8:	21364604 	addi	r4,r4,-9960
 c0010fc:	c0053140 	call	c005314 <scanf>

        switch (cmd)
 c001100:	e0bffd03 	ldbu	r2,-12(fp)
 c001104:	10803fcc 	andi	r2,r2,255
 c001108:	1080201c 	xori	r2,r2,128
 c00110c:	10bfe004 	addi	r2,r2,-128
 c001110:	10c01920 	cmpeqi	r3,r2,100
 c001114:	18000d1e 	bne	r3,zero,c00114c <TetrisMain+0xac>
 c001118:	10c01948 	cmpgei	r3,r2,101
 c00111c:	1800031e 	bne	r3,zero,c00112c <TetrisMain+0x8c>
 c001120:	10801860 	cmpeqi	r2,r2,97
 c001124:	1000061e 	bne	r2,zero,c001140 <TetrisMain+0xa0>
 c001128:	00001106 	br	c001170 <TetrisMain+0xd0>
 c00112c:	10c01ce0 	cmpeqi	r3,r2,115
 c001130:	1800091e 	bne	r3,zero,c001158 <TetrisMain+0xb8>
 c001134:	10801de0 	cmpeqi	r2,r2,119
 c001138:	10000a1e 	bne	r2,zero,c001164 <TetrisMain+0xc4>
 c00113c:	00000c06 	br	c001170 <TetrisMain+0xd0>
        {
            case 'a':
            {
                TetrisInputLeft(&state);
 c001140:	e13fec04 	addi	r4,fp,-80
 c001144:	c000fe00 	call	c000fe0 <TetrisInputLeft>
                break;
 c001148:	00000906 	br	c001170 <TetrisMain+0xd0>
            }

            case 'd':
            {
                TetrisInputRight(&state);
 c00114c:	e13fec04 	addi	r4,fp,-80
 c001150:	c0010400 	call	c001040 <TetrisInputRight>
                break;
 c001154:	00000606 	br	c001170 <TetrisMain+0xd0>
            }

            case 's':
            {
                TetrisFallBlocks(&state);
 c001158:	e13fec04 	addi	r4,fp,-80
 c00115c:	c000d040 	call	c000d04 <TetrisFallBlocks>
                break;
 c001160:	00000306 	br	c001170 <TetrisMain+0xd0>
            }

            case 'w':
            {
                TetrisRotateBlock(&state);
 c001164:	e13fec04 	addi	r4,fp,-80
 c001168:	c000a440 	call	c000a44 <TetrisRotateBlock>
                break;
 c00116c:	0001883a 	nop
    TetrisGameState state;

    TetrisInitialize(&state, boardWidth, boardHeight);
    TetrisCreateBlock(&state);

    while (!state.dead)
 c001170:	e0bfef17 	ldw	r2,-68(fp)
 c001174:	103fd726 	beq	r2,zero,c0010d4 <__alt_data_end+0xfc0010d4>
                break;
            }
        }
    }

    TetrisPrintBoard(&state);
 c001178:	e13fec04 	addi	r4,fp,-80
 c00117c:	c0011ac0 	call	c0011ac <TetrisPrintBoard>
    printf("GAME OVER\n");
 c001180:	010300b4 	movhi	r4,3074
 c001184:	21363904 	addi	r4,r4,-10012
 c001188:	c0052300 	call	c005230 <puts>

    TetrisCleanup(&state);
 c00118c:	e13fec04 	addi	r4,fp,-80
 c001190:	c0003980 	call	c000398 <TetrisCleanup>
}
 c001194:	0001883a 	nop
 c001198:	e037883a 	mov	sp,fp
 c00119c:	dfc00117 	ldw	ra,4(sp)
 c0011a0:	df000017 	ldw	fp,0(sp)
 c0011a4:	dec00204 	addi	sp,sp,8
 c0011a8:	f800283a 	ret

0c0011ac <TetrisPrintBoard>:

void TetrisPrintBoard(TetrisGameState* state, int givenX, int givenY) {
 c0011ac:	defff704 	addi	sp,sp,-36
 c0011b0:	dfc00815 	stw	ra,32(sp)
 c0011b4:	df000715 	stw	fp,28(sp)
 c0011b8:	dc400615 	stw	r17,24(sp)
 c0011bc:	dc000515 	stw	r16,20(sp)
 c0011c0:	df000704 	addi	fp,sp,28
 c0011c4:	e13ffb15 	stw	r4,-20(fp)
 c0011c8:	e17ffc15 	stw	r5,-16(fp)
 c0011cc:	e1bffd15 	stw	r6,-12(fp)
    int x, y;

    for (y = 4; y < state->boardHeight; y++) {
 c0011d0:	00800104 	movi	r2,4
 c0011d4:	e0bffa15 	stw	r2,-24(fp)
 c0011d8:	00007606 	br	c0013b4 <TetrisPrintBoard+0x208>
        for (x = 0; x < state->boardWidth; x++) {
 c0011dc:	e03ff915 	stw	zero,-28(fp)
 c0011e0:	00006d06 	br	c001398 <TetrisPrintBoard+0x1ec>
            if (x >= state->activeBlockX &&                              //
 c0011e4:	e0bffb17 	ldw	r2,-20(fp)
 c0011e8:	10800f17 	ldw	r2,60(r2)
 c0011ec:	e0fff917 	ldw	r3,-28(fp)
 c0011f0:	18803216 	blt	r3,r2,c0012bc <TetrisPrintBoard+0x110>
                y >= state->activeBlockY &&                              //
 c0011f4:	e0bffb17 	ldw	r2,-20(fp)
 c0011f8:	10801017 	ldw	r2,64(r2)
void TetrisPrintBoard(TetrisGameState* state, int givenX, int givenY) {
    int x, y;

    for (y = 4; y < state->boardHeight; y++) {
        for (x = 0; x < state->boardWidth; x++) {
            if (x >= state->activeBlockX &&                              //
 c0011fc:	e0fffa17 	ldw	r3,-24(fp)
 c001200:	18802e16 	blt	r3,r2,c0012bc <TetrisPrintBoard+0x110>
                y >= state->activeBlockY &&                              //
                x < (state->activeBlockX + state->activeBlock.width) &&  //
 c001204:	e0bffb17 	ldw	r2,-20(fp)
 c001208:	10c00f17 	ldw	r3,60(r2)
 c00120c:	e0bffb17 	ldw	r2,-20(fp)
 c001210:	10800517 	ldw	r2,20(r2)
 c001214:	1885883a 	add	r2,r3,r2
    int x, y;

    for (y = 4; y < state->boardHeight; y++) {
        for (x = 0; x < state->boardWidth; x++) {
            if (x >= state->activeBlockX &&                              //
                y >= state->activeBlockY &&                              //
 c001218:	e0fff917 	ldw	r3,-28(fp)
 c00121c:	1880270e 	bge	r3,r2,c0012bc <TetrisPrintBoard+0x110>
                x < (state->activeBlockX + state->activeBlock.width) &&  //
                y < (state->activeBlockY + state->activeBlock.height) && //
 c001220:	e0bffb17 	ldw	r2,-20(fp)
 c001224:	10c01017 	ldw	r3,64(r2)
 c001228:	e0bffb17 	ldw	r2,-20(fp)
 c00122c:	10800617 	ldw	r2,24(r2)
 c001230:	1885883a 	add	r2,r3,r2

    for (y = 4; y < state->boardHeight; y++) {
        for (x = 0; x < state->boardWidth; x++) {
            if (x >= state->activeBlockX &&                              //
                y >= state->activeBlockY &&                              //
                x < (state->activeBlockX + state->activeBlock.width) &&  //
 c001234:	e0fffa17 	ldw	r3,-24(fp)
 c001238:	1880200e 	bge	r3,r2,c0012bc <TetrisPrintBoard+0x110>
                y < (state->activeBlockY + state->activeBlock.height) && //
                state->activeBlock.data[y - state->activeBlockY]
 c00123c:	e0bffb17 	ldw	r2,-20(fp)
 c001240:	10801017 	ldw	r2,64(r2)
 c001244:	e0fffa17 	ldw	r3,-24(fp)
 c001248:	1889c83a 	sub	r4,r3,r2
                                       [x - state->activeBlockX] != ' ') {
 c00124c:	e0bffb17 	ldw	r2,-20(fp)
 c001250:	10800f17 	ldw	r2,60(r2)
 c001254:	e0fff917 	ldw	r3,-28(fp)
 c001258:	18a1c83a 	sub	r16,r3,r2
 c00125c:	e47ffb17 	ldw	r17,-20(fp)
 c001260:	01400144 	movi	r5,5
 c001264:	c0048a80 	call	c0048a8 <__mulsi3>
 c001268:	8885883a 	add	r2,r17,r2
 c00126c:	1405883a 	add	r2,r2,r16
 c001270:	10800704 	addi	r2,r2,28
 c001274:	10800003 	ldbu	r2,0(r2)
    for (y = 4; y < state->boardHeight; y++) {
        for (x = 0; x < state->boardWidth; x++) {
            if (x >= state->activeBlockX &&                              //
                y >= state->activeBlockY &&                              //
                x < (state->activeBlockX + state->activeBlock.width) &&  //
                y < (state->activeBlockY + state->activeBlock.height) && //
 c001278:	10803fcc 	andi	r2,r2,255
 c00127c:	1080201c 	xori	r2,r2,128
 c001280:	10bfe004 	addi	r2,r2,-128
 c001284:	10800820 	cmpeqi	r2,r2,32
 c001288:	10000c1e 	bne	r2,zero,c0012bc <TetrisPrintBoard+0x110>
                state->activeBlock.data[y - state->activeBlockY]
                                       [x - state->activeBlockX] != ' ') {
            	VGADrawColorBox(givenX+x,givenY+y, state->activeBlock.color);
 c00128c:	e0fffc17 	ldw	r3,-16(fp)
 c001290:	e0bff917 	ldw	r2,-28(fp)
 c001294:	1889883a 	add	r4,r3,r2
 c001298:	e0fffd17 	ldw	r3,-12(fp)
 c00129c:	e0bffa17 	ldw	r2,-24(fp)
 c0012a0:	1887883a 	add	r3,r3,r2
 c0012a4:	e0bffb17 	ldw	r2,-20(fp)
 c0012a8:	10800e17 	ldw	r2,56(r2)
 c0012ac:	100d883a 	mov	r6,r2
 c0012b0:	180b883a 	mov	r5,r3
 c0012b4:	c00255c0 	call	c00255c <VGADrawColorBox>
            if (x >= state->activeBlockX &&                              //
                y >= state->activeBlockY &&                              //
                x < (state->activeBlockX + state->activeBlock.width) &&  //
                y < (state->activeBlockY + state->activeBlock.height) && //
                state->activeBlock.data[y - state->activeBlockY]
                                       [x - state->activeBlockX] != ' ') {
 c0012b8:	00003406 	br	c00138c <TetrisPrintBoard+0x1e0>
            	VGADrawColorBox(givenX+x,givenY+y, state->activeBlock.color);
            } else {
                VGADrawColorBox(givenX+x,givenY+y,state->board[x][y]);
 c0012bc:	e0fffc17 	ldw	r3,-16(fp)
 c0012c0:	e0bff917 	ldw	r2,-28(fp)
 c0012c4:	1889883a 	add	r4,r3,r2
 c0012c8:	e0fffd17 	ldw	r3,-12(fp)
 c0012cc:	e0bffa17 	ldw	r2,-24(fp)
 c0012d0:	188b883a 	add	r5,r3,r2
 c0012d4:	e0bffb17 	ldw	r2,-20(fp)
 c0012d8:	10c00017 	ldw	r3,0(r2)
 c0012dc:	e0bff917 	ldw	r2,-28(fp)
 c0012e0:	1085883a 	add	r2,r2,r2
 c0012e4:	1085883a 	add	r2,r2,r2
 c0012e8:	1885883a 	add	r2,r3,r2
 c0012ec:	10c00017 	ldw	r3,0(r2)
 c0012f0:	e0bffa17 	ldw	r2,-24(fp)
 c0012f4:	1085883a 	add	r2,r2,r2
 c0012f8:	1085883a 	add	r2,r2,r2
 c0012fc:	1885883a 	add	r2,r3,r2
 c001300:	10800017 	ldw	r2,0(r2)
 c001304:	100d883a 	mov	r6,r2
 c001308:	c00255c0 	call	c00255c <VGADrawColorBox>
                if (state->board[x][y] != 1) printf("(%d,%d) %d",x,y,state->board[x][y]);
 c00130c:	e0bffb17 	ldw	r2,-20(fp)
 c001310:	10c00017 	ldw	r3,0(r2)
 c001314:	e0bff917 	ldw	r2,-28(fp)
 c001318:	1085883a 	add	r2,r2,r2
 c00131c:	1085883a 	add	r2,r2,r2
 c001320:	1885883a 	add	r2,r3,r2
 c001324:	10c00017 	ldw	r3,0(r2)
 c001328:	e0bffa17 	ldw	r2,-24(fp)
 c00132c:	1085883a 	add	r2,r2,r2
 c001330:	1085883a 	add	r2,r2,r2
 c001334:	1885883a 	add	r2,r3,r2
 c001338:	10800017 	ldw	r2,0(r2)
 c00133c:	10800060 	cmpeqi	r2,r2,1
 c001340:	1000121e 	bne	r2,zero,c00138c <TetrisPrintBoard+0x1e0>
 c001344:	e0bffb17 	ldw	r2,-20(fp)
 c001348:	10c00017 	ldw	r3,0(r2)
 c00134c:	e0bff917 	ldw	r2,-28(fp)
 c001350:	1085883a 	add	r2,r2,r2
 c001354:	1085883a 	add	r2,r2,r2
 c001358:	1885883a 	add	r2,r3,r2
 c00135c:	10c00017 	ldw	r3,0(r2)
 c001360:	e0bffa17 	ldw	r2,-24(fp)
 c001364:	1085883a 	add	r2,r2,r2
 c001368:	1085883a 	add	r2,r2,r2
 c00136c:	1885883a 	add	r2,r3,r2
 c001370:	10800017 	ldw	r2,0(r2)
 c001374:	100f883a 	mov	r7,r2
 c001378:	e1bffa17 	ldw	r6,-24(fp)
 c00137c:	e17ff917 	ldw	r5,-28(fp)
 c001380:	010300b4 	movhi	r4,3074
 c001384:	21364704 	addi	r4,r4,-9956
 c001388:	c0051340 	call	c005134 <printf>

void TetrisPrintBoard(TetrisGameState* state, int givenX, int givenY) {
    int x, y;

    for (y = 4; y < state->boardHeight; y++) {
        for (x = 0; x < state->boardWidth; x++) {
 c00138c:	e0bff917 	ldw	r2,-28(fp)
 c001390:	10800044 	addi	r2,r2,1
 c001394:	e0bff915 	stw	r2,-28(fp)
 c001398:	e0bffb17 	ldw	r2,-20(fp)
 c00139c:	10800117 	ldw	r2,4(r2)
 c0013a0:	e0fff917 	ldw	r3,-28(fp)
 c0013a4:	18bf8f16 	blt	r3,r2,c0011e4 <__alt_data_end+0xfc0011e4>
}

void TetrisPrintBoard(TetrisGameState* state, int givenX, int givenY) {
    int x, y;

    for (y = 4; y < state->boardHeight; y++) {
 c0013a8:	e0bffa17 	ldw	r2,-24(fp)
 c0013ac:	10800044 	addi	r2,r2,1
 c0013b0:	e0bffa15 	stw	r2,-24(fp)
 c0013b4:	e0bffb17 	ldw	r2,-20(fp)
 c0013b8:	10800217 	ldw	r2,8(r2)
 c0013bc:	e0fffa17 	ldw	r3,-24(fp)
 c0013c0:	18bf8616 	blt	r3,r2,c0011dc <__alt_data_end+0xfc0011dc>
                VGADrawColorBox(givenX+x,givenY+y,state->board[x][y]);
                if (state->board[x][y] != 1) printf("(%d,%d) %d",x,y,state->board[x][y]);
            }
        }
    }
}
 c0013c4:	0001883a 	nop
 c0013c8:	e6fffe04 	addi	sp,fp,-8
 c0013cc:	dfc00317 	ldw	ra,12(sp)
 c0013d0:	df000217 	ldw	fp,8(sp)
 c0013d4:	dc400117 	ldw	r17,4(sp)
 c0013d8:	dc000017 	ldw	r16,0(sp)
 c0013dc:	dec00404 	addi	sp,sp,16
 c0013e0:	f800283a 	ret

0c0013e4 <paintScreen>:

void paintScreen() {
 c0013e4:	defffb04 	addi	sp,sp,-20
 c0013e8:	dfc00415 	stw	ra,16(sp)
 c0013ec:	df000315 	stw	fp,12(sp)
 c0013f0:	dc000215 	stw	r16,8(sp)
 c0013f4:	df000304 	addi	fp,sp,12
	for (int x = 0; x < 80; x++) {
 c0013f8:	e03ffd15 	stw	zero,-12(fp)
 c0013fc:	00001c06 	br	c001470 <paintScreen+0x8c>
		for (int y = 0; y < 60; y++) {
 c001400:	e03ffe15 	stw	zero,-8(fp)
 c001404:	00001406 	br	c001458 <paintScreen+0x74>
        	VGADrawColorBox(x,y, colorValues[x][y]);
 c001408:	040300b4 	movhi	r16,3074
 c00140c:	8407f404 	addi	r16,r16,8144
 c001410:	e0bffd17 	ldw	r2,-12(fp)
 c001414:	01400f04 	movi	r5,60
 c001418:	1009883a 	mov	r4,r2
 c00141c:	c0048a80 	call	c0048a8 <__mulsi3>
 c001420:	1007883a 	mov	r3,r2
 c001424:	e0bffe17 	ldw	r2,-8(fp)
 c001428:	1885883a 	add	r2,r3,r2
 c00142c:	1085883a 	add	r2,r2,r2
 c001430:	1085883a 	add	r2,r2,r2
 c001434:	8085883a 	add	r2,r16,r2
 c001438:	10800017 	ldw	r2,0(r2)
 c00143c:	100d883a 	mov	r6,r2
 c001440:	e17ffe17 	ldw	r5,-8(fp)
 c001444:	e13ffd17 	ldw	r4,-12(fp)
 c001448:	c00255c0 	call	c00255c <VGADrawColorBox>
    }
}

void paintScreen() {
	for (int x = 0; x < 80; x++) {
		for (int y = 0; y < 60; y++) {
 c00144c:	e0bffe17 	ldw	r2,-8(fp)
 c001450:	10800044 	addi	r2,r2,1
 c001454:	e0bffe15 	stw	r2,-8(fp)
 c001458:	e0bffe17 	ldw	r2,-8(fp)
 c00145c:	10800f10 	cmplti	r2,r2,60
 c001460:	103fe91e 	bne	r2,zero,c001408 <__alt_data_end+0xfc001408>
        }
    }
}

void paintScreen() {
	for (int x = 0; x < 80; x++) {
 c001464:	e0bffd17 	ldw	r2,-12(fp)
 c001468:	10800044 	addi	r2,r2,1
 c00146c:	e0bffd15 	stw	r2,-12(fp)
 c001470:	e0bffd17 	ldw	r2,-12(fp)
 c001474:	10801410 	cmplti	r2,r2,80
 c001478:	103fe11e 	bne	r2,zero,c001400 <__alt_data_end+0xfc001400>
		for (int y = 0; y < 60; y++) {
        	VGADrawColorBox(x,y, colorValues[x][y]);
		}
	}
}
 c00147c:	0001883a 	nop
 c001480:	e6ffff04 	addi	sp,fp,-4
 c001484:	dfc00217 	ldw	ra,8(sp)
 c001488:	df000117 	ldw	fp,4(sp)
 c00148c:	dc000017 	ldw	r16,0(sp)
 c001490:	dec00304 	addi	sp,sp,12
 c001494:	f800283a 	ret

0c001498 <GetDriverandReport>:

static BYTE addr = 1; 				//hard-wired USB address
const char* const devclasses[] = { " Uninitialized", " HID Keyboard", " HID Mouse", " Mass storage" };


BYTE GetDriverandReport() {
 c001498:	defff604 	addi	sp,sp,-40
 c00149c:	dfc00915 	stw	ra,36(sp)
 c0014a0:	df000815 	stw	fp,32(sp)
 c0014a4:	df000804 	addi	fp,sp,32
	BYTE i;
	BYTE rcode;
	BYTE device = 0xFF;
 c0014a8:	00bfffc4 	movi	r2,-1
 c0014ac:	e0bffd45 	stb	r2,-11(fp)
	BYTE tmpbyte;

	DEV_RECORD* tpl_ptr;
	printf("Reached USB_STATE_RUNNING (0x40)\n");
 c0014b0:	010300b4 	movhi	r4,3074
 c0014b4:	21365d04 	addi	r4,r4,-9868
 c0014b8:	c0052300 	call	c005230 <puts>
	for (i = 1; i < USB_NUMDEVICES; i++) {
 c0014bc:	00800044 	movi	r2,1
 c0014c0:	e0bffd05 	stb	r2,-12(fp)
 c0014c4:	00001f06 	br	c001544 <GetDriverandReport+0xac>
		tpl_ptr = GetDevtable(i);
 c0014c8:	e0bffd03 	ldbu	r2,-12(fp)
 c0014cc:	1009883a 	mov	r4,r2
 c0014d0:	c0046380 	call	c004638 <GetDevtable>
 c0014d4:	e0bffe15 	stw	r2,-8(fp)
		if (tpl_ptr->epinfo != NULL) {
 c0014d8:	e0bffe17 	ldw	r2,-8(fp)
 c0014dc:	10800017 	ldw	r2,0(r2)
 c0014e0:	10001526 	beq	r2,zero,c001538 <GetDriverandReport+0xa0>
			printf("Device: %d", i);
 c0014e4:	e0bffd03 	ldbu	r2,-12(fp)
 c0014e8:	100b883a 	mov	r5,r2
 c0014ec:	010300b4 	movhi	r4,3074
 c0014f0:	21366604 	addi	r4,r4,-9832
 c0014f4:	c0051340 	call	c005134 <printf>
			printf("%s \n", devclasses[tpl_ptr->devclass]);
 c0014f8:	e0bffe17 	ldw	r2,-8(fp)
 c0014fc:	10800103 	ldbu	r2,4(r2)
 c001500:	10c03fcc 	andi	r3,r2,255
 c001504:	008300b4 	movhi	r2,3074
 c001508:	10b65904 	addi	r2,r2,-9884
 c00150c:	18c7883a 	add	r3,r3,r3
 c001510:	18c7883a 	add	r3,r3,r3
 c001514:	10c5883a 	add	r2,r2,r3
 c001518:	10800017 	ldw	r2,0(r2)
 c00151c:	100b883a 	mov	r5,r2
 c001520:	010300b4 	movhi	r4,3074
 c001524:	21366904 	addi	r4,r4,-9820
 c001528:	c0051340 	call	c005134 <printf>
			device = tpl_ptr->devclass;
 c00152c:	e0bffe17 	ldw	r2,-8(fp)
 c001530:	10800103 	ldbu	r2,4(r2)
 c001534:	e0bffd45 	stb	r2,-11(fp)
	BYTE device = 0xFF;
	BYTE tmpbyte;

	DEV_RECORD* tpl_ptr;
	printf("Reached USB_STATE_RUNNING (0x40)\n");
	for (i = 1; i < USB_NUMDEVICES; i++) {
 c001538:	e0bffd03 	ldbu	r2,-12(fp)
 c00153c:	10800044 	addi	r2,r2,1
 c001540:	e0bffd05 	stb	r2,-12(fp)
 c001544:	e0bffd03 	ldbu	r2,-12(fp)
 c001548:	10800230 	cmpltui	r2,r2,8
 c00154c:	103fde1e 	bne	r2,zero,c0014c8 <__alt_data_end+0xfc0014c8>
			printf("%s \n", devclasses[tpl_ptr->devclass]);
			device = tpl_ptr->devclass;
		}
	}
	//Query rate and protocol
	rcode = XferGetIdle(addr, 0, hid_device.interface, 0, &tmpbyte);
 c001550:	d0a00503 	ldbu	r2,-32748(gp)
 c001554:	11003fcc 	andi	r4,r2,255
 c001558:	d0a7aa43 	ldbu	r2,-24919(gp)
 c00155c:	10803fcc 	andi	r2,r2,255
 c001560:	e0ffff44 	addi	r3,fp,-3
 c001564:	d8c00415 	stw	r3,16(sp)
 c001568:	00c00044 	movi	r3,1
 c00156c:	d8c00315 	stw	r3,12(sp)
 c001570:	d8800215 	stw	r2,8(sp)
 c001574:	d8000115 	stw	zero,4(sp)
 c001578:	d8000015 	stw	zero,0(sp)
 c00157c:	01c00084 	movi	r7,2
 c001580:	01802844 	movi	r6,161
 c001584:	000b883a 	mov	r5,zero
 c001588:	c00385c0 	call	c00385c <XferCtrlReq>
 c00158c:	e0bfff05 	stb	r2,-4(fp)
	if (rcode) {   //error handling
 c001590:	e0bfff03 	ldbu	r2,-4(fp)
 c001594:	10000926 	beq	r2,zero,c0015bc <GetDriverandReport+0x124>
		printf("GetIdle Error. Error code: ");
 c001598:	010300b4 	movhi	r4,3074
 c00159c:	21366b04 	addi	r4,r4,-9812
 c0015a0:	c0051340 	call	c005134 <printf>
		printf("%x \n", rcode);
 c0015a4:	e0bfff03 	ldbu	r2,-4(fp)
 c0015a8:	100b883a 	mov	r5,r2
 c0015ac:	010300b4 	movhi	r4,3074
 c0015b0:	21367204 	addi	r4,r4,-9784
 c0015b4:	c0051340 	call	c005134 <printf>
 c0015b8:	00000906 	br	c0015e0 <GetDriverandReport+0x148>
	} else {
		printf("Update rate: ");
 c0015bc:	010300b4 	movhi	r4,3074
 c0015c0:	21367404 	addi	r4,r4,-9776
 c0015c4:	c0051340 	call	c005134 <printf>
		printf("%x \n", tmpbyte);
 c0015c8:	e0bfff43 	ldbu	r2,-3(fp)
 c0015cc:	10803fcc 	andi	r2,r2,255
 c0015d0:	100b883a 	mov	r5,r2
 c0015d4:	010300b4 	movhi	r4,3074
 c0015d8:	21367204 	addi	r4,r4,-9784
 c0015dc:	c0051340 	call	c005134 <printf>
	}
	printf("Protocol: ");
 c0015e0:	010300b4 	movhi	r4,3074
 c0015e4:	21367804 	addi	r4,r4,-9760
 c0015e8:	c0051340 	call	c005134 <printf>
	rcode = XferGetProto(addr, 0, hid_device.interface, &tmpbyte);
 c0015ec:	d0a00503 	ldbu	r2,-32748(gp)
 c0015f0:	11003fcc 	andi	r4,r2,255
 c0015f4:	d0a7aa43 	ldbu	r2,-24919(gp)
 c0015f8:	10803fcc 	andi	r2,r2,255
 c0015fc:	e0ffff44 	addi	r3,fp,-3
 c001600:	d8c00415 	stw	r3,16(sp)
 c001604:	00c00044 	movi	r3,1
 c001608:	d8c00315 	stw	r3,12(sp)
 c00160c:	d8800215 	stw	r2,8(sp)
 c001610:	d8000115 	stw	zero,4(sp)
 c001614:	d8000015 	stw	zero,0(sp)
 c001618:	01c000c4 	movi	r7,3
 c00161c:	01802844 	movi	r6,161
 c001620:	000b883a 	mov	r5,zero
 c001624:	c00385c0 	call	c00385c <XferCtrlReq>
 c001628:	e0bfff05 	stb	r2,-4(fp)
	if (rcode) {   //error handling
 c00162c:	e0bfff03 	ldbu	r2,-4(fp)
 c001630:	10000926 	beq	r2,zero,c001658 <GetDriverandReport+0x1c0>
		printf("GetProto Error. Error code ");
 c001634:	010300b4 	movhi	r4,3074
 c001638:	21367b04 	addi	r4,r4,-9748
 c00163c:	c0051340 	call	c005134 <printf>
		printf("%x \n", rcode);
 c001640:	e0bfff03 	ldbu	r2,-4(fp)
 c001644:	100b883a 	mov	r5,r2
 c001648:	010300b4 	movhi	r4,3074
 c00164c:	21367204 	addi	r4,r4,-9784
 c001650:	c0051340 	call	c005134 <printf>
 c001654:	00000606 	br	c001670 <GetDriverandReport+0x1d8>
	} else {
		printf("%d \n", tmpbyte);
 c001658:	e0bfff43 	ldbu	r2,-3(fp)
 c00165c:	10803fcc 	andi	r2,r2,255
 c001660:	100b883a 	mov	r5,r2
 c001664:	010300b4 	movhi	r4,3074
 c001668:	21368204 	addi	r4,r4,-9720
 c00166c:	c0051340 	call	c005134 <printf>
	}
	return device;
 c001670:	e0bffd43 	ldbu	r2,-11(fp)
}
 c001674:	e037883a 	mov	sp,fp
 c001678:	dfc00117 	ldw	ra,4(sp)
 c00167c:	df000017 	ldw	fp,0(sp)
 c001680:	dec00204 	addi	sp,sp,8
 c001684:	f800283a 	ret

0c001688 <setLED>:

void setLED(int LED) {
 c001688:	defffe04 	addi	sp,sp,-8
 c00168c:	df000115 	stw	fp,4(sp)
 c001690:	df000104 	addi	fp,sp,4
 c001694:	e13fff15 	stw	r4,-4(fp)
	IOWR_ALTERA_AVALON_PIO_DATA(LEDS_PIO_BASE,
 c001698:	00806804 	movi	r2,416
 c00169c:	10c00037 	ldwio	r3,0(r2)
 c0016a0:	01000044 	movi	r4,1
 c0016a4:	e0bfff17 	ldw	r2,-4(fp)
 c0016a8:	2084983a 	sll	r2,r4,r2
 c0016ac:	1886b03a 	or	r3,r3,r2
 c0016b0:	00806804 	movi	r2,416
 c0016b4:	10c00035 	stwio	r3,0(r2)
			(IORD_ALTERA_AVALON_PIO_DATA(LEDS_PIO_BASE) | (0x001 << LED)));
}
 c0016b8:	0001883a 	nop
 c0016bc:	e037883a 	mov	sp,fp
 c0016c0:	df000017 	ldw	fp,0(sp)
 c0016c4:	dec00104 	addi	sp,sp,4
 c0016c8:	f800283a 	ret

0c0016cc <clearLED>:

void clearLED(int LED) {
 c0016cc:	defffe04 	addi	sp,sp,-8
 c0016d0:	df000115 	stw	fp,4(sp)
 c0016d4:	df000104 	addi	fp,sp,4
 c0016d8:	e13fff15 	stw	r4,-4(fp)
	IOWR_ALTERA_AVALON_PIO_DATA(LEDS_PIO_BASE,
 c0016dc:	00806804 	movi	r2,416
 c0016e0:	10c00037 	ldwio	r3,0(r2)
 c0016e4:	01000044 	movi	r4,1
 c0016e8:	e0bfff17 	ldw	r2,-4(fp)
 c0016ec:	2084983a 	sll	r2,r4,r2
 c0016f0:	0084303a 	nor	r2,zero,r2
 c0016f4:	1886703a 	and	r3,r3,r2
 c0016f8:	00806804 	movi	r2,416
 c0016fc:	10c00035 	stwio	r3,0(r2)
			(IORD_ALTERA_AVALON_PIO_DATA(LEDS_PIO_BASE) & ~(0x001 << LED)));

}
 c001700:	0001883a 	nop
 c001704:	e037883a 	mov	sp,fp
 c001708:	df000017 	ldw	fp,0(sp)
 c00170c:	dec00104 	addi	sp,sp,4
 c001710:	f800283a 	ret

0c001714 <printSignedHex0>:

void printSignedHex0(signed char value) {
 c001714:	defffc04 	addi	sp,sp,-16
 c001718:	dfc00315 	stw	ra,12(sp)
 c00171c:	df000215 	stw	fp,8(sp)
 c001720:	df000204 	addi	fp,sp,8
 c001724:	2005883a 	mov	r2,r4
 c001728:	e0bfff05 	stb	r2,-4(fp)
	BYTE tens = 0;
 c00172c:	e03ffe05 	stb	zero,-8(fp)
	BYTE ones = 0;
 c001730:	e03ffe45 	stb	zero,-7(fp)
	WORD pio_val = IORD_ALTERA_AVALON_PIO_DATA(HEX_DIGITS_PIO_BASE);
 c001734:	00805404 	movi	r2,336
 c001738:	10800037 	ldwio	r2,0(r2)
 c00173c:	e0bffe8d 	sth	r2,-6(fp)
	if (value < 0) {
 c001740:	e0bfff07 	ldb	r2,-4(fp)
 c001744:	1000060e 	bge	r2,zero,c001760 <printSignedHex0+0x4c>
		setLED(11);
 c001748:	010002c4 	movi	r4,11
 c00174c:	c0016880 	call	c001688 <setLED>
		value = -value;
 c001750:	e0bfff03 	ldbu	r2,-4(fp)
 c001754:	0085c83a 	sub	r2,zero,r2
 c001758:	e0bfff05 	stb	r2,-4(fp)
 c00175c:	00000206 	br	c001768 <printSignedHex0+0x54>
	} else {
		clearLED(11);
 c001760:	010002c4 	movi	r4,11
 c001764:	c0016cc0 	call	c0016cc <clearLED>
	}
	//handled hundreds
	if (value / 100)
 c001768:	e0bfff03 	ldbu	r2,-4(fp)
 c00176c:	108018c4 	addi	r2,r2,99
 c001770:	10803fcc 	andi	r2,r2,255
 c001774:	108031f0 	cmpltui	r2,r2,199
 c001778:	1000031e 	bne	r2,zero,c001788 <printSignedHex0+0x74>
		setLED(13);
 c00177c:	01000344 	movi	r4,13
 c001780:	c0016880 	call	c001688 <setLED>
 c001784:	00000206 	br	c001790 <printSignedHex0+0x7c>
	else
		clearLED(13);
 c001788:	01000344 	movi	r4,13
 c00178c:	c0016cc0 	call	c0016cc <clearLED>

	value = value % 100;
 c001790:	e0bfff07 	ldb	r2,-4(fp)
 c001794:	01401904 	movi	r5,100
 c001798:	1009883a 	mov	r4,r2
 c00179c:	c0047780 	call	c004778 <__modsi3>
 c0017a0:	e0bfff05 	stb	r2,-4(fp)
	tens = value / 10;
 c0017a4:	e0bfff07 	ldb	r2,-4(fp)
 c0017a8:	01400284 	movi	r5,10
 c0017ac:	1009883a 	mov	r4,r2
 c0017b0:	c0046f40 	call	c0046f4 <__divsi3>
 c0017b4:	e0bffe05 	stb	r2,-8(fp)
	ones = value % 10;
 c0017b8:	e0bfff07 	ldb	r2,-4(fp)
 c0017bc:	01400284 	movi	r5,10
 c0017c0:	1009883a 	mov	r4,r2
 c0017c4:	c0047780 	call	c004778 <__modsi3>
 c0017c8:	e0bffe45 	stb	r2,-7(fp)

	pio_val &= 0x00FF;
 c0017cc:	e0bffe8b 	ldhu	r2,-6(fp)
 c0017d0:	10803fcc 	andi	r2,r2,255
 c0017d4:	e0bffe8d 	sth	r2,-6(fp)
	pio_val |= (tens << 12);
 c0017d8:	e0bffe03 	ldbu	r2,-8(fp)
 c0017dc:	1004933a 	slli	r2,r2,12
 c0017e0:	1007883a 	mov	r3,r2
 c0017e4:	e0bffe8b 	ldhu	r2,-6(fp)
 c0017e8:	1884b03a 	or	r2,r3,r2
 c0017ec:	e0bffe8d 	sth	r2,-6(fp)
	pio_val |= (ones << 8);
 c0017f0:	e0bffe43 	ldbu	r2,-7(fp)
 c0017f4:	1004923a 	slli	r2,r2,8
 c0017f8:	1007883a 	mov	r3,r2
 c0017fc:	e0bffe8b 	ldhu	r2,-6(fp)
 c001800:	1884b03a 	or	r2,r3,r2
 c001804:	e0bffe8d 	sth	r2,-6(fp)

	IOWR_ALTERA_AVALON_PIO_DATA(HEX_DIGITS_PIO_BASE, pio_val);
 c001808:	e0fffe8b 	ldhu	r3,-6(fp)
 c00180c:	00805404 	movi	r2,336
 c001810:	10c00035 	stwio	r3,0(r2)
}
 c001814:	0001883a 	nop
 c001818:	e037883a 	mov	sp,fp
 c00181c:	dfc00117 	ldw	ra,4(sp)
 c001820:	df000017 	ldw	fp,0(sp)
 c001824:	dec00204 	addi	sp,sp,8
 c001828:	f800283a 	ret

0c00182c <printSignedHex1>:

void printSignedHex1(signed char value) {
 c00182c:	defffb04 	addi	sp,sp,-20
 c001830:	dfc00415 	stw	ra,16(sp)
 c001834:	df000315 	stw	fp,12(sp)
 c001838:	df000304 	addi	fp,sp,12
 c00183c:	2005883a 	mov	r2,r4
 c001840:	e0bfff05 	stb	r2,-4(fp)
	BYTE tens = 0;
 c001844:	e03ffd05 	stb	zero,-12(fp)
	BYTE ones = 0;
 c001848:	e03ffd45 	stb	zero,-11(fp)
	DWORD pio_val = IORD_ALTERA_AVALON_PIO_DATA(HEX_DIGITS_PIO_BASE);
 c00184c:	00805404 	movi	r2,336
 c001850:	10800037 	ldwio	r2,0(r2)
 c001854:	e0bffe15 	stw	r2,-8(fp)
	if (value < 0) {
 c001858:	e0bfff07 	ldb	r2,-4(fp)
 c00185c:	1000060e 	bge	r2,zero,c001878 <printSignedHex1+0x4c>
		setLED(10);
 c001860:	01000284 	movi	r4,10
 c001864:	c0016880 	call	c001688 <setLED>
		value = -value;
 c001868:	e0bfff03 	ldbu	r2,-4(fp)
 c00186c:	0085c83a 	sub	r2,zero,r2
 c001870:	e0bfff05 	stb	r2,-4(fp)
 c001874:	00000206 	br	c001880 <printSignedHex1+0x54>
	} else {
		clearLED(10);
 c001878:	01000284 	movi	r4,10
 c00187c:	c0016cc0 	call	c0016cc <clearLED>
	}
	//handled hundreds
	if (value / 100)
 c001880:	e0bfff03 	ldbu	r2,-4(fp)
 c001884:	108018c4 	addi	r2,r2,99
 c001888:	10803fcc 	andi	r2,r2,255
 c00188c:	108031f0 	cmpltui	r2,r2,199
 c001890:	1000031e 	bne	r2,zero,c0018a0 <printSignedHex1+0x74>
		setLED(12);
 c001894:	01000304 	movi	r4,12
 c001898:	c0016880 	call	c001688 <setLED>
 c00189c:	00000206 	br	c0018a8 <printSignedHex1+0x7c>
	else
		clearLED(12);
 c0018a0:	01000304 	movi	r4,12
 c0018a4:	c0016cc0 	call	c0016cc <clearLED>

	value = value % 100;
 c0018a8:	e0bfff07 	ldb	r2,-4(fp)
 c0018ac:	01401904 	movi	r5,100
 c0018b0:	1009883a 	mov	r4,r2
 c0018b4:	c0047780 	call	c004778 <__modsi3>
 c0018b8:	e0bfff05 	stb	r2,-4(fp)
	tens = value / 10;
 c0018bc:	e0bfff07 	ldb	r2,-4(fp)
 c0018c0:	01400284 	movi	r5,10
 c0018c4:	1009883a 	mov	r4,r2
 c0018c8:	c0046f40 	call	c0046f4 <__divsi3>
 c0018cc:	e0bffd05 	stb	r2,-12(fp)
	ones = value % 10;
 c0018d0:	e0bfff07 	ldb	r2,-4(fp)
 c0018d4:	01400284 	movi	r5,10
 c0018d8:	1009883a 	mov	r4,r2
 c0018dc:	c0047780 	call	c004778 <__modsi3>
 c0018e0:	e0bffd45 	stb	r2,-11(fp)
	tens = value / 10;
 c0018e4:	e0bfff07 	ldb	r2,-4(fp)
 c0018e8:	01400284 	movi	r5,10
 c0018ec:	1009883a 	mov	r4,r2
 c0018f0:	c0046f40 	call	c0046f4 <__divsi3>
 c0018f4:	e0bffd05 	stb	r2,-12(fp)
	ones = value % 10;
 c0018f8:	e0bfff07 	ldb	r2,-4(fp)
 c0018fc:	01400284 	movi	r5,10
 c001900:	1009883a 	mov	r4,r2
 c001904:	c0047780 	call	c004778 <__modsi3>
 c001908:	e0bffd45 	stb	r2,-11(fp)

	pio_val &= 0xFF00;
 c00190c:	e0bffe17 	ldw	r2,-8(fp)
 c001910:	10bfc00c 	andi	r2,r2,65280
 c001914:	e0bffe15 	stw	r2,-8(fp)
	pio_val |= (tens << 4);
 c001918:	e0bffd03 	ldbu	r2,-12(fp)
 c00191c:	1004913a 	slli	r2,r2,4
 c001920:	1007883a 	mov	r3,r2
 c001924:	e0bffe17 	ldw	r2,-8(fp)
 c001928:	10c4b03a 	or	r2,r2,r3
 c00192c:	e0bffe15 	stw	r2,-8(fp)
	pio_val |= (ones << 0);
 c001930:	e0bffd43 	ldbu	r2,-11(fp)
 c001934:	e0fffe17 	ldw	r3,-8(fp)
 c001938:	1884b03a 	or	r2,r3,r2
 c00193c:	e0bffe15 	stw	r2,-8(fp)

	IOWR_ALTERA_AVALON_PIO_DATA(HEX_DIGITS_PIO_BASE, pio_val);
 c001940:	e0fffe17 	ldw	r3,-8(fp)
 c001944:	00805404 	movi	r2,336
 c001948:	10c00035 	stwio	r3,0(r2)
}
 c00194c:	0001883a 	nop
 c001950:	e037883a 	mov	sp,fp
 c001954:	dfc00117 	ldw	ra,4(sp)
 c001958:	df000017 	ldw	fp,0(sp)
 c00195c:	dec00204 	addi	sp,sp,8
 c001960:	f800283a 	ret

0c001964 <setKeycode>:

void setKeycode(WORD keycode) {
 c001964:	defffe04 	addi	sp,sp,-8
 c001968:	df000115 	stw	fp,4(sp)
 c00196c:	df000104 	addi	fp,sp,4
 c001970:	2005883a 	mov	r2,r4
 c001974:	e0bfff0d 	sth	r2,-4(fp)
	IOWR_ALTERA_AVALON_PIO_DATA(0x00000160, keycode);
 c001978:	e0ffff0b 	ldhu	r3,-4(fp)
 c00197c:	00805804 	movi	r2,352
 c001980:	10c00035 	stwio	r3,0(r2)
}
 c001984:	0001883a 	nop
 c001988:	e037883a 	mov	sp,fp
 c00198c:	df000017 	ldw	fp,0(sp)
 c001990:	dec00104 	addi	sp,sp,4
 c001994:	f800283a 	ret

0c001998 <keyInput>:


void keyInput(int x, int y, int boardcolor, int width, int height) {
 c001998:	deffdf04 	addi	sp,sp,-132
 c00199c:	dfc02015 	stw	ra,128(sp)
 c0019a0:	df001f15 	stw	fp,124(sp)
 c0019a4:	df001f04 	addi	fp,sp,124
 c0019a8:	e13ffc15 	stw	r4,-16(fp)
 c0019ac:	e17ffd15 	stw	r5,-12(fp)
 c0019b0:	e1bffe15 	stw	r6,-8(fp)
 c0019b4:	e1ffff15 	stw	r7,-4(fp)
	TetrisGameState state; //new game
	boardColor = boardcolor; //set board color
 c0019b8:	e0bffe17 	ldw	r2,-8(fp)
 c0019bc:	d0a00015 	stw	r2,-32768(gp)
	//nextBlock = rand() % tetrisBlockCount; //intize first block
	int color = (rand() % 15)+1;
 c0019c0:	c00525c0 	call	c00525c <rand>
 c0019c4:	014003c4 	movi	r5,15
 c0019c8:	1009883a 	mov	r4,r2
 c0019cc:	c0047780 	call	c004778 <__modsi3>
 c0019d0:	10800044 	addi	r2,r2,1
 c0019d4:	e0bfe515 	stw	r2,-108(fp)
  if (color == boardColor || color == nextColor) color = (rand() % 15)+1;
 c0019d8:	d0a00017 	ldw	r2,-32768(gp)
 c0019dc:	e0ffe517 	ldw	r3,-108(fp)
 c0019e0:	18800326 	beq	r3,r2,c0019f0 <keyInput+0x58>
 c0019e4:	d0a00217 	ldw	r2,-32760(gp)
 c0019e8:	e0ffe517 	ldw	r3,-108(fp)
 c0019ec:	1880061e 	bne	r3,r2,c001a08 <keyInput+0x70>
 c0019f0:	c00525c0 	call	c00525c <rand>
 c0019f4:	014003c4 	movi	r5,15
 c0019f8:	1009883a 	mov	r4,r2
 c0019fc:	c0047780 	call	c004778 <__modsi3>
 c001a00:	10800044 	addi	r2,r2,1
 c001a04:	e0bfe515 	stw	r2,-108(fp)
  //nextColor = color; //initize first color
  TetrisInitialize(&state, width, height);
 c001a08:	e0bfe704 	addi	r2,fp,-100
 c001a0c:	e1800217 	ldw	r6,8(fp)
 c001a10:	e17fff17 	ldw	r5,-4(fp)
 c001a14:	1009883a 	mov	r4,r2
 c001a18:	c00026c0 	call	c00026c <TetrisInitialize>
  TetrisCreateBlock(&state);
 c001a1c:	e0bfe704 	addi	r2,fp,-100
 c001a20:	1009883a 	mov	r4,r2
 c001a24:	c0005d40 	call	c0005d4 <TetrisCreateBlock>

	BYTE rcode;
	BOOT_MOUSE_REPORT buf;		//USB mouse report
	BOOT_KBD_REPORT kbdbuf;

	BYTE runningdebugflag = 0;//flag to dump out a bunch of information when we first get to USB_STATE_RUNNING
 c001a28:	e03fe205 	stb	zero,-120(fp)
	BYTE errorflag = 0; //flag once we get an error device so we don't keep dumping out state info
 c001a2c:	e03fe245 	stb	zero,-119(fp)
	BYTE device;
	WORD keycode;

	printf("initializing MAX3421E...\n");
 c001a30:	010300b4 	movhi	r4,3074
 c001a34:	21368404 	addi	r4,r4,-9712
 c001a38:	c0052300 	call	c005230 <puts>
	MAX3421E_init();
 c001a3c:	c0036640 	call	c003664 <MAX3421E_init>
	printf("initializing USB...\n");
 c001a40:	010300b4 	movhi	r4,3074
 c001a44:	21368b04 	addi	r4,r4,-9684
 c001a48:	c0052300 	call	c005230 <puts>
	USB_init();
 c001a4c:	c003e100 	call	c003e10 <USB_init>
	int count = 0;
 c001a50:	e03fe315 	stw	zero,-116(fp)
	while (/*1) {*/!state.dead) {
 c001a54:	0000f006 	br	c001e18 <keyInput+0x480>

  		count++;
 c001a58:	e0bfe317 	ldw	r2,-116(fp)
 c001a5c:	10800044 	addi	r2,r2,1
 c001a60:	e0bfe315 	stw	r2,-116(fp)
  		if (count  == level) {
 c001a64:	d0a00417 	ldw	r2,-32752(gp)
 c001a68:	e0ffe317 	ldw	r3,-116(fp)
 c001a6c:	1880041e 	bne	r3,r2,c001a80 <keyInput+0xe8>
  			//printf("cout %d", count);
  			count = 0;
 c001a70:	e03fe315 	stw	zero,-116(fp)
  			TetrisFallBlocks(&state);
 c001a74:	e0bfe704 	addi	r2,fp,-100
 c001a78:	1009883a 	mov	r4,r2
 c001a7c:	c000d040 	call	c000d04 <TetrisFallBlocks>
  		}
  		TetrisPrintBoard(&state, x, y);
 c001a80:	e0bfe704 	addi	r2,fp,-100
 c001a84:	e1bffd17 	ldw	r6,-12(fp)
 c001a88:	e17ffc17 	ldw	r5,-16(fp)
 c001a8c:	1009883a 	mov	r4,r2
 c001a90:	c0011ac0 	call	c0011ac <TetrisPrintBoard>
  		TetrisCheckLineComplete(&state);
 c001a94:	e0bfe704 	addi	r2,fp,-100
 c001a98:	1009883a 	mov	r4,r2
 c001a9c:	c000e980 	call	c000e98 <TetrisCheckLineComplete>

		//printf(".");
		MAX3421E_Task();
 c001aa0:	c0036f80 	call	c0036f8 <MAX3421E_Task>
		USB_Task();
 c001aa4:	c003ea80 	call	c003ea8 <USB_Task>
		//usleep (500000);
		if (GetUsbTaskState() == USB_STATE_RUNNING) {
 c001aa8:	c0046180 	call	c004618 <GetUsbTaskState>
 c001aac:	10803fcc 	andi	r2,r2,255
 c001ab0:	10801018 	cmpnei	r2,r2,64
 c001ab4:	1000b91e 	bne	r2,zero,c001d9c <keyInput+0x404>
			if (!runningdebugflag) {
 c001ab8:	e0bfe203 	ldbu	r2,-120(fp)
 c001abc:	1000071e 	bne	r2,zero,c001adc <keyInput+0x144>
				runningdebugflag = 1;
 c001ac0:	00800044 	movi	r2,1
 c001ac4:	e0bfe205 	stb	r2,-120(fp)
				setLED(9);
 c001ac8:	01000244 	movi	r4,9
 c001acc:	c0016880 	call	c001688 <setLED>
				device = GetDriverandReport();
 c001ad0:	c0014980 	call	c001498 <GetDriverandReport>
 c001ad4:	e0bfe285 	stb	r2,-118(fp)
 c001ad8:	0000cf06 	br	c001e18 <keyInput+0x480>
			} else if (device == 1) {
 c001adc:	e0bfe283 	ldbu	r2,-118(fp)
 c001ae0:	10800058 	cmpnei	r2,r2,1
 c001ae4:	1000cc1e 	bne	r2,zero,c001e18 <keyInput+0x480>
				//run keyboard debug polling
				rcode = kbdPoll(&kbdbuf);
 c001ae8:	e0bffa04 	addi	r2,fp,-24
 c001aec:	1009883a 	mov	r4,r2
 c001af0:	c002f580 	call	c002f58 <kbdPoll>
 c001af4:	e0bfe605 	stb	r2,-104(fp)
				if (rcode == hrNAK) {
 c001af8:	e0bfe603 	ldbu	r2,-104(fp)
 c001afc:	10800118 	cmpnei	r2,r2,4
 c001b00:	1000011e 	bne	r2,zero,c001b08 <keyInput+0x170>
					continue; //NAK means no new data
 c001b04:	0000c406 	br	c001e18 <keyInput+0x480>
				} else if (rcode) {
 c001b08:	e0bfe603 	ldbu	r2,-104(fp)
 c001b0c:	10000926 	beq	r2,zero,c001b34 <keyInput+0x19c>
					printf("Rcode: ");
 c001b10:	010300b4 	movhi	r4,3074
 c001b14:	21369004 	addi	r4,r4,-9664
 c001b18:	c0051340 	call	c005134 <printf>
					printf("%x \n", rcode);
 c001b1c:	e0bfe603 	ldbu	r2,-104(fp)
 c001b20:	100b883a 	mov	r5,r2
 c001b24:	010300b4 	movhi	r4,3074
 c001b28:	21367204 	addi	r4,r4,-9784
 c001b2c:	c0051340 	call	c005134 <printf>
					continue;
 c001b30:	0000b906 	br	c001e18 <keyInput+0x480>

      //if(!state.dead && !state.pause) {
          //TetrisPrintBoard(&state);
      		//paintScreen();
  				//printf("keycodes: ");
  				for (int i = 0; i < 6; i++) {
 c001b34:	e03fe415 	stw	zero,-112(fp)
 c001b38:	00008406 	br	c001d4c <keyInput+0x3b4>
  					if (kbdbuf.keycode[i] != 0) {
 c001b3c:	e0fffa84 	addi	r3,fp,-22
 c001b40:	e0bfe417 	ldw	r2,-112(fp)
 c001b44:	1885883a 	add	r2,r3,r2
 c001b48:	10800003 	ldbu	r2,0(r2)
 c001b4c:	10803fcc 	andi	r2,r2,255
 c001b50:	10007b26 	beq	r2,zero,c001d40 <keyInput+0x3a8>
  						//printf("%x - ", kbdbuf.keycode[i]);
  						if (kbdbuf.keycode[i] == 26 || kbdbuf.keycode[i] == 82) { //W
 c001b54:	e0fffa84 	addi	r3,fp,-22
 c001b58:	e0bfe417 	ldw	r2,-112(fp)
 c001b5c:	1885883a 	add	r2,r3,r2
 c001b60:	10800003 	ldbu	r2,0(r2)
 c001b64:	10803fcc 	andi	r2,r2,255
 c001b68:	108006a0 	cmpeqi	r2,r2,26
 c001b6c:	1000071e 	bne	r2,zero,c001b8c <keyInput+0x1f4>
 c001b70:	e0fffa84 	addi	r3,fp,-22
 c001b74:	e0bfe417 	ldw	r2,-112(fp)
 c001b78:	1885883a 	add	r2,r3,r2
 c001b7c:	10800003 	ldbu	r2,0(r2)
 c001b80:	10803fcc 	andi	r2,r2,255
 c001b84:	10801498 	cmpnei	r2,r2,82
 c001b88:	1000071e 	bne	r2,zero,c001ba8 <keyInput+0x210>
  							printf("W - ");
 c001b8c:	010300b4 	movhi	r4,3074
 c001b90:	21369204 	addi	r4,r4,-9656
 c001b94:	c0051340 	call	c005134 <printf>
  			                TetrisRotateBlock(&state);
 c001b98:	e0bfe704 	addi	r2,fp,-100
 c001b9c:	1009883a 	mov	r4,r2
 c001ba0:	c000a440 	call	c000a44 <TetrisRotateBlock>
 c001ba4:	00006606 	br	c001d40 <keyInput+0x3a8>
  						} else if (kbdbuf.keycode[i] == 4 || kbdbuf.keycode[i] == 80) { //A
 c001ba8:	e0fffa84 	addi	r3,fp,-22
 c001bac:	e0bfe417 	ldw	r2,-112(fp)
 c001bb0:	1885883a 	add	r2,r3,r2
 c001bb4:	10800003 	ldbu	r2,0(r2)
 c001bb8:	10803fcc 	andi	r2,r2,255
 c001bbc:	10800120 	cmpeqi	r2,r2,4
 c001bc0:	1000071e 	bne	r2,zero,c001be0 <keyInput+0x248>
 c001bc4:	e0fffa84 	addi	r3,fp,-22
 c001bc8:	e0bfe417 	ldw	r2,-112(fp)
 c001bcc:	1885883a 	add	r2,r3,r2
 c001bd0:	10800003 	ldbu	r2,0(r2)
 c001bd4:	10803fcc 	andi	r2,r2,255
 c001bd8:	10801418 	cmpnei	r2,r2,80
 c001bdc:	1000071e 	bne	r2,zero,c001bfc <keyInput+0x264>
  							printf("A - ");
 c001be0:	010300b4 	movhi	r4,3074
 c001be4:	21369404 	addi	r4,r4,-9648
 c001be8:	c0051340 	call	c005134 <printf>
  			                TetrisInputLeft(&state);
 c001bec:	e0bfe704 	addi	r2,fp,-100
 c001bf0:	1009883a 	mov	r4,r2
 c001bf4:	c000fe00 	call	c000fe0 <TetrisInputLeft>
 c001bf8:	00005106 	br	c001d40 <keyInput+0x3a8>
  						} else if (kbdbuf.keycode[i] == 22 || kbdbuf.keycode[i] == 81) { //S
 c001bfc:	e0fffa84 	addi	r3,fp,-22
 c001c00:	e0bfe417 	ldw	r2,-112(fp)
 c001c04:	1885883a 	add	r2,r3,r2
 c001c08:	10800003 	ldbu	r2,0(r2)
 c001c0c:	10803fcc 	andi	r2,r2,255
 c001c10:	108005a0 	cmpeqi	r2,r2,22
 c001c14:	1000071e 	bne	r2,zero,c001c34 <keyInput+0x29c>
 c001c18:	e0fffa84 	addi	r3,fp,-22
 c001c1c:	e0bfe417 	ldw	r2,-112(fp)
 c001c20:	1885883a 	add	r2,r3,r2
 c001c24:	10800003 	ldbu	r2,0(r2)
 c001c28:	10803fcc 	andi	r2,r2,255
 c001c2c:	10801458 	cmpnei	r2,r2,81
 c001c30:	1000071e 	bne	r2,zero,c001c50 <keyInput+0x2b8>
  							printf("S - ");
 c001c34:	010300b4 	movhi	r4,3074
 c001c38:	21369604 	addi	r4,r4,-9640
 c001c3c:	c0051340 	call	c005134 <printf>
  			                TetrisFallBlocks(&state);
 c001c40:	e0bfe704 	addi	r2,fp,-100
 c001c44:	1009883a 	mov	r4,r2
 c001c48:	c000d040 	call	c000d04 <TetrisFallBlocks>
 c001c4c:	00003c06 	br	c001d40 <keyInput+0x3a8>
  						} else if (kbdbuf.keycode[i] == 7 || kbdbuf.keycode[i] == 79) { //D
 c001c50:	e0fffa84 	addi	r3,fp,-22
 c001c54:	e0bfe417 	ldw	r2,-112(fp)
 c001c58:	1885883a 	add	r2,r3,r2
 c001c5c:	10800003 	ldbu	r2,0(r2)
 c001c60:	10803fcc 	andi	r2,r2,255
 c001c64:	108001e0 	cmpeqi	r2,r2,7
 c001c68:	1000071e 	bne	r2,zero,c001c88 <keyInput+0x2f0>
 c001c6c:	e0fffa84 	addi	r3,fp,-22
 c001c70:	e0bfe417 	ldw	r2,-112(fp)
 c001c74:	1885883a 	add	r2,r3,r2
 c001c78:	10800003 	ldbu	r2,0(r2)
 c001c7c:	10803fcc 	andi	r2,r2,255
 c001c80:	108013d8 	cmpnei	r2,r2,79
 c001c84:	1000071e 	bne	r2,zero,c001ca4 <keyInput+0x30c>
  							printf("D - ");
 c001c88:	010300b4 	movhi	r4,3074
 c001c8c:	21369804 	addi	r4,r4,-9632
 c001c90:	c0051340 	call	c005134 <printf>
  			                TetrisInputRight(&state);
 c001c94:	e0bfe704 	addi	r2,fp,-100
 c001c98:	1009883a 	mov	r4,r2
 c001c9c:	c0010400 	call	c001040 <TetrisInputRight>
 c001ca0:	00002706 	br	c001d40 <keyInput+0x3a8>
  						} else if (kbdbuf.keycode[i] == 41) { //esc
 c001ca4:	e0fffa84 	addi	r3,fp,-22
 c001ca8:	e0bfe417 	ldw	r2,-112(fp)
 c001cac:	1885883a 	add	r2,r3,r2
 c001cb0:	10800003 	ldbu	r2,0(r2)
 c001cb4:	10803fcc 	andi	r2,r2,255
 c001cb8:	10800a58 	cmpnei	r2,r2,41
 c001cbc:	1000161e 	bne	r2,zero,c001d18 <keyInput+0x380>
  							//state.pause = 1;
  							printf("pause game");
 c001cc0:	010300b4 	movhi	r4,3074
 c001cc4:	21369a04 	addi	r4,r4,-9624
 c001cc8:	c0051340 	call	c005134 <printf>
  							VGAwriteText(x+x/2-(strlen("PAUSE GAME")/2),(y+24/2),2,0,"PAUSE GAME");
 c001ccc:	e0bffc17 	ldw	r2,-16(fp)
 c001cd0:	1006d7fa 	srli	r3,r2,31
 c001cd4:	1885883a 	add	r2,r3,r2
 c001cd8:	1005d07a 	srai	r2,r2,1
 c001cdc:	1007883a 	mov	r3,r2
 c001ce0:	e0bffc17 	ldw	r2,-16(fp)
 c001ce4:	1885883a 	add	r2,r3,r2
 c001ce8:	10fffec4 	addi	r3,r2,-5
 c001cec:	e0bffd17 	ldw	r2,-12(fp)
 c001cf0:	11000304 	addi	r4,r2,12
 c001cf4:	008300b4 	movhi	r2,3074
 c001cf8:	10b69d04 	addi	r2,r2,-9612
 c001cfc:	d8800015 	stw	r2,0(sp)
 c001d00:	000f883a 	mov	r7,zero
 c001d04:	01800084 	movi	r6,2
 c001d08:	200b883a 	mov	r5,r4
 c001d0c:	1809883a 	mov	r4,r3
 c001d10:	c0025c80 	call	c0025c8 <VGAwriteText>
 c001d14:	00000a06 	br	c001d40 <keyInput+0x3a8>
  						} else if (kbdbuf.keycode[i] == 40) { //enter
 c001d18:	e0fffa84 	addi	r3,fp,-22
 c001d1c:	e0bfe417 	ldw	r2,-112(fp)
 c001d20:	1885883a 	add	r2,r3,r2
 c001d24:	10800003 	ldbu	r2,0(r2)
 c001d28:	10803fcc 	andi	r2,r2,255
 c001d2c:	10800a18 	cmpnei	r2,r2,40
 c001d30:	1000031e 	bne	r2,zero,c001d40 <keyInput+0x3a8>
  						  //state.pause = !state.pause;
  						  printf("enter");
 c001d34:	010300b4 	movhi	r4,3074
 c001d38:	2136a004 	addi	r4,r4,-9600
 c001d3c:	c0051340 	call	c005134 <printf>

      //if(!state.dead && !state.pause) {
          //TetrisPrintBoard(&state);
      		//paintScreen();
  				//printf("keycodes: ");
  				for (int i = 0; i < 6; i++) {
 c001d40:	e0bfe417 	ldw	r2,-112(fp)
 c001d44:	10800044 	addi	r2,r2,1
 c001d48:	e0bfe415 	stw	r2,-112(fp)
 c001d4c:	e0bfe417 	ldw	r2,-112(fp)
 c001d50:	10800190 	cmplti	r2,r2,6
 c001d54:	103f791e 	bne	r2,zero,c001b3c <__alt_data_end+0xfc001b3c>
  					}
  				}
        //}


				setKeycode(kbdbuf.keycode[0]);
 c001d58:	e0bffa83 	ldbu	r2,-22(fp)
 c001d5c:	10803fcc 	andi	r2,r2,255
 c001d60:	1009883a 	mov	r4,r2
 c001d64:	c0019640 	call	c001964 <setKeycode>
				printSignedHex0(kbdbuf.keycode[0]);
 c001d68:	e0bffa83 	ldbu	r2,-22(fp)
 c001d6c:	10803fcc 	andi	r2,r2,255
 c001d70:	1080201c 	xori	r2,r2,128
 c001d74:	10bfe004 	addi	r2,r2,-128
 c001d78:	1009883a 	mov	r4,r2
 c001d7c:	c0017140 	call	c001714 <printSignedHex0>
				printSignedHex1(kbdbuf.keycode[1]);
 c001d80:	e0bffac3 	ldbu	r2,-21(fp)
 c001d84:	10803fcc 	andi	r2,r2,255
 c001d88:	1080201c 	xori	r2,r2,128
 c001d8c:	10bfe004 	addi	r2,r2,-128
 c001d90:	1009883a 	mov	r4,r2
 c001d94:	c00182c0 	call	c00182c <printSignedHex1>
 c001d98:	00001f06 	br	c001e18 <keyInput+0x480>
			}
		} else if (GetUsbTaskState() == USB_STATE_ERROR) {
 c001d9c:	c0046180 	call	c004618 <GetUsbTaskState>
 c001da0:	10803fcc 	andi	r2,r2,255
 c001da4:	10803fd8 	cmpnei	r2,r2,255
 c001da8:	10000a1e 	bne	r2,zero,c001dd4 <keyInput+0x43c>
			if (!errorflag) {
 c001dac:	e0bfe243 	ldbu	r2,-119(fp)
 c001db0:	1000191e 	bne	r2,zero,c001e18 <keyInput+0x480>
				errorflag = 1;
 c001db4:	00800044 	movi	r2,1
 c001db8:	e0bfe245 	stb	r2,-119(fp)
				clearLED(9);
 c001dbc:	01000244 	movi	r4,9
 c001dc0:	c0016cc0 	call	c0016cc <clearLED>
				printf("USB Error State\n");
 c001dc4:	010300b4 	movhi	r4,3074
 c001dc8:	2136a204 	addi	r4,r4,-9592
 c001dcc:	c0052300 	call	c005230 <puts>
 c001dd0:	00001106 	br	c001e18 <keyInput+0x480>
				//print out string descriptor here
			}
		} else { //not in USB running state

			printf("USB task state: ");
 c001dd4:	010300b4 	movhi	r4,3074
 c001dd8:	2136a604 	addi	r4,r4,-9576
 c001ddc:	c0051340 	call	c005134 <printf>
			printf("%x\n", GetUsbTaskState());
 c001de0:	c0046180 	call	c004618 <GetUsbTaskState>
 c001de4:	10803fcc 	andi	r2,r2,255
 c001de8:	100b883a 	mov	r5,r2
 c001dec:	010300b4 	movhi	r4,3074
 c001df0:	2136ab04 	addi	r4,r4,-9556
 c001df4:	c0051340 	call	c005134 <printf>
			if (runningdebugflag) {	//previously running, reset USB hardware just to clear out any funky state, HS/FS etc
 c001df8:	e0bfe203 	ldbu	r2,-120(fp)
 c001dfc:	10000326 	beq	r2,zero,c001e0c <keyInput+0x474>
				runningdebugflag = 0;
 c001e00:	e03fe205 	stb	zero,-120(fp)
				MAX3421E_init();
 c001e04:	c0036640 	call	c003664 <MAX3421E_init>
				USB_init();
 c001e08:	c003e100 	call	c003e10 <USB_init>
			}
			errorflag = 0;
 c001e0c:	e03fe245 	stb	zero,-119(fp)
			clearLED(9);
 c001e10:	01000244 	movi	r4,9
 c001e14:	c0016cc0 	call	c0016cc <clearLED>
	printf("initializing MAX3421E...\n");
	MAX3421E_init();
	printf("initializing USB...\n");
	USB_init();
	int count = 0;
	while (/*1) {*/!state.dead) {
 c001e18:	e0bfea17 	ldw	r2,-88(fp)
 c001e1c:	103f0e26 	beq	r2,zero,c001a58 <__alt_data_end+0xfc001a58>
			}
			errorflag = 0;
			clearLED(9);
		}
	}
}
 c001e20:	0001883a 	nop
 c001e24:	e037883a 	mov	sp,fp
 c001e28:	dfc00117 	ldw	ra,4(sp)
 c001e2c:	df000017 	ldw	fp,0(sp)
 c001e30:	dec00204 	addi	sp,sp,8
 c001e34:	f800283a 	ret

0c001e38 <main>:

#define COLUMNS 80
#define ROWS 60
#include "text_mode_vga_color.h"

int main() {
 c001e38:	defffb04 	addi	sp,sp,-20
 c001e3c:	dfc00415 	stw	ra,16(sp)
 c001e40:	df000315 	stw	fp,12(sp)
 c001e44:	df000304 	addi	fp,sp,12
	screenVGAinitializer();
 c001e48:	c0021a80 	call	c0021a8 <screenVGAinitializer>
	for (int i = 0; i < 80; i++) {
 c001e4c:	e03ffe15 	stw	zero,-8(fp)
 c001e50:	00000b06 	br	c001e80 <main+0x48>
		VGADrawColorBox(i,0,15);
 c001e54:	018003c4 	movi	r6,15
 c001e58:	000b883a 	mov	r5,zero
 c001e5c:	e13ffe17 	ldw	r4,-8(fp)
 c001e60:	c00255c0 	call	c00255c <VGADrawColorBox>
		VGADrawColorBox(i,59,15);
 c001e64:	018003c4 	movi	r6,15
 c001e68:	01400ec4 	movi	r5,59
 c001e6c:	e13ffe17 	ldw	r4,-8(fp)
 c001e70:	c00255c0 	call	c00255c <VGADrawColorBox>
#define ROWS 60
#include "text_mode_vga_color.h"

int main() {
	screenVGAinitializer();
	for (int i = 0; i < 80; i++) {
 c001e74:	e0bffe17 	ldw	r2,-8(fp)
 c001e78:	10800044 	addi	r2,r2,1
 c001e7c:	e0bffe15 	stw	r2,-8(fp)
 c001e80:	e0bffe17 	ldw	r2,-8(fp)
 c001e84:	10801410 	cmplti	r2,r2,80
 c001e88:	103ff21e 	bne	r2,zero,c001e54 <__alt_data_end+0xfc001e54>
		VGADrawColorBox(i,0,15);
		VGADrawColorBox(i,59,15);
	}
	for (int i = 0; i < 60; i++) {
 c001e8c:	e03fff15 	stw	zero,-4(fp)
 c001e90:	00000b06 	br	c001ec0 <main+0x88>
		VGADrawColorBox(0,i,15);
 c001e94:	018003c4 	movi	r6,15
 c001e98:	e17fff17 	ldw	r5,-4(fp)
 c001e9c:	0009883a 	mov	r4,zero
 c001ea0:	c00255c0 	call	c00255c <VGADrawColorBox>
		VGADrawColorBox(79,i,15);
 c001ea4:	018003c4 	movi	r6,15
 c001ea8:	e17fff17 	ldw	r5,-4(fp)
 c001eac:	010013c4 	movi	r4,79
 c001eb0:	c00255c0 	call	c00255c <VGADrawColorBox>
	screenVGAinitializer();
	for (int i = 0; i < 80; i++) {
		VGADrawColorBox(i,0,15);
		VGADrawColorBox(i,59,15);
	}
	for (int i = 0; i < 60; i++) {
 c001eb4:	e0bfff17 	ldw	r2,-4(fp)
 c001eb8:	10800044 	addi	r2,r2,1
 c001ebc:	e0bfff15 	stw	r2,-4(fp)
 c001ec0:	e0bfff17 	ldw	r2,-4(fp)
 c001ec4:	10800f10 	cmplti	r2,r2,60
 c001ec8:	103ff21e 	bne	r2,zero,c001e94 <__alt_data_end+0xfc001e94>
		VGADrawColorBox(0,i,15);
		VGADrawColorBox(79,i,15);
	}


	VGAwriteText(25-(strlen("TETRIS")/2),8,2,0,"TETRIS");
 c001ecc:	008300b4 	movhi	r2,3074
 c001ed0:	10b6ac04 	addi	r2,r2,-9552
 c001ed4:	d8800015 	stw	r2,0(sp)
 c001ed8:	000f883a 	mov	r7,zero
 c001edc:	01800084 	movi	r6,2
 c001ee0:	01400204 	movi	r5,8
 c001ee4:	01000584 	movi	r4,22
 c001ee8:	c0025c80 	call	c0025c8 <VGAwriteText>
	keyInput(20,10,1,10,24);
 c001eec:	00800604 	movi	r2,24
 c001ef0:	d8800015 	stw	r2,0(sp)
 c001ef4:	01c00284 	movi	r7,10
 c001ef8:	01800044 	movi	r6,1
 c001efc:	01400284 	movi	r5,10
 c001f00:	01000504 	movi	r4,20
 c001f04:	c0019980 	call	c001998 <keyInput>
	return 1;
 c001f08:	00800044 	movi	r2,1
}
 c001f0c:	e037883a 	mov	sp,fp
 c001f10:	dfc00117 	ldw	ra,4(sp)
 c001f14:	df000017 	ldw	fp,0(sp)
 c001f18:	dec00204 	addi	sp,sp,8
 c001f1c:	f800283a 	ret

0c001f20 <textVGAColorClr>:
#include <string.h>
#include <alt_types.h>
#include "text_mode_vga_color.h"

void textVGAColorClr()
{
 c001f20:	defffe04 	addi	sp,sp,-8
 c001f24:	df000115 	stw	fp,4(sp)
 c001f28:	df000104 	addi	fp,sp,4
	for (int i = 0; i<(ROWS*COLUMNS) * 2; i++)
 c001f2c:	e03fff15 	stw	zero,-4(fp)
 c001f30:	00000706 	br	c001f50 <textVGAColorClr+0x30>
	{
		vga_ctrl->VRAM[i] = 0x00;
 c001f34:	d0e00717 	ldw	r3,-32740(gp)
 c001f38:	e0bfff17 	ldw	r2,-4(fp)
 c001f3c:	1885883a 	add	r2,r3,r2
 c001f40:	10000005 	stb	zero,0(r2)
#include <alt_types.h>
#include "text_mode_vga_color.h"

void textVGAColorClr()
{
	for (int i = 0; i<(ROWS*COLUMNS) * 2; i++)
 c001f44:	e0bfff17 	ldw	r2,-4(fp)
 c001f48:	10800044 	addi	r2,r2,1
 c001f4c:	e0bfff15 	stw	r2,-4(fp)
 c001f50:	e0bfff17 	ldw	r2,-4(fp)
 c001f54:	10896010 	cmplti	r2,r2,9600
 c001f58:	103ff61e 	bne	r2,zero,c001f34 <__alt_data_end+0xfc001f34>
	{
		vga_ctrl->VRAM[i] = 0x00;
	}
}
 c001f5c:	0001883a 	nop
 c001f60:	e037883a 	mov	sp,fp
 c001f64:	df000017 	ldw	fp,0(sp)
 c001f68:	dec00104 	addi	sp,sp,4
 c001f6c:	f800283a 	ret

0c001f70 <textVGADrawColorText>:

void textVGADrawColorText(char* str, int x, int y, alt_u8 background, alt_u8 foreground)
{
 c001f70:	defff704 	addi	sp,sp,-36
 c001f74:	dfc00815 	stw	ra,32(sp)
 c001f78:	df000715 	stw	fp,28(sp)
 c001f7c:	dc000615 	stw	r16,24(sp)
 c001f80:	df000704 	addi	fp,sp,28
 c001f84:	e13ffa15 	stw	r4,-24(fp)
 c001f88:	e17ffb15 	stw	r5,-20(fp)
 c001f8c:	e1bffc15 	stw	r6,-16(fp)
 c001f90:	3807883a 	mov	r3,r7
 c001f94:	e0800217 	ldw	r2,8(fp)
 c001f98:	e0fffd05 	stb	r3,-12(fp)
 c001f9c:	e0bffe05 	stb	r2,-8(fp)
	int i = 0;
 c001fa0:	e03ff915 	stw	zero,-28(fp)
	while (str[i]!=0)
 c001fa4:	00002706 	br	c002044 <textVGADrawColorText+0xd4>
	{
		vga_ctrl->VRAM[(y*COLUMNS + x + i) * 2] = foreground << 4 | background;
 c001fa8:	d4200717 	ldw	r16,-32740(gp)
 c001fac:	01401404 	movi	r5,80
 c001fb0:	e13ffc17 	ldw	r4,-16(fp)
 c001fb4:	c0048a80 	call	c0048a8 <__mulsi3>
 c001fb8:	1007883a 	mov	r3,r2
 c001fbc:	e0bffb17 	ldw	r2,-20(fp)
 c001fc0:	1887883a 	add	r3,r3,r2
 c001fc4:	e0bff917 	ldw	r2,-28(fp)
 c001fc8:	1885883a 	add	r2,r3,r2
 c001fcc:	1085883a 	add	r2,r2,r2
 c001fd0:	1009883a 	mov	r4,r2
 c001fd4:	e0bffe03 	ldbu	r2,-8(fp)
 c001fd8:	1004913a 	slli	r2,r2,4
 c001fdc:	1007883a 	mov	r3,r2
 c001fe0:	e0bffd03 	ldbu	r2,-12(fp)
 c001fe4:	1884b03a 	or	r2,r3,r2
 c001fe8:	1007883a 	mov	r3,r2
 c001fec:	8105883a 	add	r2,r16,r4
 c001ff0:	10c00005 	stb	r3,0(r2)
		vga_ctrl->VRAM[(y*COLUMNS + x + i) * 2 + 1] = str[i];
 c001ff4:	d4200717 	ldw	r16,-32740(gp)
 c001ff8:	01401404 	movi	r5,80
 c001ffc:	e13ffc17 	ldw	r4,-16(fp)
 c002000:	c0048a80 	call	c0048a8 <__mulsi3>
 c002004:	1007883a 	mov	r3,r2
 c002008:	e0bffb17 	ldw	r2,-20(fp)
 c00200c:	1887883a 	add	r3,r3,r2
 c002010:	e0bff917 	ldw	r2,-28(fp)
 c002014:	1885883a 	add	r2,r3,r2
 c002018:	1085883a 	add	r2,r2,r2
 c00201c:	10800044 	addi	r2,r2,1
 c002020:	e0fff917 	ldw	r3,-28(fp)
 c002024:	e13ffa17 	ldw	r4,-24(fp)
 c002028:	20c7883a 	add	r3,r4,r3
 c00202c:	18c00003 	ldbu	r3,0(r3)
 c002030:	8085883a 	add	r2,r16,r2
 c002034:	10c00005 	stb	r3,0(r2)
		i++;
 c002038:	e0bff917 	ldw	r2,-28(fp)
 c00203c:	10800044 	addi	r2,r2,1
 c002040:	e0bff915 	stw	r2,-28(fp)
}

void textVGADrawColorText(char* str, int x, int y, alt_u8 background, alt_u8 foreground)
{
	int i = 0;
	while (str[i]!=0)
 c002044:	e0bff917 	ldw	r2,-28(fp)
 c002048:	e0fffa17 	ldw	r3,-24(fp)
 c00204c:	1885883a 	add	r2,r3,r2
 c002050:	10800003 	ldbu	r2,0(r2)
 c002054:	10803fcc 	andi	r2,r2,255
 c002058:	1080201c 	xori	r2,r2,128
 c00205c:	10bfe004 	addi	r2,r2,-128
 c002060:	103fd11e 	bne	r2,zero,c001fa8 <__alt_data_end+0xfc001fa8>
	{
		vga_ctrl->VRAM[(y*COLUMNS + x + i) * 2] = foreground << 4 | background;
		vga_ctrl->VRAM[(y*COLUMNS + x + i) * 2 + 1] = str[i];
		i++;
	}
}
 c002064:	0001883a 	nop
 c002068:	e6ffff04 	addi	sp,fp,-4
 c00206c:	dfc00217 	ldw	ra,8(sp)
 c002070:	df000117 	ldw	fp,4(sp)
 c002074:	dc000017 	ldw	r16,0(sp)
 c002078:	dec00304 	addi	sp,sp,12
 c00207c:	f800283a 	ret

0c002080 <setColorPalette>:

void setColorPalette (alt_u8 color, alt_u8 red, alt_u8 green, alt_u8 blue)
{
 c002080:	defff904 	addi	sp,sp,-28
 c002084:	df000615 	stw	fp,24(sp)
 c002088:	df000604 	addi	fp,sp,24
 c00208c:	2011883a 	mov	r8,r4
 c002090:	2809883a 	mov	r4,r5
 c002094:	3007883a 	mov	r3,r6
 c002098:	3805883a 	mov	r2,r7
 c00209c:	e23ffc05 	stb	r8,-16(fp)
 c0020a0:	e13ffd05 	stb	r4,-12(fp)
 c0020a4:	e0fffe05 	stb	r3,-8(fp)
 c0020a8:	e0bfff05 	stb	r2,-4(fp)
	alt_u32 shifts;
	alt_u32 original;
	original = vga_ctrl->palette[color/2];
 c0020ac:	d0e00717 	ldw	r3,-32740(gp)
 c0020b0:	e0bffc03 	ldbu	r2,-16(fp)
 c0020b4:	1004d07a 	srli	r2,r2,1
 c0020b8:	10803fcc 	andi	r2,r2,255
 c0020bc:	10830004 	addi	r2,r2,3072
 c0020c0:	1085883a 	add	r2,r2,r2
 c0020c4:	1085883a 	add	r2,r2,r2
 c0020c8:	1885883a 	add	r2,r3,r2
 c0020cc:	10800017 	ldw	r2,0(r2)
 c0020d0:	e0bffb15 	stw	r2,-20(fp)
	shifts = red;
 c0020d4:	e0bffd03 	ldbu	r2,-12(fp)
 c0020d8:	e0bffa15 	stw	r2,-24(fp)
	shifts = shifts << 4;
 c0020dc:	e0bffa17 	ldw	r2,-24(fp)
 c0020e0:	1004913a 	slli	r2,r2,4
 c0020e4:	e0bffa15 	stw	r2,-24(fp)
	shifts = shifts | green;
 c0020e8:	e0bffe03 	ldbu	r2,-8(fp)
 c0020ec:	e0fffa17 	ldw	r3,-24(fp)
 c0020f0:	1884b03a 	or	r2,r3,r2
 c0020f4:	e0bffa15 	stw	r2,-24(fp)
	shifts = shifts << 4;
 c0020f8:	e0bffa17 	ldw	r2,-24(fp)
 c0020fc:	1004913a 	slli	r2,r2,4
 c002100:	e0bffa15 	stw	r2,-24(fp)
	shifts = shifts | blue;
 c002104:	e0bfff03 	ldbu	r2,-4(fp)
 c002108:	e0fffa17 	ldw	r3,-24(fp)
 c00210c:	1884b03a 	or	r2,r3,r2
 c002110:	e0bffa15 	stw	r2,-24(fp)
	if (color %2 ==0){
 c002114:	e0bffc03 	ldbu	r2,-16(fp)
 c002118:	1080004c 	andi	r2,r2,1
 c00211c:	10803fcc 	andi	r2,r2,255
 c002120:	1000081e 	bne	r2,zero,c002144 <setColorPalette+0xc4>
		original = original & 0xFFFFE000;
 c002124:	e0fffb17 	ldw	r3,-20(fp)
 c002128:	00b80004 	movi	r2,-8192
 c00212c:	1884703a 	and	r2,r3,r2
 c002130:	e0bffb15 	stw	r2,-20(fp)
		shifts = shifts << 1;
 c002134:	e0bffa17 	ldw	r2,-24(fp)
 c002138:	1085883a 	add	r2,r2,r2
 c00213c:	e0bffa15 	stw	r2,-24(fp)
 c002140:	00000606 	br	c00215c <setColorPalette+0xdc>
	} else {
		original = original & 0x00001FFF;
 c002144:	e0bffb17 	ldw	r2,-20(fp)
 c002148:	1087ffcc 	andi	r2,r2,8191
 c00214c:	e0bffb15 	stw	r2,-20(fp)
		shifts = shifts << 13;
 c002150:	e0bffa17 	ldw	r2,-24(fp)
 c002154:	1004937a 	slli	r2,r2,13
 c002158:	e0bffa15 	stw	r2,-24(fp)
	}
	original = original | shifts;
 c00215c:	e0fffb17 	ldw	r3,-20(fp)
 c002160:	e0bffa17 	ldw	r2,-24(fp)
 c002164:	1884b03a 	or	r2,r3,r2
 c002168:	e0bffb15 	stw	r2,-20(fp)
	vga_ctrl->palette[color/2] = original;
 c00216c:	d0e00717 	ldw	r3,-32740(gp)
 c002170:	e0bffc03 	ldbu	r2,-16(fp)
 c002174:	1004d07a 	srli	r2,r2,1
 c002178:	10803fcc 	andi	r2,r2,255
 c00217c:	10830004 	addi	r2,r2,3072
 c002180:	1085883a 	add	r2,r2,r2
 c002184:	1085883a 	add	r2,r2,r2
 c002188:	1885883a 	add	r2,r3,r2
 c00218c:	e0fffb17 	ldw	r3,-20(fp)
 c002190:	10c00015 	stw	r3,0(r2)
}
 c002194:	0001883a 	nop
 c002198:	e037883a 	mov	sp,fp
 c00219c:	df000017 	ldw	fp,0(sp)
 c0021a0:	dec00104 	addi	sp,sp,4
 c0021a4:	f800283a 	ret

0c0021a8 <screenVGAinitializer>:

void screenVGAinitializer() {
 c0021a8:	defff904 	addi	sp,sp,-28
 c0021ac:	dfc00615 	stw	ra,24(sp)
 c0021b0:	df000515 	stw	fp,20(sp)
 c0021b4:	dcc00415 	stw	r19,16(sp)
 c0021b8:	dc800315 	stw	r18,12(sp)
 c0021bc:	dc400215 	stw	r17,8(sp)
 c0021c0:	dc000115 	stw	r16,4(sp)
 c0021c4:	df000504 	addi	fp,sp,20
	textVGAColorClr();
 c0021c8:	c001f200 	call	c001f20 <textVGAColorClr>
	//initialize palette
	for (int i = 0; i < 16; i++)
 c0021cc:	e03ffb15 	stw	zero,-20(fp)
 c0021d0:	00002806 	br	c002274 <screenVGAinitializer+0xcc>
	{
		setColorPalette (i, colors[i].red, colors[i].green, colors[i].blue);
 c0021d4:	e0bffb17 	ldw	r2,-20(fp)
 c0021d8:	14403fcc 	andi	r17,r2,255
 c0021dc:	040300b4 	movhi	r16,3074
 c0021e0:	84390f04 	addi	r16,r16,-7108
 c0021e4:	e0bffb17 	ldw	r2,-20(fp)
 c0021e8:	014005c4 	movi	r5,23
 c0021ec:	1009883a 	mov	r4,r2
 c0021f0:	c0048a80 	call	c0048a8 <__mulsi3>
 c0021f4:	8085883a 	add	r2,r16,r2
 c0021f8:	10800504 	addi	r2,r2,20
 c0021fc:	10800003 	ldbu	r2,0(r2)
 c002200:	14803fcc 	andi	r18,r2,255
 c002204:	040300b4 	movhi	r16,3074
 c002208:	84390f04 	addi	r16,r16,-7108
 c00220c:	e0bffb17 	ldw	r2,-20(fp)
 c002210:	014005c4 	movi	r5,23
 c002214:	1009883a 	mov	r4,r2
 c002218:	c0048a80 	call	c0048a8 <__mulsi3>
 c00221c:	8085883a 	add	r2,r16,r2
 c002220:	10800544 	addi	r2,r2,21
 c002224:	10800003 	ldbu	r2,0(r2)
 c002228:	14c03fcc 	andi	r19,r2,255
 c00222c:	040300b4 	movhi	r16,3074
 c002230:	84390f04 	addi	r16,r16,-7108
 c002234:	e0bffb17 	ldw	r2,-20(fp)
 c002238:	014005c4 	movi	r5,23
 c00223c:	1009883a 	mov	r4,r2
 c002240:	c0048a80 	call	c0048a8 <__mulsi3>
 c002244:	8085883a 	add	r2,r16,r2
 c002248:	10800584 	addi	r2,r2,22
 c00224c:	10800003 	ldbu	r2,0(r2)
 c002250:	10803fcc 	andi	r2,r2,255
 c002254:	100f883a 	mov	r7,r2
 c002258:	980d883a 	mov	r6,r19
 c00225c:	900b883a 	mov	r5,r18
 c002260:	8809883a 	mov	r4,r17
 c002264:	c0020800 	call	c002080 <setColorPalette>
}

void screenVGAinitializer() {
	textVGAColorClr();
	//initialize palette
	for (int i = 0; i < 16; i++)
 c002268:	e0bffb17 	ldw	r2,-20(fp)
 c00226c:	10800044 	addi	r2,r2,1
 c002270:	e0bffb15 	stw	r2,-20(fp)
 c002274:	e0bffb17 	ldw	r2,-20(fp)
 c002278:	10800410 	cmplti	r2,r2,16
 c00227c:	103fd51e 	bne	r2,zero,c0021d4 <__alt_data_end+0xfc0021d4>
	{
		setColorPalette (i, colors[i].red, colors[i].green, colors[i].blue);
	}

}
 c002280:	0001883a 	nop
 c002284:	e6fffc04 	addi	sp,fp,-16
 c002288:	dfc00517 	ldw	ra,20(sp)
 c00228c:	df000417 	ldw	fp,16(sp)
 c002290:	dcc00317 	ldw	r19,12(sp)
 c002294:	dc800217 	ldw	r18,8(sp)
 c002298:	dc400117 	ldw	r17,4(sp)
 c00229c:	dc000017 	ldw	r16,0(sp)
 c0022a0:	dec00604 	addi	sp,sp,24
 c0022a4:	f800283a 	ret

0c0022a8 <textVGAColorScreenSaver>:

void textVGAColorScreenSaver()
{
 c0022a8:	deffde04 	addi	sp,sp,-136
 c0022ac:	dfc02115 	stw	ra,132(sp)
 c0022b0:	df002015 	stw	fp,128(sp)
 c0022b4:	dcc01f15 	stw	r19,124(sp)
 c0022b8:	dc801e15 	stw	r18,120(sp)
 c0022bc:	dc401d15 	stw	r17,116(sp)
 c0022c0:	dc001c15 	stw	r16,112(sp)
 c0022c4:	df002004 	addi	fp,sp,128
	//This is the function you call for your week 2 demo
	int flag = 0;
 c0022c8:	e03fe415 	stw	zero,-112(fp)
	char color_string[80];
    int fg, bg, x, y;
	textVGAColorClr();
 c0022cc:	c001f200 	call	c001f20 <textVGAColorClr>
	//initialize palette
	for (int i = 0; i < 16; i++)
 c0022d0:	e03fe315 	stw	zero,-116(fp)
 c0022d4:	00002806 	br	c002378 <textVGAColorScreenSaver+0xd0>
	{
		setColorPalette (i, colors[i].red, colors[i].green, colors[i].blue);
 c0022d8:	e0bfe317 	ldw	r2,-116(fp)
 c0022dc:	14403fcc 	andi	r17,r2,255
 c0022e0:	040300b4 	movhi	r16,3074
 c0022e4:	84390f04 	addi	r16,r16,-7108
 c0022e8:	e0bfe317 	ldw	r2,-116(fp)
 c0022ec:	014005c4 	movi	r5,23
 c0022f0:	1009883a 	mov	r4,r2
 c0022f4:	c0048a80 	call	c0048a8 <__mulsi3>
 c0022f8:	8085883a 	add	r2,r16,r2
 c0022fc:	10800504 	addi	r2,r2,20
 c002300:	10800003 	ldbu	r2,0(r2)
 c002304:	14803fcc 	andi	r18,r2,255
 c002308:	040300b4 	movhi	r16,3074
 c00230c:	84390f04 	addi	r16,r16,-7108
 c002310:	e0bfe317 	ldw	r2,-116(fp)
 c002314:	014005c4 	movi	r5,23
 c002318:	1009883a 	mov	r4,r2
 c00231c:	c0048a80 	call	c0048a8 <__mulsi3>
 c002320:	8085883a 	add	r2,r16,r2
 c002324:	10800544 	addi	r2,r2,21
 c002328:	10800003 	ldbu	r2,0(r2)
 c00232c:	14c03fcc 	andi	r19,r2,255
 c002330:	040300b4 	movhi	r16,3074
 c002334:	84390f04 	addi	r16,r16,-7108
 c002338:	e0bfe317 	ldw	r2,-116(fp)
 c00233c:	014005c4 	movi	r5,23
 c002340:	1009883a 	mov	r4,r2
 c002344:	c0048a80 	call	c0048a8 <__mulsi3>
 c002348:	8085883a 	add	r2,r16,r2
 c00234c:	10800584 	addi	r2,r2,22
 c002350:	10800003 	ldbu	r2,0(r2)
 c002354:	10803fcc 	andi	r2,r2,255
 c002358:	100f883a 	mov	r7,r2
 c00235c:	980d883a 	mov	r6,r19
 c002360:	900b883a 	mov	r5,r18
 c002364:	8809883a 	mov	r4,r17
 c002368:	c0020800 	call	c002080 <setColorPalette>
	int flag = 0;
	char color_string[80];
    int fg, bg, x, y;
	textVGAColorClr();
	//initialize palette
	for (int i = 0; i < 16; i++)
 c00236c:	e0bfe317 	ldw	r2,-116(fp)
 c002370:	10800044 	addi	r2,r2,1
 c002374:	e0bfe315 	stw	r2,-116(fp)
 c002378:	e0bfe317 	ldw	r2,-116(fp)
 c00237c:	10800410 	cmplti	r2,r2,16
 c002380:	103fd51e 	bne	r2,zero,c0022d8 <__alt_data_end+0xfc0022d8>
	{
		setColorPalette (i, colors[i].red, colors[i].green, colors[i].blue);
	}
	int count =0;
 c002384:	e03fe515 	stw	zero,-108(fp)
	while (1) {
	//for(int y = 0; y < COLUMNS; y++){
		fg = rand() % 16;
 c002388:	c00525c0 	call	c00525c <rand>
 c00238c:	1007883a 	mov	r3,r2
 c002390:	00a00034 	movhi	r2,32768
 c002394:	108003c4 	addi	r2,r2,15
 c002398:	1884703a 	and	r2,r3,r2
 c00239c:	1000040e 	bge	r2,zero,c0023b0 <textVGAColorScreenSaver+0x108>
 c0023a0:	10bfffc4 	addi	r2,r2,-1
 c0023a4:	00fffc04 	movi	r3,-16
 c0023a8:	10c4b03a 	or	r2,r2,r3
 c0023ac:	10800044 	addi	r2,r2,1
 c0023b0:	e0bfe115 	stw	r2,-124(fp)
		bg = rand() % 16;
 c0023b4:	c00525c0 	call	c00525c <rand>
 c0023b8:	1007883a 	mov	r3,r2
 c0023bc:	00a00034 	movhi	r2,32768
 c0023c0:	108003c4 	addi	r2,r2,15
 c0023c4:	1884703a 	and	r2,r3,r2
 c0023c8:	1000040e 	bge	r2,zero,c0023dc <textVGAColorScreenSaver+0x134>
 c0023cc:	10bfffc4 	addi	r2,r2,-1
 c0023d0:	00fffc04 	movi	r3,-16
 c0023d4:	10c4b03a 	or	r2,r2,r3
 c0023d8:	10800044 	addi	r2,r2,1
 c0023dc:	e0bfe215 	stw	r2,-120(fp)
		while (fg == bg)
 c0023e0:	00001606 	br	c00243c <textVGAColorScreenSaver+0x194>
		{
			fg = rand() % 16;
 c0023e4:	c00525c0 	call	c00525c <rand>
 c0023e8:	1007883a 	mov	r3,r2
 c0023ec:	00a00034 	movhi	r2,32768
 c0023f0:	108003c4 	addi	r2,r2,15
 c0023f4:	1884703a 	and	r2,r3,r2
 c0023f8:	1000040e 	bge	r2,zero,c00240c <textVGAColorScreenSaver+0x164>
 c0023fc:	10bfffc4 	addi	r2,r2,-1
 c002400:	00fffc04 	movi	r3,-16
 c002404:	10c4b03a 	or	r2,r2,r3
 c002408:	10800044 	addi	r2,r2,1
 c00240c:	e0bfe115 	stw	r2,-124(fp)
			bg = rand() % 16;
 c002410:	c00525c0 	call	c00525c <rand>
 c002414:	1007883a 	mov	r3,r2
 c002418:	00a00034 	movhi	r2,32768
 c00241c:	108003c4 	addi	r2,r2,15
 c002420:	1884703a 	and	r2,r3,r2
 c002424:	1000040e 	bge	r2,zero,c002438 <textVGAColorScreenSaver+0x190>
 c002428:	10bfffc4 	addi	r2,r2,-1
 c00242c:	00fffc04 	movi	r3,-16
 c002430:	10c4b03a 	or	r2,r2,r3
 c002434:	10800044 	addi	r2,r2,1
 c002438:	e0bfe215 	stw	r2,-120(fp)
	int count =0;
	while (1) {
	//for(int y = 0; y < COLUMNS; y++){
		fg = rand() % 16;
		bg = rand() % 16;
		while (fg == bg)
 c00243c:	e0ffe117 	ldw	r3,-124(fp)
 c002440:	e0bfe217 	ldw	r2,-120(fp)
 c002444:	18bfe726 	beq	r3,r2,c0023e4 <__alt_data_end+0xfc0023e4>
		{
			fg = rand() % 16;
			bg = rand() % 16;
		}
		//sprintf(color_string," ttttttt ");
		sprintf(color_string, "Drawing %s text with %s background", colors[fg].name, colors[bg].name);
 c002448:	014005c4 	movi	r5,23
 c00244c:	e13fe117 	ldw	r4,-124(fp)
 c002450:	c0048a80 	call	c0048a8 <__mulsi3>
 c002454:	1007883a 	mov	r3,r2
 c002458:	008300b4 	movhi	r2,3074
 c00245c:	10b90f04 	addi	r2,r2,-7108
 c002460:	18a1883a 	add	r16,r3,r2
 c002464:	014005c4 	movi	r5,23
 c002468:	e13fe217 	ldw	r4,-120(fp)
 c00246c:	c0048a80 	call	c0048a8 <__mulsi3>
 c002470:	1007883a 	mov	r3,r2
 c002474:	008300b4 	movhi	r2,3074
 c002478:	10b90f04 	addi	r2,r2,-7108
 c00247c:	1887883a 	add	r3,r3,r2
 c002480:	e0bfe804 	addi	r2,fp,-96
 c002484:	180f883a 	mov	r7,r3
 c002488:	800d883a 	mov	r6,r16
 c00248c:	014300b4 	movhi	r5,3074
 c002490:	2976ae04 	addi	r5,r5,-9544
 c002494:	1009883a 	mov	r4,r2
 c002498:	c0053d80 	call	c0053d8 <sprintf>
		x = rand() % (ROWS-strlen(color_string));
 c00249c:	c00525c0 	call	c00525c <rand>
 c0024a0:	1021883a 	mov	r16,r2
 c0024a4:	e0bfe804 	addi	r2,fp,-96
 c0024a8:	1009883a 	mov	r4,r2
 c0024ac:	c0054440 	call	c005444 <strlen>
 c0024b0:	1007883a 	mov	r3,r2
 c0024b4:	00800f04 	movi	r2,60
 c0024b8:	10c5c83a 	sub	r2,r2,r3
 c0024bc:	100b883a 	mov	r5,r2
 c0024c0:	8009883a 	mov	r4,r16
 c0024c4:	c0048500 	call	c004850 <__umodsi3>
 c0024c8:	e0bfe615 	stw	r2,-104(fp)
		y = rand() % 60;
 c0024cc:	c00525c0 	call	c00525c <rand>
 c0024d0:	01400f04 	movi	r5,60
 c0024d4:	1009883a 	mov	r4,r2
 c0024d8:	c0047780 	call	c004778 <__modsi3>
 c0024dc:	e0bfe715 	stw	r2,-100(fp)
		if (y %2==0) {
 c0024e0:	e0bfe717 	ldw	r2,-100(fp)
 c0024e4:	1080004c 	andi	r2,r2,1
 c0024e8:	1000181e 	bne	r2,zero,c00254c <textVGAColorScreenSaver+0x2a4>
			textVGADrawColorText (color_string, x, y, bg, fg);
 c0024ec:	e0bfe217 	ldw	r2,-120(fp)
 c0024f0:	11003fcc 	andi	r4,r2,255
 c0024f4:	e0bfe117 	ldw	r2,-124(fp)
 c0024f8:	10803fcc 	andi	r2,r2,255
 c0024fc:	e0ffe804 	addi	r3,fp,-96
 c002500:	d8800015 	stw	r2,0(sp)
 c002504:	200f883a 	mov	r7,r4
 c002508:	e1bfe717 	ldw	r6,-100(fp)
 c00250c:	e17fe617 	ldw	r5,-104(fp)
 c002510:	1809883a 	mov	r4,r3
 c002514:	c001f700 	call	c001f70 <textVGADrawColorText>
			textVGADrawColorText (color_string, x, y+1, bg, fg);
 c002518:	e0bfe717 	ldw	r2,-100(fp)
 c00251c:	11000044 	addi	r4,r2,1
 c002520:	e0bfe217 	ldw	r2,-120(fp)
 c002524:	11403fcc 	andi	r5,r2,255
 c002528:	e0bfe117 	ldw	r2,-124(fp)
 c00252c:	10803fcc 	andi	r2,r2,255
 c002530:	e0ffe804 	addi	r3,fp,-96
 c002534:	d8800015 	stw	r2,0(sp)
 c002538:	280f883a 	mov	r7,r5
 c00253c:	200d883a 	mov	r6,r4
 c002540:	e17fe617 	ldw	r5,-104(fp)
 c002544:	1809883a 	mov	r4,r3
 c002548:	c001f700 	call	c001f70 <textVGADrawColorText>

		}
		usleep (100000);
 c00254c:	010000b4 	movhi	r4,2
 c002550:	2121a804 	addi	r4,r4,-31072
 c002554:	c01b52c0 	call	c01b52c <usleep>
	//}
	}
 c002558:	003f8b06 	br	c002388 <__alt_data_end+0xfc002388>

0c00255c <VGADrawColorBox>:
	//VGADrawColorBox(2,2,15,0);
	//VGADrawColorBox(ROWS/2,COLUMNS/2,3,0);
}

void VGADrawColorBox(int x, int y, alt_u8 background)
{
 c00255c:	defffa04 	addi	sp,sp,-24
 c002560:	dfc00515 	stw	ra,20(sp)
 c002564:	df000415 	stw	fp,16(sp)
 c002568:	dc000315 	stw	r16,12(sp)
 c00256c:	df000404 	addi	fp,sp,16
 c002570:	e13ffc15 	stw	r4,-16(fp)
 c002574:	e17ffd15 	stw	r5,-12(fp)
 c002578:	3005883a 	mov	r2,r6
 c00257c:	e0bffe05 	stb	r2,-8(fp)
	vga_ctrl->VRAM[(y*COLUMNS + x) * 2] = 0 << 4 | background;
 c002580:	d4200717 	ldw	r16,-32740(gp)
 c002584:	01401404 	movi	r5,80
 c002588:	e13ffd17 	ldw	r4,-12(fp)
 c00258c:	c0048a80 	call	c0048a8 <__mulsi3>
 c002590:	1007883a 	mov	r3,r2
 c002594:	e0bffc17 	ldw	r2,-16(fp)
 c002598:	1885883a 	add	r2,r3,r2
 c00259c:	1085883a 	add	r2,r2,r2
 c0025a0:	8085883a 	add	r2,r16,r2
 c0025a4:	e0fffe03 	ldbu	r3,-8(fp)
 c0025a8:	10c00005 	stb	r3,0(r2)
}
 c0025ac:	0001883a 	nop
 c0025b0:	e6ffff04 	addi	sp,fp,-4
 c0025b4:	dfc00217 	ldw	ra,8(sp)
 c0025b8:	df000117 	ldw	fp,4(sp)
 c0025bc:	dc000017 	ldw	r16,0(sp)
 c0025c0:	dec00304 	addi	sp,sp,12
 c0025c4:	f800283a 	ret

0c0025c8 <VGAwriteText>:

void VGAwriteText(int x, int y, int colorFG, int colorBG, char text[]) {
 c0025c8:	defff904 	addi	sp,sp,-28
 c0025cc:	dfc00615 	stw	ra,24(sp)
 c0025d0:	df000515 	stw	fp,20(sp)
 c0025d4:	df000504 	addi	fp,sp,20
 c0025d8:	e13ffc15 	stw	r4,-16(fp)
 c0025dc:	e17ffd15 	stw	r5,-12(fp)
 c0025e0:	e1bffe15 	stw	r6,-8(fp)
 c0025e4:	e1ffff15 	stw	r7,-4(fp)
		textVGADrawColorText (text, x, (y/2)*2, colorBG, colorFG);
 c0025e8:	e0bffd17 	ldw	r2,-12(fp)
 c0025ec:	1006d7fa 	srli	r3,r2,31
 c0025f0:	1885883a 	add	r2,r3,r2
 c0025f4:	1005d07a 	srai	r2,r2,1
 c0025f8:	1085883a 	add	r2,r2,r2
 c0025fc:	1009883a 	mov	r4,r2
 c002600:	e0bfff17 	ldw	r2,-4(fp)
 c002604:	10c03fcc 	andi	r3,r2,255
 c002608:	e0bffe17 	ldw	r2,-8(fp)
 c00260c:	10803fcc 	andi	r2,r2,255
 c002610:	d8800015 	stw	r2,0(sp)
 c002614:	180f883a 	mov	r7,r3
 c002618:	200d883a 	mov	r6,r4
 c00261c:	e17ffc17 	ldw	r5,-16(fp)
 c002620:	e1000217 	ldw	r4,8(fp)
 c002624:	c001f700 	call	c001f70 <textVGADrawColorText>
		textVGADrawColorText (text, x, (y/2)*2+1, colorBG, colorFG);
 c002628:	e0bffd17 	ldw	r2,-12(fp)
 c00262c:	1006d7fa 	srli	r3,r2,31
 c002630:	1885883a 	add	r2,r3,r2
 c002634:	1005d07a 	srai	r2,r2,1
 c002638:	1085883a 	add	r2,r2,r2
 c00263c:	10c00044 	addi	r3,r2,1
 c002640:	e0bfff17 	ldw	r2,-4(fp)
 c002644:	11003fcc 	andi	r4,r2,255
 c002648:	e0bffe17 	ldw	r2,-8(fp)
 c00264c:	10803fcc 	andi	r2,r2,255
 c002650:	d8800015 	stw	r2,0(sp)
 c002654:	200f883a 	mov	r7,r4
 c002658:	180d883a 	mov	r6,r3
 c00265c:	e17ffc17 	ldw	r5,-16(fp)
 c002660:	e1000217 	ldw	r4,8(fp)
 c002664:	c001f700 	call	c001f70 <textVGADrawColorText>
}
 c002668:	0001883a 	nop
 c00266c:	e037883a 	mov	sp,fp
 c002670:	dfc00117 	ldw	ra,4(sp)
 c002674:	df000017 	ldw	fp,0(sp)
 c002678:	dec00204 	addi	sp,sp,8
 c00267c:	f800283a 	ret

0c002680 <HIDMProbe>:
/* HID Mouse probe. Called from USB state machine.                          */
/* assumes configuration length is less than 256 bytes                      */
/* looks for Class:03, Subclass: 01, Protocol: 02 in interface descriptor   */
/* sets mouse in boot protocol                                              */
/* assumes single configuration and interface configuration 0               */
BOOL HIDMProbe(BYTE addr, DWORD flags) {
 c002680:	defff204 	addi	sp,sp,-56
 c002684:	dfc00d15 	stw	ra,52(sp)
 c002688:	df000c15 	stw	fp,48(sp)
 c00268c:	df000c04 	addi	fp,sp,48
 c002690:	2005883a 	mov	r2,r4
 c002694:	e17fff15 	stw	r5,-4(fp)
 c002698:	e0bffe05 	stb	r2,-8(fp)
	BYTE tmpbyte;
	BYTE rcode;
	BYTE confvalue;
	WORD total_length;
	USB_DESCR* data_ptr = (USB_DESCR *) &bigbuf;
 c00269c:	008300b4 	movhi	r2,3074
 c0026a0:	109ab404 	addi	r2,r2,27344
 c0026a4:	e0bffa15 	stw	r2,-24(fp)
	BYTE* byte_ptr = bigbuf;
 c0026a8:	008300b4 	movhi	r2,3074
 c0026ac:	109ab404 	addi	r2,r2,27344
 c0026b0:	e0bffb15 	stw	r2,-20(fp)
	rcode = XferGetConfDescr(addr, 0, CONF_DESCR_LEN, 0, bigbuf); //get configuration descriptor
 c0026b4:	e0fffe03 	ldbu	r3,-8(fp)
 c0026b8:	008300b4 	movhi	r2,3074
 c0026bc:	109ab404 	addi	r2,r2,27344
 c0026c0:	d8800415 	stw	r2,16(sp)
 c0026c4:	00800244 	movi	r2,9
 c0026c8:	d8800315 	stw	r2,12(sp)
 c0026cc:	d8000215 	stw	zero,8(sp)
 c0026d0:	00800084 	movi	r2,2
 c0026d4:	d8800115 	stw	r2,4(sp)
 c0026d8:	d8000015 	stw	zero,0(sp)
 c0026dc:	01c00184 	movi	r7,6
 c0026e0:	01802004 	movi	r6,128
 c0026e4:	000b883a 	mov	r5,zero
 c0026e8:	1809883a 	mov	r4,r3
 c0026ec:	c00385c0 	call	c00385c <XferCtrlReq>
 c0026f0:	e0bffc05 	stb	r2,-16(fp)
	if (rcode) {   //error handling
 c0026f4:	e0bffc03 	ldbu	r2,-16(fp)
 c0026f8:	10000226 	beq	r2,zero,c002704 <HIDMProbe+0x84>
		//printf("unable to get configuration descriptor");
		return (FALSE);
 c0026fc:	0005883a 	mov	r2,zero
 c002700:	0000dc06 	br	c002a74 <HIDMProbe+0x3f4>
	}
	if (data_ptr->descr.config.wTotalLength > 256) {
 c002704:	e0bffa17 	ldw	r2,-24(fp)
 c002708:	1080008b 	ldhu	r2,2(r2)
 c00270c:	10bfffcc 	andi	r2,r2,65535
 c002710:	10804070 	cmpltui	r2,r2,257
 c002714:	1000031e 	bne	r2,zero,c002724 <HIDMProbe+0xa4>
		total_length = 256;
 c002718:	00804004 	movi	r2,256
 c00271c:	e0bff90d 	sth	r2,-28(fp)
 c002720:	00000306 	br	c002730 <HIDMProbe+0xb0>
	} else {
		total_length = data_ptr->descr.config.wTotalLength;
 c002724:	e0bffa17 	ldw	r2,-24(fp)
 c002728:	1080008b 	ldhu	r2,2(r2)
 c00272c:	e0bff90d 	sth	r2,-28(fp)
	}
	rcode = XferGetConfDescr(addr, 0, total_length, 0, bigbuf); //get the whole configuration
 c002730:	e13ffe03 	ldbu	r4,-8(fp)
 c002734:	e0fff90b 	ldhu	r3,-28(fp)
 c002738:	008300b4 	movhi	r2,3074
 c00273c:	109ab404 	addi	r2,r2,27344
 c002740:	d8800415 	stw	r2,16(sp)
 c002744:	d8c00315 	stw	r3,12(sp)
 c002748:	d8000215 	stw	zero,8(sp)
 c00274c:	00800084 	movi	r2,2
 c002750:	d8800115 	stw	r2,4(sp)
 c002754:	d8000015 	stw	zero,0(sp)
 c002758:	01c00184 	movi	r7,6
 c00275c:	01802004 	movi	r6,128
 c002760:	000b883a 	mov	r5,zero
 c002764:	c00385c0 	call	c00385c <XferCtrlReq>
 c002768:	e0bffc05 	stb	r2,-16(fp)
	if (rcode) {   //error handling
 c00276c:	e0bffc03 	ldbu	r2,-16(fp)
 c002770:	10000226 	beq	r2,zero,c00277c <HIDMProbe+0xfc>
		//printf("unable to get configuration");
		return (FALSE);
 c002774:	0005883a 	mov	r2,zero
 c002778:	0000be06 	br	c002a74 <HIDMProbe+0x3f4>
	}
	confvalue = data_ptr->descr.config.bConfigurationValue;
 c00277c:	e0bffa17 	ldw	r2,-24(fp)
 c002780:	10800143 	ldbu	r2,5(r2)
 c002784:	e0bffc45 	stb	r2,-15(fp)
	//printf("checking configuration value (length: %d): ",
	//		data_ptr->descr.config.wTotalLength);
	//for (int i = 0; i < data_ptr->descr.config.wTotalLength; i++) {
		//printf("%x ", (unsigned char) (bigbuf[i] & 0xff));
	//}
	while (byte_ptr < bigbuf + total_length) {
 c002788:	0000b306 	br	c002a58 <HIDMProbe+0x3d8>
		if (data_ptr->descr.config.bDescriptorType != USB_DESCRIPTOR_INTERFACE) {
 c00278c:	e0bffa17 	ldw	r2,-24(fp)
 c002790:	10800043 	ldbu	r2,1(r2)
 c002794:	10803fcc 	andi	r2,r2,255
 c002798:	10800120 	cmpeqi	r2,r2,4
 c00279c:	1000091e 	bne	r2,zero,c0027c4 <HIDMProbe+0x144>
			byte_ptr = byte_ptr + data_ptr->descr.config.bLength;
 c0027a0:	e0bffa17 	ldw	r2,-24(fp)
 c0027a4:	10800003 	ldbu	r2,0(r2)
 c0027a8:	10803fcc 	andi	r2,r2,255
 c0027ac:	e0fffb17 	ldw	r3,-20(fp)
 c0027b0:	1885883a 	add	r2,r3,r2
 c0027b4:	e0bffb15 	stw	r2,-20(fp)
			data_ptr = (USB_DESCR*) byte_ptr;
 c0027b8:	e0bffb17 	ldw	r2,-20(fp)
 c0027bc:	e0bffa15 	stw	r2,-24(fp)
 c0027c0:	0000a506 	br	c002a58 <HIDMProbe+0x3d8>
		} // if( data_ptr->descr.config.bDescriptorType != USB_DESCRIPTOR_INTERFACE
		else {
			//printf("starting interface parsing at byte location %d\n",
			//		data_ptr->descr.config.bLength);
			BYTE class = data_ptr->descr.interface.bInterfaceClass;
 c0027c4:	e0bffa17 	ldw	r2,-24(fp)
 c0027c8:	10800143 	ldbu	r2,5(r2)
 c0027cc:	e0bffc85 	stb	r2,-14(fp)
			BYTE subclass = data_ptr->descr.interface.bInterfaceSubClass;
 c0027d0:	e0bffa17 	ldw	r2,-24(fp)
 c0027d4:	10800183 	ldbu	r2,6(r2)
 c0027d8:	e0bffcc5 	stb	r2,-13(fp)
			BYTE protocol = data_ptr->descr.interface.bInterfaceProtocol;
 c0027dc:	e0bffa17 	ldw	r2,-24(fp)
 c0027e0:	108001c3 	ldbu	r2,7(r2)
 c0027e4:	e0bffd05 	stb	r2,-12(fp)
			//printf("class %x, subclass %x, protocol %x,\n", class, subclass,
			//		protocol);
			//interface descriptor
			if (class == HID_INTF && subclass == BOOT_INTF_SUBCLASS
 c0027e8:	e0bffc83 	ldbu	r2,-14(fp)
 c0027ec:	108000d8 	cmpnei	r2,r2,3
 c0027f0:	1000971e 	bne	r2,zero,c002a50 <HIDMProbe+0x3d0>
 c0027f4:	e0bffcc3 	ldbu	r2,-13(fp)
 c0027f8:	10800058 	cmpnei	r2,r2,1
 c0027fc:	1000941e 	bne	r2,zero,c002a50 <HIDMProbe+0x3d0>
					&& protocol == HID_PROTOCOL_MOUSE) {
 c002800:	e0bffd03 	ldbu	r2,-12(fp)
 c002804:	10800098 	cmpnei	r2,r2,2
 c002808:	1000911e 	bne	r2,zero,c002a50 <HIDMProbe+0x3d0>
				//detected a mouse
				devtable[addr].devclass = HID_M;                  //device class
 c00280c:	e0fffe03 	ldbu	r3,-8(fp)
 c002810:	008300b4 	movhi	r2,3074
 c002814:	109af404 	addi	r2,r2,27600
 c002818:	180690fa 	slli	r3,r3,3
 c00281c:	10c5883a 	add	r2,r2,r3
 c002820:	10800104 	addi	r2,r2,4
 c002824:	00c00084 	movi	r3,2
 c002828:	10c00005 	stb	r3,0(r2)
				tmpbyte = devtable[addr].epinfo->MaxPktSize;
 c00282c:	e0fffe03 	ldbu	r3,-8(fp)
 c002830:	008300b4 	movhi	r2,3074
 c002834:	109af404 	addi	r2,r2,27600
 c002838:	180690fa 	slli	r3,r3,3
 c00283c:	10c5883a 	add	r2,r2,r3
 c002840:	10800017 	ldw	r2,0(r2)
 c002844:	1080008b 	ldhu	r2,2(r2)
 c002848:	e0bffd45 	stb	r2,-11(fp)
				HID_init();                         //initialize data structures
 c00284c:	c002e900 	call	c002e90 <HID_init>
				devtable[addr].epinfo = hid_ep; //switch endpoint information structure
 c002850:	e0fffe03 	ldbu	r3,-8(fp)
 c002854:	008300b4 	movhi	r2,3074
 c002858:	109af404 	addi	r2,r2,27600
 c00285c:	180690fa 	slli	r3,r3,3
 c002860:	10c7883a 	add	r3,r2,r3
 c002864:	008300b4 	movhi	r2,3074
 c002868:	1087e004 	addi	r2,r2,8064
 c00286c:	18800015 	stw	r2,0(r3)
				devtable[addr].epinfo[0].MaxPktSize = tmpbyte;
 c002870:	e0fffe03 	ldbu	r3,-8(fp)
 c002874:	008300b4 	movhi	r2,3074
 c002878:	109af404 	addi	r2,r2,27600
 c00287c:	180690fa 	slli	r3,r3,3
 c002880:	10c5883a 	add	r2,r2,r3
 c002884:	10800017 	ldw	r2,0(r2)
 c002888:	e0fffd43 	ldbu	r3,-11(fp)
 c00288c:	10c0008d 	sth	r3,2(r2)
				hid_device.interface =
						data_ptr->descr.interface.bInterfaceNumber;
 c002890:	e0bffa17 	ldw	r2,-24(fp)
 c002894:	10800083 	ldbu	r2,2(r2)
				devtable[addr].devclass = HID_M;                  //device class
				tmpbyte = devtable[addr].epinfo->MaxPktSize;
				HID_init();                         //initialize data structures
				devtable[addr].epinfo = hid_ep; //switch endpoint information structure
				devtable[addr].epinfo[0].MaxPktSize = tmpbyte;
				hid_device.interface =
 c002898:	d0a7aa45 	stb	r2,-24919(gp)
						data_ptr->descr.interface.bInterfaceNumber;
				hid_device.addr = addr;
 c00289c:	e0bffe03 	ldbu	r2,-8(fp)
 c0028a0:	d0a7aa05 	stb	r2,-24920(gp)
				byte_ptr = byte_ptr + data_ptr->descr.config.bLength;
 c0028a4:	e0bffa17 	ldw	r2,-24(fp)
 c0028a8:	10800003 	ldbu	r2,0(r2)
 c0028ac:	10803fcc 	andi	r2,r2,255
 c0028b0:	e0fffb17 	ldw	r3,-20(fp)
 c0028b4:	1885883a 	add	r2,r3,r2
 c0028b8:	e0bffb15 	stw	r2,-20(fp)
				data_ptr = (USB_DESCR*) byte_ptr;
 c0028bc:	e0bffb17 	ldw	r2,-20(fp)
 c0028c0:	e0bffa15 	stw	r2,-24(fp)
				while (byte_ptr < bigbuf + total_length) {
 c0028c4:	00005b06 	br	c002a34 <HIDMProbe+0x3b4>
					if (data_ptr->descr.config.bDescriptorType
 c0028c8:	e0bffa17 	ldw	r2,-24(fp)
 c0028cc:	10800043 	ldbu	r2,1(r2)
 c0028d0:	10803fcc 	andi	r2,r2,255
 c0028d4:	10800160 	cmpeqi	r2,r2,5
 c0028d8:	1000091e 	bne	r2,zero,c002900 <HIDMProbe+0x280>
							!= USB_DESCRIPTOR_ENDPOINT) { //skip to endpoint descriptor
						byte_ptr = byte_ptr + data_ptr->descr.config.bLength;
 c0028dc:	e0bffa17 	ldw	r2,-24(fp)
 c0028e0:	10800003 	ldbu	r2,0(r2)
 c0028e4:	10803fcc 	andi	r2,r2,255
 c0028e8:	e0fffb17 	ldw	r3,-20(fp)
 c0028ec:	1885883a 	add	r2,r3,r2
 c0028f0:	e0bffb15 	stw	r2,-20(fp)
						data_ptr = (USB_DESCR*) byte_ptr;
 c0028f4:	e0bffb17 	ldw	r2,-20(fp)
 c0028f8:	e0bffa15 	stw	r2,-24(fp)
 c0028fc:	00004d06 	br	c002a34 <HIDMProbe+0x3b4>
					} else {
						/* fill endpoint information structure */
						devtable[addr].epinfo[1].epAddr =
 c002900:	e0fffe03 	ldbu	r3,-8(fp)
 c002904:	008300b4 	movhi	r2,3074
 c002908:	109af404 	addi	r2,r2,27600
 c00290c:	180690fa 	slli	r3,r3,3
 c002910:	10c5883a 	add	r2,r2,r3
 c002914:	10800017 	ldw	r2,0(r2)
 c002918:	10800204 	addi	r2,r2,8
								data_ptr->descr.endpoint.bEndpointAddress;
 c00291c:	e0fffa17 	ldw	r3,-24(fp)
 c002920:	18c00083 	ldbu	r3,2(r3)
							!= USB_DESCRIPTOR_ENDPOINT) { //skip to endpoint descriptor
						byte_ptr = byte_ptr + data_ptr->descr.config.bLength;
						data_ptr = (USB_DESCR*) byte_ptr;
					} else {
						/* fill endpoint information structure */
						devtable[addr].epinfo[1].epAddr =
 c002924:	10c00005 	stb	r3,0(r2)
								data_ptr->descr.endpoint.bEndpointAddress;
						devtable[addr].epinfo[1].Attr =
 c002928:	e0fffe03 	ldbu	r3,-8(fp)
 c00292c:	008300b4 	movhi	r2,3074
 c002930:	109af404 	addi	r2,r2,27600
 c002934:	180690fa 	slli	r3,r3,3
 c002938:	10c5883a 	add	r2,r2,r3
 c00293c:	10800017 	ldw	r2,0(r2)
 c002940:	10800204 	addi	r2,r2,8
								data_ptr->descr.endpoint.bmAttributes;
 c002944:	e0fffa17 	ldw	r3,-24(fp)
 c002948:	18c000c3 	ldbu	r3,3(r3)
						data_ptr = (USB_DESCR*) byte_ptr;
					} else {
						/* fill endpoint information structure */
						devtable[addr].epinfo[1].epAddr =
								data_ptr->descr.endpoint.bEndpointAddress;
						devtable[addr].epinfo[1].Attr =
 c00294c:	10c00045 	stb	r3,1(r2)
								data_ptr->descr.endpoint.bmAttributes;
						devtable[addr].epinfo[1].MaxPktSize =
 c002950:	e0fffe03 	ldbu	r3,-8(fp)
 c002954:	008300b4 	movhi	r2,3074
 c002958:	109af404 	addi	r2,r2,27600
 c00295c:	180690fa 	slli	r3,r3,3
 c002960:	10c5883a 	add	r2,r2,r3
 c002964:	10800017 	ldw	r2,0(r2)
 c002968:	10800204 	addi	r2,r2,8
								data_ptr->descr.endpoint.wMaxPacketSize;
 c00296c:	e0fffa17 	ldw	r3,-24(fp)
 c002970:	18c0010b 	ldhu	r3,4(r3)
						/* fill endpoint information structure */
						devtable[addr].epinfo[1].epAddr =
								data_ptr->descr.endpoint.bEndpointAddress;
						devtable[addr].epinfo[1].Attr =
								data_ptr->descr.endpoint.bmAttributes;
						devtable[addr].epinfo[1].MaxPktSize =
 c002974:	10c0008d 	sth	r3,2(r2)
								data_ptr->descr.endpoint.wMaxPacketSize;
						devtable[addr].epinfo[1].Interval =
 c002978:	e0fffe03 	ldbu	r3,-8(fp)
 c00297c:	008300b4 	movhi	r2,3074
 c002980:	109af404 	addi	r2,r2,27600
 c002984:	180690fa 	slli	r3,r3,3
 c002988:	10c5883a 	add	r2,r2,r3
 c00298c:	10800017 	ldw	r2,0(r2)
 c002990:	10800204 	addi	r2,r2,8
								data_ptr->descr.endpoint.bInterval;
 c002994:	e0fffa17 	ldw	r3,-24(fp)
 c002998:	18c00183 	ldbu	r3,6(r3)
								data_ptr->descr.endpoint.bEndpointAddress;
						devtable[addr].epinfo[1].Attr =
								data_ptr->descr.endpoint.bmAttributes;
						devtable[addr].epinfo[1].MaxPktSize =
								data_ptr->descr.endpoint.wMaxPacketSize;
						devtable[addr].epinfo[1].Interval =
 c00299c:	10c00105 	stb	r3,4(r2)
								data_ptr->descr.endpoint.bInterval;
						// devtable[ addr ].epinfo[ 1 ].rcvToggle = bmRCVTOG0;
						/* configure device */
						rcode = XferSetConf(addr, 0, confvalue); //set configuration
 c0029a0:	e0fffe03 	ldbu	r3,-8(fp)
 c0029a4:	e0bffc43 	ldbu	r2,-15(fp)
 c0029a8:	d8000415 	stw	zero,16(sp)
 c0029ac:	d8000315 	stw	zero,12(sp)
 c0029b0:	d8000215 	stw	zero,8(sp)
 c0029b4:	d8000115 	stw	zero,4(sp)
 c0029b8:	d8800015 	stw	r2,0(sp)
 c0029bc:	01c00244 	movi	r7,9
 c0029c0:	000d883a 	mov	r6,zero
 c0029c4:	000b883a 	mov	r5,zero
 c0029c8:	1809883a 	mov	r4,r3
 c0029cc:	c00385c0 	call	c00385c <XferCtrlReq>
 c0029d0:	e0bffc05 	stb	r2,-16(fp)
						if (rcode) {   //error handling
 c0029d4:	e0bffc03 	ldbu	r2,-16(fp)
 c0029d8:	10000226 	beq	r2,zero,c0029e4 <HIDMProbe+0x364>
							return (FALSE);
 c0029dc:	0005883a 	mov	r2,zero
 c0029e0:	00002406 	br	c002a74 <HIDMProbe+0x3f4>
						}
						rcode = XferSetProto(addr, 0, hid_device.interface,
 c0029e4:	e0fffe03 	ldbu	r3,-8(fp)
 c0029e8:	d0a7aa43 	ldbu	r2,-24919(gp)
 c0029ec:	10803fcc 	andi	r2,r2,255
 c0029f0:	d8000415 	stw	zero,16(sp)
 c0029f4:	d8000315 	stw	zero,12(sp)
 c0029f8:	d8800215 	stw	r2,8(sp)
 c0029fc:	d8000115 	stw	zero,4(sp)
 c002a00:	d8000015 	stw	zero,0(sp)
 c002a04:	01c002c4 	movi	r7,11
 c002a08:	01800844 	movi	r6,33
 c002a0c:	000b883a 	mov	r5,zero
 c002a10:	1809883a 	mov	r4,r3
 c002a14:	c00385c0 	call	c00385c <XferCtrlReq>
 c002a18:	e0bffc05 	stb	r2,-16(fp)
								BOOT_PROTOCOL);
						if (rcode) {   //error handling
 c002a1c:	e0bffc03 	ldbu	r2,-16(fp)
 c002a20:	10000226 	beq	r2,zero,c002a2c <HIDMProbe+0x3ac>
							return (FALSE);
 c002a24:	0005883a 	mov	r2,zero
 c002a28:	00001206 	br	c002a74 <HIDMProbe+0x3f4>
						} else {
							return (TRUE);
 c002a2c:	00800044 	movi	r2,1
 c002a30:	00001006 	br	c002a74 <HIDMProbe+0x3f4>
				hid_device.interface =
						data_ptr->descr.interface.bInterfaceNumber;
				hid_device.addr = addr;
				byte_ptr = byte_ptr + data_ptr->descr.config.bLength;
				data_ptr = (USB_DESCR*) byte_ptr;
				while (byte_ptr < bigbuf + total_length) {
 c002a34:	e0fff90b 	ldhu	r3,-28(fp)
 c002a38:	008300b4 	movhi	r2,3074
 c002a3c:	109ab404 	addi	r2,r2,27344
 c002a40:	1885883a 	add	r2,r3,r2
 c002a44:	e0fffb17 	ldw	r3,-20(fp)
 c002a48:	18bf9f36 	bltu	r3,r2,c0028c8 <__alt_data_end+0xfc0028c8>
			BYTE subclass = data_ptr->descr.interface.bInterfaceSubClass;
			BYTE protocol = data_ptr->descr.interface.bInterfaceProtocol;
			//printf("class %x, subclass %x, protocol %x,\n", class, subclass,
			//		protocol);
			//interface descriptor
			if (class == HID_INTF && subclass == BOOT_INTF_SUBCLASS
 c002a4c:	00000206 	br	c002a58 <HIDMProbe+0x3d8>
						}
					}
				}   //while( byte_ptr....
			}   //if (Class matches
			else { //if class don't match; die on first interface. Not really correct
				return (FALSE);
 c002a50:	0005883a 	mov	r2,zero
 c002a54:	00000706 	br	c002a74 <HIDMProbe+0x3f4>
	//printf("checking configuration value (length: %d): ",
	//		data_ptr->descr.config.wTotalLength);
	//for (int i = 0; i < data_ptr->descr.config.wTotalLength; i++) {
		//printf("%x ", (unsigned char) (bigbuf[i] & 0xff));
	//}
	while (byte_ptr < bigbuf + total_length) {
 c002a58:	e0fff90b 	ldhu	r3,-28(fp)
 c002a5c:	008300b4 	movhi	r2,3074
 c002a60:	109ab404 	addi	r2,r2,27344
 c002a64:	1885883a 	add	r2,r3,r2
 c002a68:	e0fffb17 	ldw	r3,-20(fp)
 c002a6c:	18bf4736 	bltu	r3,r2,c00278c <__alt_data_end+0xfc00278c>
			else { //if class don't match; die on first interface. Not really correct
				return (FALSE);
			}
		} //else if( data_ptr->
	} // while( byte_ptr < &buf + total_length
	return (FALSE);
 c002a70:	0005883a 	mov	r2,zero
}
 c002a74:	e037883a 	mov	sp,fp
 c002a78:	dfc00117 	ldw	ra,4(sp)
 c002a7c:	df000017 	ldw	fp,0(sp)
 c002a80:	dec00204 	addi	sp,sp,8
 c002a84:	f800283a 	ret

0c002a88 <HIDKProbe>:
/* HID Keyboard probe. Called from USB state machine.                           */
/* assumes configuration length is less than 256 bytes                          */
/* looks for Class:03, Subclass: 01, Protocol: 01 in interface descriptor       */
/* sets keyboard in boot protocol                                               */
/* assumes single configuration, single endpoint, and interface configuration 0 */
BOOL HIDKProbe(BYTE addr, DWORD flags) {
 c002a88:	defff204 	addi	sp,sp,-56
 c002a8c:	dfc00d15 	stw	ra,52(sp)
 c002a90:	df000c15 	stw	fp,48(sp)
 c002a94:	df000c04 	addi	fp,sp,48
 c002a98:	2005883a 	mov	r2,r4
 c002a9c:	e17fff15 	stw	r5,-4(fp)
 c002aa0:	e0bffe05 	stb	r2,-8(fp)
	BYTE tmpbyte;
	BYTE rcode;
	BYTE confvalue;
	WORD total_length;
	USB_DESCR* data_ptr = (USB_DESCR *) &bigbuf;
 c002aa4:	008300b4 	movhi	r2,3074
 c002aa8:	109ab404 	addi	r2,r2,27344
 c002aac:	e0bffa15 	stw	r2,-24(fp)
	BYTE* byte_ptr = bigbuf;
 c002ab0:	008300b4 	movhi	r2,3074
 c002ab4:	109ab404 	addi	r2,r2,27344
 c002ab8:	e0bffb15 	stw	r2,-20(fp)
	rcode = XferGetConfDescr(addr, 0, CONF_DESCR_LEN, 0, bigbuf); //get configuration descriptor
 c002abc:	e0fffe03 	ldbu	r3,-8(fp)
 c002ac0:	008300b4 	movhi	r2,3074
 c002ac4:	109ab404 	addi	r2,r2,27344
 c002ac8:	d8800415 	stw	r2,16(sp)
 c002acc:	00800244 	movi	r2,9
 c002ad0:	d8800315 	stw	r2,12(sp)
 c002ad4:	d8000215 	stw	zero,8(sp)
 c002ad8:	00800084 	movi	r2,2
 c002adc:	d8800115 	stw	r2,4(sp)
 c002ae0:	d8000015 	stw	zero,0(sp)
 c002ae4:	01c00184 	movi	r7,6
 c002ae8:	01802004 	movi	r6,128
 c002aec:	000b883a 	mov	r5,zero
 c002af0:	1809883a 	mov	r4,r3
 c002af4:	c00385c0 	call	c00385c <XferCtrlReq>
 c002af8:	e0bffc05 	stb	r2,-16(fp)
	if (rcode) {   //error handling           
 c002afc:	e0bffc03 	ldbu	r2,-16(fp)
 c002b00:	10000226 	beq	r2,zero,c002b0c <HIDKProbe+0x84>
		return (FALSE);
 c002b04:	0005883a 	mov	r2,zero
 c002b08:	0000dc06 	br	c002e7c <HIDKProbe+0x3f4>
	}
	if (data_ptr->descr.config.wTotalLength > 256) {
 c002b0c:	e0bffa17 	ldw	r2,-24(fp)
 c002b10:	1080008b 	ldhu	r2,2(r2)
 c002b14:	10bfffcc 	andi	r2,r2,65535
 c002b18:	10804070 	cmpltui	r2,r2,257
 c002b1c:	1000031e 	bne	r2,zero,c002b2c <HIDKProbe+0xa4>
		total_length = 256;
 c002b20:	00804004 	movi	r2,256
 c002b24:	e0bff90d 	sth	r2,-28(fp)
 c002b28:	00000306 	br	c002b38 <HIDKProbe+0xb0>
	} else {
		total_length = data_ptr->descr.config.wTotalLength;
 c002b2c:	e0bffa17 	ldw	r2,-24(fp)
 c002b30:	1080008b 	ldhu	r2,2(r2)
 c002b34:	e0bff90d 	sth	r2,-28(fp)
	}
	rcode = XferGetConfDescr(addr, 0, total_length, 0, bigbuf); //get the whole configuration
 c002b38:	e13ffe03 	ldbu	r4,-8(fp)
 c002b3c:	e0fff90b 	ldhu	r3,-28(fp)
 c002b40:	008300b4 	movhi	r2,3074
 c002b44:	109ab404 	addi	r2,r2,27344
 c002b48:	d8800415 	stw	r2,16(sp)
 c002b4c:	d8c00315 	stw	r3,12(sp)
 c002b50:	d8000215 	stw	zero,8(sp)
 c002b54:	00800084 	movi	r2,2
 c002b58:	d8800115 	stw	r2,4(sp)
 c002b5c:	d8000015 	stw	zero,0(sp)
 c002b60:	01c00184 	movi	r7,6
 c002b64:	01802004 	movi	r6,128
 c002b68:	000b883a 	mov	r5,zero
 c002b6c:	c00385c0 	call	c00385c <XferCtrlReq>
 c002b70:	e0bffc05 	stb	r2,-16(fp)
	if (rcode) {   //error handling
 c002b74:	e0bffc03 	ldbu	r2,-16(fp)
 c002b78:	10000226 	beq	r2,zero,c002b84 <HIDKProbe+0xfc>
		return (FALSE);
 c002b7c:	0005883a 	mov	r2,zero
 c002b80:	0000be06 	br	c002e7c <HIDKProbe+0x3f4>
	}
	confvalue = data_ptr->descr.config.bConfigurationValue; //save configuration value to use later
 c002b84:	e0bffa17 	ldw	r2,-24(fp)
 c002b88:	10800143 	ldbu	r2,5(r2)
 c002b8c:	e0bffc45 	stb	r2,-15(fp)
	while (byte_ptr < bigbuf + total_length) {             //parse configuration
 c002b90:	0000b306 	br	c002e60 <HIDKProbe+0x3d8>
		if (data_ptr->descr.config.bDescriptorType != USB_DESCRIPTOR_INTERFACE) { //skip to the next descriptor
 c002b94:	e0bffa17 	ldw	r2,-24(fp)
 c002b98:	10800043 	ldbu	r2,1(r2)
 c002b9c:	10803fcc 	andi	r2,r2,255
 c002ba0:	10800120 	cmpeqi	r2,r2,4
 c002ba4:	1000091e 	bne	r2,zero,c002bcc <HIDKProbe+0x144>
			byte_ptr = byte_ptr + data_ptr->descr.config.bLength;
 c002ba8:	e0bffa17 	ldw	r2,-24(fp)
 c002bac:	10800003 	ldbu	r2,0(r2)
 c002bb0:	10803fcc 	andi	r2,r2,255
 c002bb4:	e0fffb17 	ldw	r3,-20(fp)
 c002bb8:	1885883a 	add	r2,r3,r2
 c002bbc:	e0bffb15 	stw	r2,-20(fp)
			data_ptr = (USB_DESCR*) byte_ptr;
 c002bc0:	e0bffb17 	ldw	r2,-20(fp)
 c002bc4:	e0bffa15 	stw	r2,-24(fp)
 c002bc8:	0000a506 	br	c002e60 <HIDKProbe+0x3d8>
		} // if( data_ptr->descr.config.bDescriptorType != USB_DESCRIPTOR_INTERFACE
		else {
			//printf("starting interface parsing at byte location %d\n",
			//		data_ptr->descr.config.bLength);
			BYTE class = data_ptr->descr.interface.bInterfaceClass;
 c002bcc:	e0bffa17 	ldw	r2,-24(fp)
 c002bd0:	10800143 	ldbu	r2,5(r2)
 c002bd4:	e0bffc85 	stb	r2,-14(fp)
			BYTE subclass = data_ptr->descr.interface.bInterfaceSubClass;
 c002bd8:	e0bffa17 	ldw	r2,-24(fp)
 c002bdc:	10800183 	ldbu	r2,6(r2)
 c002be0:	e0bffcc5 	stb	r2,-13(fp)
			BYTE protocol = data_ptr->descr.interface.bInterfaceProtocol;
 c002be4:	e0bffa17 	ldw	r2,-24(fp)
 c002be8:	108001c3 	ldbu	r2,7(r2)
 c002bec:	e0bffd05 	stb	r2,-12(fp)
			//printf("class %x, subclass %x, protocol %x,\n", class, subclass,
			//		protocol);
			//interface descriptor
			if (class == HID_INTF && subclass == BOOT_INTF_SUBCLASS
 c002bf0:	e0bffc83 	ldbu	r2,-14(fp)
 c002bf4:	108000d8 	cmpnei	r2,r2,3
 c002bf8:	1000971e 	bne	r2,zero,c002e58 <HIDKProbe+0x3d0>
 c002bfc:	e0bffcc3 	ldbu	r2,-13(fp)
 c002c00:	10800058 	cmpnei	r2,r2,1
 c002c04:	1000941e 	bne	r2,zero,c002e58 <HIDKProbe+0x3d0>
					&& protocol == HID_PROTOCOL_KEYBOARD) {
 c002c08:	e0bffd03 	ldbu	r2,-12(fp)
 c002c0c:	10800058 	cmpnei	r2,r2,1
 c002c10:	1000911e 	bne	r2,zero,c002e58 <HIDKProbe+0x3d0>
				//detected a keyboard
				devtable[addr].devclass = HID_K;             //fill device class
 c002c14:	e0fffe03 	ldbu	r3,-8(fp)
 c002c18:	008300b4 	movhi	r2,3074
 c002c1c:	109af404 	addi	r2,r2,27600
 c002c20:	180690fa 	slli	r3,r3,3
 c002c24:	10c5883a 	add	r2,r2,r3
 c002c28:	10800104 	addi	r2,r2,4
 c002c2c:	00c00044 	movi	r3,1
 c002c30:	10c00005 	stb	r3,0(r2)
				tmpbyte = devtable[addr].epinfo->MaxPktSize; //save max.packet size
 c002c34:	e0fffe03 	ldbu	r3,-8(fp)
 c002c38:	008300b4 	movhi	r2,3074
 c002c3c:	109af404 	addi	r2,r2,27600
 c002c40:	180690fa 	slli	r3,r3,3
 c002c44:	10c5883a 	add	r2,r2,r3
 c002c48:	10800017 	ldw	r2,0(r2)
 c002c4c:	1080008b 	ldhu	r2,2(r2)
 c002c50:	e0bffd45 	stb	r2,-11(fp)
				HID_init();                         //initialize data structures
 c002c54:	c002e900 	call	c002e90 <HID_init>
				devtable[addr].epinfo = hid_ep; //switch endpoint information structure
 c002c58:	e0fffe03 	ldbu	r3,-8(fp)
 c002c5c:	008300b4 	movhi	r2,3074
 c002c60:	109af404 	addi	r2,r2,27600
 c002c64:	180690fa 	slli	r3,r3,3
 c002c68:	10c7883a 	add	r3,r2,r3
 c002c6c:	008300b4 	movhi	r2,3074
 c002c70:	1087e004 	addi	r2,r2,8064
 c002c74:	18800015 	stw	r2,0(r3)
				devtable[addr].epinfo[0].MaxPktSize = tmpbyte; //fill in max.packet size
 c002c78:	e0fffe03 	ldbu	r3,-8(fp)
 c002c7c:	008300b4 	movhi	r2,3074
 c002c80:	109af404 	addi	r2,r2,27600
 c002c84:	180690fa 	slli	r3,r3,3
 c002c88:	10c5883a 	add	r2,r2,r3
 c002c8c:	10800017 	ldw	r2,0(r2)
 c002c90:	e0fffd43 	ldbu	r3,-11(fp)
 c002c94:	10c0008d 	sth	r3,2(r2)
				hid_device.interface =
						data_ptr->descr.interface.bInterfaceNumber; //fill in interface number to be used in HID requests
 c002c98:	e0bffa17 	ldw	r2,-24(fp)
 c002c9c:	10800083 	ldbu	r2,2(r2)
				devtable[addr].devclass = HID_K;             //fill device class
				tmpbyte = devtable[addr].epinfo->MaxPktSize; //save max.packet size
				HID_init();                         //initialize data structures
				devtable[addr].epinfo = hid_ep; //switch endpoint information structure
				devtable[addr].epinfo[0].MaxPktSize = tmpbyte; //fill in max.packet size
				hid_device.interface =
 c002ca0:	d0a7aa45 	stb	r2,-24919(gp)
						data_ptr->descr.interface.bInterfaceNumber; //fill in interface number to be used in HID requests
				hid_device.addr = addr;                        //fill in address
 c002ca4:	e0bffe03 	ldbu	r2,-8(fp)
 c002ca8:	d0a7aa05 	stb	r2,-24920(gp)
				byte_ptr = byte_ptr + data_ptr->descr.config.bLength; //skip to the next descriptor
 c002cac:	e0bffa17 	ldw	r2,-24(fp)
 c002cb0:	10800003 	ldbu	r2,0(r2)
 c002cb4:	10803fcc 	andi	r2,r2,255
 c002cb8:	e0fffb17 	ldw	r3,-20(fp)
 c002cbc:	1885883a 	add	r2,r3,r2
 c002cc0:	e0bffb15 	stw	r2,-20(fp)
				data_ptr = (USB_DESCR*) byte_ptr;
 c002cc4:	e0bffb17 	ldw	r2,-20(fp)
 c002cc8:	e0bffa15 	stw	r2,-24(fp)
				while (byte_ptr < bigbuf + total_length) {
 c002ccc:	00005b06 	br	c002e3c <HIDKProbe+0x3b4>
					if (data_ptr->descr.config.bDescriptorType
 c002cd0:	e0bffa17 	ldw	r2,-24(fp)
 c002cd4:	10800043 	ldbu	r2,1(r2)
 c002cd8:	10803fcc 	andi	r2,r2,255
 c002cdc:	10800160 	cmpeqi	r2,r2,5
 c002ce0:	1000091e 	bne	r2,zero,c002d08 <HIDKProbe+0x280>
							!= USB_DESCRIPTOR_ENDPOINT) { //skip to endpoint descriptor
						byte_ptr = byte_ptr + data_ptr->descr.config.bLength;
 c002ce4:	e0bffa17 	ldw	r2,-24(fp)
 c002ce8:	10800003 	ldbu	r2,0(r2)
 c002cec:	10803fcc 	andi	r2,r2,255
 c002cf0:	e0fffb17 	ldw	r3,-20(fp)
 c002cf4:	1885883a 	add	r2,r3,r2
 c002cf8:	e0bffb15 	stw	r2,-20(fp)
						data_ptr = (USB_DESCR*) byte_ptr;
 c002cfc:	e0bffb17 	ldw	r2,-20(fp)
 c002d00:	e0bffa15 	stw	r2,-24(fp)
 c002d04:	00004d06 	br	c002e3c <HIDKProbe+0x3b4>
					} else {
						/* fill endpoint information structure */
						devtable[addr].epinfo[1].epAddr =
 c002d08:	e0fffe03 	ldbu	r3,-8(fp)
 c002d0c:	008300b4 	movhi	r2,3074
 c002d10:	109af404 	addi	r2,r2,27600
 c002d14:	180690fa 	slli	r3,r3,3
 c002d18:	10c5883a 	add	r2,r2,r3
 c002d1c:	10800017 	ldw	r2,0(r2)
 c002d20:	10800204 	addi	r2,r2,8
								data_ptr->descr.endpoint.bEndpointAddress;
 c002d24:	e0fffa17 	ldw	r3,-24(fp)
 c002d28:	18c00083 	ldbu	r3,2(r3)
							!= USB_DESCRIPTOR_ENDPOINT) { //skip to endpoint descriptor
						byte_ptr = byte_ptr + data_ptr->descr.config.bLength;
						data_ptr = (USB_DESCR*) byte_ptr;
					} else {
						/* fill endpoint information structure */
						devtable[addr].epinfo[1].epAddr =
 c002d2c:	10c00005 	stb	r3,0(r2)
								data_ptr->descr.endpoint.bEndpointAddress;
						devtable[addr].epinfo[1].Attr =
 c002d30:	e0fffe03 	ldbu	r3,-8(fp)
 c002d34:	008300b4 	movhi	r2,3074
 c002d38:	109af404 	addi	r2,r2,27600
 c002d3c:	180690fa 	slli	r3,r3,3
 c002d40:	10c5883a 	add	r2,r2,r3
 c002d44:	10800017 	ldw	r2,0(r2)
 c002d48:	10800204 	addi	r2,r2,8
								data_ptr->descr.endpoint.bmAttributes;
 c002d4c:	e0fffa17 	ldw	r3,-24(fp)
 c002d50:	18c000c3 	ldbu	r3,3(r3)
						data_ptr = (USB_DESCR*) byte_ptr;
					} else {
						/* fill endpoint information structure */
						devtable[addr].epinfo[1].epAddr =
								data_ptr->descr.endpoint.bEndpointAddress;
						devtable[addr].epinfo[1].Attr =
 c002d54:	10c00045 	stb	r3,1(r2)
								data_ptr->descr.endpoint.bmAttributes;
						devtable[addr].epinfo[1].MaxPktSize =
 c002d58:	e0fffe03 	ldbu	r3,-8(fp)
 c002d5c:	008300b4 	movhi	r2,3074
 c002d60:	109af404 	addi	r2,r2,27600
 c002d64:	180690fa 	slli	r3,r3,3
 c002d68:	10c5883a 	add	r2,r2,r3
 c002d6c:	10800017 	ldw	r2,0(r2)
 c002d70:	10800204 	addi	r2,r2,8
								data_ptr->descr.endpoint.wMaxPacketSize;
 c002d74:	e0fffa17 	ldw	r3,-24(fp)
 c002d78:	18c0010b 	ldhu	r3,4(r3)
						/* fill endpoint information structure */
						devtable[addr].epinfo[1].epAddr =
								data_ptr->descr.endpoint.bEndpointAddress;
						devtable[addr].epinfo[1].Attr =
								data_ptr->descr.endpoint.bmAttributes;
						devtable[addr].epinfo[1].MaxPktSize =
 c002d7c:	10c0008d 	sth	r3,2(r2)
								data_ptr->descr.endpoint.wMaxPacketSize;
						devtable[addr].epinfo[1].Interval =
 c002d80:	e0fffe03 	ldbu	r3,-8(fp)
 c002d84:	008300b4 	movhi	r2,3074
 c002d88:	109af404 	addi	r2,r2,27600
 c002d8c:	180690fa 	slli	r3,r3,3
 c002d90:	10c5883a 	add	r2,r2,r3
 c002d94:	10800017 	ldw	r2,0(r2)
 c002d98:	10800204 	addi	r2,r2,8
								data_ptr->descr.endpoint.bInterval;
 c002d9c:	e0fffa17 	ldw	r3,-24(fp)
 c002da0:	18c00183 	ldbu	r3,6(r3)
								data_ptr->descr.endpoint.bEndpointAddress;
						devtable[addr].epinfo[1].Attr =
								data_ptr->descr.endpoint.bmAttributes;
						devtable[addr].epinfo[1].MaxPktSize =
								data_ptr->descr.endpoint.wMaxPacketSize;
						devtable[addr].epinfo[1].Interval =
 c002da4:	10c00105 	stb	r3,4(r2)
								data_ptr->descr.endpoint.bInterval;
						/* configure device */
						rcode = XferSetConf(addr, 0, confvalue); //set configuration
 c002da8:	e0fffe03 	ldbu	r3,-8(fp)
 c002dac:	e0bffc43 	ldbu	r2,-15(fp)
 c002db0:	d8000415 	stw	zero,16(sp)
 c002db4:	d8000315 	stw	zero,12(sp)
 c002db8:	d8000215 	stw	zero,8(sp)
 c002dbc:	d8000115 	stw	zero,4(sp)
 c002dc0:	d8800015 	stw	r2,0(sp)
 c002dc4:	01c00244 	movi	r7,9
 c002dc8:	000d883a 	mov	r6,zero
 c002dcc:	000b883a 	mov	r5,zero
 c002dd0:	1809883a 	mov	r4,r3
 c002dd4:	c00385c0 	call	c00385c <XferCtrlReq>
 c002dd8:	e0bffc05 	stb	r2,-16(fp)
						if (rcode) {   //error handling
 c002ddc:	e0bffc03 	ldbu	r2,-16(fp)
 c002de0:	10000226 	beq	r2,zero,c002dec <HIDKProbe+0x364>
							return (FALSE);
 c002de4:	0005883a 	mov	r2,zero
 c002de8:	00002406 	br	c002e7c <HIDKProbe+0x3f4>
						}
						rcode = XferSetProto(addr, 0, hid_device.interface,
 c002dec:	e0fffe03 	ldbu	r3,-8(fp)
 c002df0:	d0a7aa43 	ldbu	r2,-24919(gp)
 c002df4:	10803fcc 	andi	r2,r2,255
 c002df8:	d8000415 	stw	zero,16(sp)
 c002dfc:	d8000315 	stw	zero,12(sp)
 c002e00:	d8800215 	stw	r2,8(sp)
 c002e04:	d8000115 	stw	zero,4(sp)
 c002e08:	d8000015 	stw	zero,0(sp)
 c002e0c:	01c002c4 	movi	r7,11
 c002e10:	01800844 	movi	r6,33
 c002e14:	000b883a 	mov	r5,zero
 c002e18:	1809883a 	mov	r4,r3
 c002e1c:	c00385c0 	call	c00385c <XferCtrlReq>
 c002e20:	e0bffc05 	stb	r2,-16(fp)
								BOOT_PROTOCOL);
						if (rcode) {   //error handling
 c002e24:	e0bffc03 	ldbu	r2,-16(fp)
 c002e28:	10000226 	beq	r2,zero,c002e34 <HIDKProbe+0x3ac>
							return (FALSE);
 c002e2c:	0005883a 	mov	r2,zero
 c002e30:	00001206 	br	c002e7c <HIDKProbe+0x3f4>
						} else {
							return (TRUE);
 c002e34:	00800044 	movi	r2,1
 c002e38:	00001006 	br	c002e7c <HIDKProbe+0x3f4>
				hid_device.interface =
						data_ptr->descr.interface.bInterfaceNumber; //fill in interface number to be used in HID requests
				hid_device.addr = addr;                        //fill in address
				byte_ptr = byte_ptr + data_ptr->descr.config.bLength; //skip to the next descriptor
				data_ptr = (USB_DESCR*) byte_ptr;
				while (byte_ptr < bigbuf + total_length) {
 c002e3c:	e0fff90b 	ldhu	r3,-28(fp)
 c002e40:	008300b4 	movhi	r2,3074
 c002e44:	109ab404 	addi	r2,r2,27344
 c002e48:	1885883a 	add	r2,r3,r2
 c002e4c:	e0fffb17 	ldw	r3,-20(fp)
 c002e50:	18bf9f36 	bltu	r3,r2,c002cd0 <__alt_data_end+0xfc002cd0>
			BYTE subclass = data_ptr->descr.interface.bInterfaceSubClass;
			BYTE protocol = data_ptr->descr.interface.bInterfaceProtocol;
			//printf("class %x, subclass %x, protocol %x,\n", class, subclass,
			//		protocol);
			//interface descriptor
			if (class == HID_INTF && subclass == BOOT_INTF_SUBCLASS
 c002e54:	00000206 	br	c002e60 <HIDKProbe+0x3d8>
						}
					}
				}   //while( byte_ptr....
			}   //if (Class matches
			else { //if class don't match; stop processing after first interface. Not really correct
				return (FALSE);
 c002e58:	0005883a 	mov	r2,zero
 c002e5c:	00000706 	br	c002e7c <HIDKProbe+0x3f4>
	rcode = XferGetConfDescr(addr, 0, total_length, 0, bigbuf); //get the whole configuration
	if (rcode) {   //error handling
		return (FALSE);
	}
	confvalue = data_ptr->descr.config.bConfigurationValue; //save configuration value to use later
	while (byte_ptr < bigbuf + total_length) {             //parse configuration
 c002e60:	e0fff90b 	ldhu	r3,-28(fp)
 c002e64:	008300b4 	movhi	r2,3074
 c002e68:	109ab404 	addi	r2,r2,27344
 c002e6c:	1885883a 	add	r2,r3,r2
 c002e70:	e0fffb17 	ldw	r3,-20(fp)
 c002e74:	18bf4736 	bltu	r3,r2,c002b94 <__alt_data_end+0xfc002b94>
			else { //if class don't match; stop processing after first interface. Not really correct
				return (FALSE);
			}
		} //else if( data_ptr->
	} // while( byte_ptr < &buf + total_length
	return (FALSE);
 c002e78:	0005883a 	mov	r2,zero
}
 c002e7c:	e037883a 	mov	sp,fp
 c002e80:	dfc00117 	ldw	ra,4(sp)
 c002e84:	df000017 	ldw	fp,0(sp)
 c002e88:	dec00204 	addi	sp,sp,8
 c002e8c:	f800283a 	ret

0c002e90 <HID_init>:
/* HID data structures initialization */
void HID_init(void) {
 c002e90:	deffff04 	addi	sp,sp,-4
 c002e94:	df000015 	stw	fp,0(sp)
 c002e98:	d839883a 	mov	fp,sp
	hid_ep[1].sndToggle = bmSNDTOG0;
 c002e9c:	008300b4 	movhi	r2,3074
 c002ea0:	1087e004 	addi	r2,r2,8064
 c002ea4:	00c01004 	movi	r3,64
 c002ea8:	10c00345 	stb	r3,13(r2)
	hid_ep[1].rcvToggle = bmRCVTOG0;
 c002eac:	008300b4 	movhi	r2,3074
 c002eb0:	1087e004 	addi	r2,r2,8064
 c002eb4:	00c00404 	movi	r3,16
 c002eb8:	10c00385 	stb	r3,14(r2)
}
 c002ebc:	0001883a 	nop
 c002ec0:	e037883a 	mov	sp,fp
 c002ec4:	df000017 	ldw	fp,0(sp)
 c002ec8:	dec00104 	addi	sp,sp,4
 c002ecc:	f800283a 	ret

0c002ed0 <mousePoll>:
/* poll boot mouse */
BYTE mousePoll(BOOT_MOUSE_REPORT* buf) {
 c002ed0:	defffb04 	addi	sp,sp,-20
 c002ed4:	dfc00415 	stw	ra,16(sp)
 c002ed8:	df000315 	stw	fp,12(sp)
 c002edc:	df000304 	addi	fp,sp,12
 c002ee0:	e13fff15 	stw	r4,-4(fp)
	BYTE rcode;
	MAXreg_wr( rPERADDR, hid_device.addr);    //set peripheral address
 c002ee4:	d0a7aa03 	ldbu	r2,-24920(gp)
 c002ee8:	10803fcc 	andi	r2,r2,255
 c002eec:	100b883a 	mov	r5,r2
 c002ef0:	01003804 	movi	r4,224
 c002ef4:	c0030ac0 	call	c0030ac <MAXreg_wr>
	rcode = XferInTransfer(hid_device.addr, 1, 8, (BYTE*) buf,
 c002ef8:	d0a7aa03 	ldbu	r2,-24920(gp)
 c002efc:	11003fcc 	andi	r4,r2,255
			devtable[hid_device.addr].epinfo[1].MaxPktSize);
 c002f00:	d0a7aa03 	ldbu	r2,-24920(gp)
 c002f04:	10c03fcc 	andi	r3,r2,255
 c002f08:	008300b4 	movhi	r2,3074
 c002f0c:	109af404 	addi	r2,r2,27600
 c002f10:	180690fa 	slli	r3,r3,3
 c002f14:	10c5883a 	add	r2,r2,r3
 c002f18:	10800017 	ldw	r2,0(r2)
 c002f1c:	10800204 	addi	r2,r2,8
 c002f20:	1080008b 	ldhu	r2,2(r2)
}
/* poll boot mouse */
BYTE mousePoll(BOOT_MOUSE_REPORT* buf) {
	BYTE rcode;
	MAXreg_wr( rPERADDR, hid_device.addr);    //set peripheral address
	rcode = XferInTransfer(hid_device.addr, 1, 8, (BYTE*) buf,
 c002f24:	10803fcc 	andi	r2,r2,255
 c002f28:	d8800015 	stw	r2,0(sp)
 c002f2c:	e1ffff17 	ldw	r7,-4(fp)
 c002f30:	01800204 	movi	r6,8
 c002f34:	01400044 	movi	r5,1
 c002f38:	c003c800 	call	c003c80 <XferInTransfer>
 c002f3c:	e0bffe05 	stb	r2,-8(fp)
			devtable[hid_device.addr].epinfo[1].MaxPktSize);
	return (rcode);
 c002f40:	e0bffe03 	ldbu	r2,-8(fp)
}
 c002f44:	e037883a 	mov	sp,fp
 c002f48:	dfc00117 	ldw	ra,4(sp)
 c002f4c:	df000017 	ldw	fp,0(sp)
 c002f50:	dec00204 	addi	sp,sp,8
 c002f54:	f800283a 	ret

0c002f58 <kbdPoll>:
/* poll boot keyboard */
BYTE kbdPoll(BOOT_KBD_REPORT* buf) {
 c002f58:	defffb04 	addi	sp,sp,-20
 c002f5c:	dfc00415 	stw	ra,16(sp)
 c002f60:	df000315 	stw	fp,12(sp)
 c002f64:	df000304 	addi	fp,sp,12
 c002f68:	e13fff15 	stw	r4,-4(fp)
	BYTE rcode;
	MAXreg_wr( rPERADDR, hid_device.addr);    //set peripheral address
 c002f6c:	d0a7aa03 	ldbu	r2,-24920(gp)
 c002f70:	10803fcc 	andi	r2,r2,255
 c002f74:	100b883a 	mov	r5,r2
 c002f78:	01003804 	movi	r4,224
 c002f7c:	c0030ac0 	call	c0030ac <MAXreg_wr>
	rcode = XferInTransfer(hid_device.addr, 1, 8, (BYTE*) buf,
 c002f80:	d0a7aa03 	ldbu	r2,-24920(gp)
 c002f84:	11003fcc 	andi	r4,r2,255
			devtable[hid_device.addr].epinfo[1].MaxPktSize);
 c002f88:	d0a7aa03 	ldbu	r2,-24920(gp)
 c002f8c:	10c03fcc 	andi	r3,r2,255
 c002f90:	008300b4 	movhi	r2,3074
 c002f94:	109af404 	addi	r2,r2,27600
 c002f98:	180690fa 	slli	r3,r3,3
 c002f9c:	10c5883a 	add	r2,r2,r3
 c002fa0:	10800017 	ldw	r2,0(r2)
 c002fa4:	10800204 	addi	r2,r2,8
 c002fa8:	1080008b 	ldhu	r2,2(r2)
}
/* poll boot keyboard */
BYTE kbdPoll(BOOT_KBD_REPORT* buf) {
	BYTE rcode;
	MAXreg_wr( rPERADDR, hid_device.addr);    //set peripheral address
	rcode = XferInTransfer(hid_device.addr, 1, 8, (BYTE*) buf,
 c002fac:	10803fcc 	andi	r2,r2,255
 c002fb0:	d8800015 	stw	r2,0(sp)
 c002fb4:	e1ffff17 	ldw	r7,-4(fp)
 c002fb8:	01800204 	movi	r6,8
 c002fbc:	01400044 	movi	r5,1
 c002fc0:	c003c800 	call	c003c80 <XferInTransfer>
 c002fc4:	e0bffe05 	stb	r2,-8(fp)
			devtable[hid_device.addr].epinfo[1].MaxPktSize);
	return (rcode);
 c002fc8:	e0bffe03 	ldbu	r2,-8(fp)
}
 c002fcc:	e037883a 	mov	sp,fp
 c002fd0:	dfc00117 	ldw	ra,4(sp)
 c002fd4:	df000017 	ldw	fp,0(sp)
 c002fd8:	dec00204 	addi	sp,sp,8
 c002fdc:	f800283a 	ret

0c002fe0 <HIDMEventHandler>:
BOOL HIDMEventHandler(BYTE address, BYTE event, void *data, DWORD size) {
 c002fe0:	defffb04 	addi	sp,sp,-20
 c002fe4:	df000415 	stw	fp,16(sp)
 c002fe8:	df000404 	addi	fp,sp,16
 c002fec:	2007883a 	mov	r3,r4
 c002ff0:	2805883a 	mov	r2,r5
 c002ff4:	e1bffe15 	stw	r6,-8(fp)
 c002ff8:	e1ffff15 	stw	r7,-4(fp)
 c002ffc:	e0fffc05 	stb	r3,-16(fp)
 c003000:	e0bffd05 	stb	r2,-12(fp)
	return (FALSE);
 c003004:	0005883a 	mov	r2,zero
}
 c003008:	e037883a 	mov	sp,fp
 c00300c:	df000017 	ldw	fp,0(sp)
 c003010:	dec00104 	addi	sp,sp,4
 c003014:	f800283a 	ret

0c003018 <HIDKEventHandler>:
BOOL HIDKEventHandler(BYTE address, BYTE event, void *data, DWORD size) {
 c003018:	defffb04 	addi	sp,sp,-20
 c00301c:	df000415 	stw	fp,16(sp)
 c003020:	df000404 	addi	fp,sp,16
 c003024:	2007883a 	mov	r3,r4
 c003028:	2805883a 	mov	r2,r5
 c00302c:	e1bffe15 	stw	r6,-8(fp)
 c003030:	e1ffff15 	stw	r7,-4(fp)
 c003034:	e0fffc05 	stb	r3,-16(fp)
 c003038:	e0bffd05 	stb	r2,-12(fp)
	return (FALSE);
 c00303c:	0005883a 	mov	r2,zero
}
 c003040:	e037883a 	mov	sp,fp
 c003044:	df000017 	ldw	fp,0(sp)
 c003048:	dec00104 	addi	sp,sp,4
 c00304c:	f800283a 	ret

0c003050 <SPI_init>:
//variables and data structures
//External variables
extern BYTE usb_task_state;

/* Functions    */
void SPI_init(BYTE sync_mode, BYTE bus_mode, BYTE smp_phase) {
 c003050:	defffc04 	addi	sp,sp,-16
 c003054:	df000315 	stw	fp,12(sp)
 c003058:	df000304 	addi	fp,sp,12
 c00305c:	2807883a 	mov	r3,r5
 c003060:	3005883a 	mov	r2,r6
 c003064:	e13ffd05 	stb	r4,-12(fp)
 c003068:	e0fffe05 	stb	r3,-8(fp)
 c00306c:	e0bfff05 	stb	r2,-4(fp)
	//Don't need to initialize SPI port, already ready to go with BSP
}
 c003070:	0001883a 	nop
 c003074:	e037883a 	mov	sp,fp
 c003078:	df000017 	ldw	fp,0(sp)
 c00307c:	dec00104 	addi	sp,sp,4
 c003080:	f800283a 	ret

0c003084 <SPI_wr>:

//writes single byte to MAX3421E via SPI, simultanously reads status register and returns it
BYTE SPI_wr(BYTE data) {
 c003084:	defffe04 	addi	sp,sp,-8
 c003088:	df000115 	stw	fp,4(sp)
 c00308c:	df000104 	addi	fp,sp,4
 c003090:	2005883a 	mov	r2,r4
 c003094:	e0bfff05 	stb	r2,-4(fp)
	//This function is never used by the code, so you do not need to fill it in
}
 c003098:	0001883a 	nop
 c00309c:	e037883a 	mov	sp,fp
 c0030a0:	df000017 	ldw	fp,0(sp)
 c0030a4:	dec00104 	addi	sp,sp,4
 c0030a8:	f800283a 	ret

0c0030ac <MAXreg_wr>:
//writes register to MAX3421E via SPI
void MAXreg_wr(BYTE reg, BYTE val) {
 c0030ac:	defff704 	addi	sp,sp,-36
 c0030b0:	dfc00815 	stw	ra,32(sp)
 c0030b4:	df000715 	stw	fp,28(sp)
 c0030b8:	df000704 	addi	fp,sp,28
 c0030bc:	2007883a 	mov	r3,r4
 c0030c0:	2805883a 	mov	r2,r5
 c0030c4:	e0fffe05 	stb	r3,-8(fp)
 c0030c8:	e0bfff05 	stb	r2,-4(fp)
	//write val via SPI
	//read return code from SPI peripheral (see Intel documentation) 
	//if return code < 0 print an error
	//deselect MAX3421E (may not be necessary if you are using SPI peripheral)
	BYTE array[2];
	array[0]=(reg+2);
 c0030cc:	e0bffe03 	ldbu	r2,-8(fp)
 c0030d0:	10800084 	addi	r2,r2,2
 c0030d4:	e0bffd05 	stb	r2,-12(fp)
	array[1]=val;
 c0030d8:	e0bfff03 	ldbu	r2,-4(fp)
 c0030dc:	e0bffd45 	stb	r2,-11(fp)
	int retura=alt_avalon_spi_command(0xc0,0,2,array,0,0,0);
 c0030e0:	e0bffd04 	addi	r2,fp,-12
 c0030e4:	d8000215 	stw	zero,8(sp)
 c0030e8:	d8000115 	stw	zero,4(sp)
 c0030ec:	d8000015 	stw	zero,0(sp)
 c0030f0:	100f883a 	mov	r7,r2
 c0030f4:	01800084 	movi	r6,2
 c0030f8:	000b883a 	mov	r5,zero
 c0030fc:	01003004 	movi	r4,192
 c003100:	c01c1d00 	call	c01c1d0 <alt_avalon_spi_command>
 c003104:	e0bffc15 	stw	r2,-16(fp)
			if (retura<0){alt_printf("errpr\n");}
 c003108:	e0bffc17 	ldw	r2,-16(fp)
 c00310c:	1000030e 	bge	r2,zero,c00311c <MAXreg_wr+0x70>
 c003110:	010300b4 	movhi	r4,3074
 c003114:	2136b704 	addi	r4,r4,-9508
 c003118:	c01aeac0 	call	c01aeac <alt_printf>


}
 c00311c:	0001883a 	nop
 c003120:	e037883a 	mov	sp,fp
 c003124:	dfc00117 	ldw	ra,4(sp)
 c003128:	df000017 	ldw	fp,0(sp)
 c00312c:	dec00204 	addi	sp,sp,8
 c003130:	f800283a 	ret

0c003134 <MAXbytes_wr>:
//multiple-byte write
//returns a pointer to a memory position after last written
BYTE* MAXbytes_wr(BYTE reg, BYTE nbytes, BYTE* data) {
 c003134:	defff304 	addi	sp,sp,-52
 c003138:	dfc00c15 	stw	ra,48(sp)
 c00313c:	df000b15 	stw	fp,44(sp)
 c003140:	dc000a15 	stw	r16,40(sp)
 c003144:	df000b04 	addi	fp,sp,44
 c003148:	201b883a 	mov	r13,r4
 c00314c:	2809883a 	mov	r4,r5
 c003150:	e1bffe15 	stw	r6,-8(fp)
 c003154:	e37ffc05 	stb	r13,-16(fp)
 c003158:	e13ffd05 	stb	r4,-12(fp)
 c00315c:	d809883a 	mov	r4,sp
 c003160:	2021883a 	mov	r16,r4
	//write data[n] via SPI, where n goes from 0 to nbytes-1
	//read return code from SPI peripheral (see Intel documentation) 
	//if return code < 0  print an error
	//deselect MAX3421E (may not be necessary if you are using SPI peripheral)
	//return (data + nbytes);
	BYTE array[nbytes+1];
 c003164:	e13ffd03 	ldbu	r4,-12(fp)
 c003168:	21000044 	addi	r4,r4,1
 c00316c:	217fffc4 	addi	r5,r4,-1
 c003170:	e17ff915 	stw	r5,-28(fp)
 c003174:	200b883a 	mov	r5,r4
 c003178:	2817883a 	mov	r11,r5
 c00317c:	0019883a 	mov	r12,zero
 c003180:	580ad77a 	srli	r5,r11,29
 c003184:	601090fa 	slli	r8,r12,3
 c003188:	2a10b03a 	or	r8,r5,r8
 c00318c:	580e90fa 	slli	r7,r11,3
 c003190:	200b883a 	mov	r5,r4
 c003194:	2813883a 	mov	r9,r5
 c003198:	0015883a 	mov	r10,zero
 c00319c:	480ad77a 	srli	r5,r9,29
 c0031a0:	500690fa 	slli	r3,r10,3
 c0031a4:	28c6b03a 	or	r3,r5,r3
 c0031a8:	480490fa 	slli	r2,r9,3
 c0031ac:	2005883a 	mov	r2,r4
 c0031b0:	108000c4 	addi	r2,r2,3
 c0031b4:	1004d0ba 	srli	r2,r2,2
 c0031b8:	1085883a 	add	r2,r2,r2
 c0031bc:	1085883a 	add	r2,r2,r2
 c0031c0:	d8b7c83a 	sub	sp,sp,r2
 c0031c4:	d8800304 	addi	r2,sp,12
 c0031c8:	1005883a 	mov	r2,r2
 c0031cc:	e0bffa15 	stw	r2,-24(fp)
	array[0]=reg+2;
 c0031d0:	e0bffc03 	ldbu	r2,-16(fp)
 c0031d4:	10800084 	addi	r2,r2,2
 c0031d8:	1007883a 	mov	r3,r2
 c0031dc:	e0bffa17 	ldw	r2,-24(fp)
 c0031e0:	10c00005 	stb	r3,0(r2)
	for (int i=1;i<=nbytes;i++){
 c0031e4:	00800044 	movi	r2,1
 c0031e8:	e0bff815 	stw	r2,-32(fp)
 c0031ec:	00000c06 	br	c003220 <MAXbytes_wr+0xec>
		array[i]=data[i-1];
 c0031f0:	e0bff817 	ldw	r2,-32(fp)
 c0031f4:	10bfffc4 	addi	r2,r2,-1
 c0031f8:	e0fffe17 	ldw	r3,-8(fp)
 c0031fc:	1885883a 	add	r2,r3,r2
 c003200:	10c00003 	ldbu	r3,0(r2)
 c003204:	e13ffa17 	ldw	r4,-24(fp)
 c003208:	e0bff817 	ldw	r2,-32(fp)
 c00320c:	2085883a 	add	r2,r4,r2
 c003210:	10c00005 	stb	r3,0(r2)
	//if return code < 0  print an error
	//deselect MAX3421E (may not be necessary if you are using SPI peripheral)
	//return (data + nbytes);
	BYTE array[nbytes+1];
	array[0]=reg+2;
	for (int i=1;i<=nbytes;i++){
 c003214:	e0bff817 	ldw	r2,-32(fp)
 c003218:	10800044 	addi	r2,r2,1
 c00321c:	e0bff815 	stw	r2,-32(fp)
 c003220:	e0fffd03 	ldbu	r3,-12(fp)
 c003224:	e0bff817 	ldw	r2,-32(fp)
 c003228:	18bff10e 	bge	r3,r2,c0031f0 <__alt_data_end+0xfc0031f0>
		array[i]=data[i-1];
	}
	int retura=alt_avalon_spi_command(0xc0,0,nbytes+1,array,0,0,0);
 c00322c:	e0bffd03 	ldbu	r2,-12(fp)
 c003230:	10800044 	addi	r2,r2,1
 c003234:	1007883a 	mov	r3,r2
 c003238:	e0bffa17 	ldw	r2,-24(fp)
 c00323c:	d8000215 	stw	zero,8(sp)
 c003240:	d8000115 	stw	zero,4(sp)
 c003244:	d8000015 	stw	zero,0(sp)
 c003248:	100f883a 	mov	r7,r2
 c00324c:	180d883a 	mov	r6,r3
 c003250:	000b883a 	mov	r5,zero
 c003254:	01003004 	movi	r4,192
 c003258:	c01c1d00 	call	c01c1d0 <alt_avalon_spi_command>
 c00325c:	e0bffb15 	stw	r2,-20(fp)
				if (retura<0){alt_printf("errpr\n");}
 c003260:	e0bffb17 	ldw	r2,-20(fp)
 c003264:	1000030e 	bge	r2,zero,c003274 <MAXbytes_wr+0x140>
 c003268:	010300b4 	movhi	r4,3074
 c00326c:	2136b704 	addi	r4,r4,-9508
 c003270:	c01aeac0 	call	c01aeac <alt_printf>
				return (data+nbytes);
 c003274:	e0bffd03 	ldbu	r2,-12(fp)
 c003278:	e0fffe17 	ldw	r3,-8(fp)
 c00327c:	1885883a 	add	r2,r3,r2
 c003280:	8037883a 	mov	sp,r16
}
 c003284:	e6ffff04 	addi	sp,fp,-4
 c003288:	dfc00217 	ldw	ra,8(sp)
 c00328c:	df000117 	ldw	fp,4(sp)
 c003290:	dc000017 	ldw	r16,0(sp)
 c003294:	dec00304 	addi	sp,sp,12
 c003298:	f800283a 	ret

0c00329c <MAXreg_rd>:

//reads register from MAX3421E via SPI
BYTE MAXreg_rd(BYTE reg) {
 c00329c:	defff804 	addi	sp,sp,-32
 c0032a0:	dfc00715 	stw	ra,28(sp)
 c0032a4:	df000615 	stw	fp,24(sp)
 c0032a8:	df000604 	addi	fp,sp,24
 c0032ac:	2005883a 	mov	r2,r4
 c0032b0:	e0bfff05 	stb	r2,-4(fp)
	//read return code from SPI peripheral (see Intel documentation)
	//if return code < 0 print an error
	//deselect MAX3421E (may not be necessary if you are using SPI peripheral)
	//return val
BYTE val;
	int retura=alt_avalon_spi_command(0xc0,0,1,&reg,1,&val,0);
 c0032b4:	e0ffff04 	addi	r3,fp,-4
 c0032b8:	d8000215 	stw	zero,8(sp)
 c0032bc:	e0bffe04 	addi	r2,fp,-8
 c0032c0:	d8800115 	stw	r2,4(sp)
 c0032c4:	00800044 	movi	r2,1
 c0032c8:	d8800015 	stw	r2,0(sp)
 c0032cc:	180f883a 	mov	r7,r3
 c0032d0:	01800044 	movi	r6,1
 c0032d4:	000b883a 	mov	r5,zero
 c0032d8:	01003004 	movi	r4,192
 c0032dc:	c01c1d00 	call	c01c1d0 <alt_avalon_spi_command>
 c0032e0:	e0bffd15 	stw	r2,-12(fp)
	if (retura<0){alt_printf("errpr\n");}
 c0032e4:	e0bffd17 	ldw	r2,-12(fp)
 c0032e8:	1000030e 	bge	r2,zero,c0032f8 <MAXreg_rd+0x5c>
 c0032ec:	010300b4 	movhi	r4,3074
 c0032f0:	2136b704 	addi	r4,r4,-9508
 c0032f4:	c01aeac0 	call	c01aeac <alt_printf>
	return val;
 c0032f8:	e0bffe03 	ldbu	r2,-8(fp)

}
 c0032fc:	e037883a 	mov	sp,fp
 c003300:	dfc00117 	ldw	ra,4(sp)
 c003304:	df000017 	ldw	fp,0(sp)
 c003308:	dec00204 	addi	sp,sp,8
 c00330c:	f800283a 	ret

0c003310 <MAXbytes_rd>:
//multiple-byte write
//returns a pointer to a memory position after last written
BYTE* MAXbytes_rd(BYTE reg, BYTE nbytes, BYTE* data) {
 c003310:	defff404 	addi	sp,sp,-48
 c003314:	dfc00b15 	stw	ra,44(sp)
 c003318:	df000a15 	stw	fp,40(sp)
 c00331c:	dc000915 	stw	r16,36(sp)
 c003320:	df000a04 	addi	fp,sp,40
 c003324:	201b883a 	mov	r13,r4
 c003328:	2809883a 	mov	r4,r5
 c00332c:	e1bffe15 	stw	r6,-8(fp)
 c003330:	e37ffc05 	stb	r13,-16(fp)
 c003334:	e13ffd05 	stb	r4,-12(fp)
 c003338:	d809883a 	mov	r4,sp
 c00333c:	2021883a 	mov	r16,r4
	//read data[n] from SPI, where n goes from 0 to nbytes-1
	//read return code from SPI peripheral (see Intel documentation)
	//if return code < 0 print an error
	//deselect MAX3421E (may not be necessary if you are using SPI peripheral)
	//return (data + nbytes);
	BYTE array[nbytes];
 c003340:	e13ffd03 	ldbu	r4,-12(fp)
 c003344:	21403fcc 	andi	r5,r4,255
 c003348:	297fffc4 	addi	r5,r5,-1
 c00334c:	e17ff915 	stw	r5,-28(fp)
 c003350:	21403fcc 	andi	r5,r4,255
 c003354:	2817883a 	mov	r11,r5
 c003358:	0019883a 	mov	r12,zero
 c00335c:	580ad77a 	srli	r5,r11,29
 c003360:	601090fa 	slli	r8,r12,3
 c003364:	2a10b03a 	or	r8,r5,r8
 c003368:	580e90fa 	slli	r7,r11,3
 c00336c:	21403fcc 	andi	r5,r4,255
 c003370:	2813883a 	mov	r9,r5
 c003374:	0015883a 	mov	r10,zero
 c003378:	480ad77a 	srli	r5,r9,29
 c00337c:	500690fa 	slli	r3,r10,3
 c003380:	28c6b03a 	or	r3,r5,r3
 c003384:	480490fa 	slli	r2,r9,3
 c003388:	20803fcc 	andi	r2,r4,255
 c00338c:	108000c4 	addi	r2,r2,3
 c003390:	1004d0ba 	srli	r2,r2,2
 c003394:	1085883a 	add	r2,r2,r2
 c003398:	1085883a 	add	r2,r2,r2
 c00339c:	d8b7c83a 	sub	sp,sp,r2
 c0033a0:	d8800304 	addi	r2,sp,12
 c0033a4:	1005883a 	mov	r2,r2
 c0033a8:	e0bffa15 	stw	r2,-24(fp)


		int retura=alt_avalon_spi_command(0xc0,0,1,&reg,nbytes,data,0);
 c0033ac:	e0bffd03 	ldbu	r2,-12(fp)
 c0033b0:	e13ffc04 	addi	r4,fp,-16
 c0033b4:	d8000215 	stw	zero,8(sp)
 c0033b8:	e0fffe17 	ldw	r3,-8(fp)
 c0033bc:	d8c00115 	stw	r3,4(sp)
 c0033c0:	d8800015 	stw	r2,0(sp)
 c0033c4:	200f883a 	mov	r7,r4
 c0033c8:	01800044 	movi	r6,1
 c0033cc:	000b883a 	mov	r5,zero
 c0033d0:	01003004 	movi	r4,192
 c0033d4:	c01c1d00 	call	c01c1d0 <alt_avalon_spi_command>
 c0033d8:	e0bffb15 	stw	r2,-20(fp)
					if (retura<0){alt_printf("errpr\n");}
 c0033dc:	e0bffb17 	ldw	r2,-20(fp)
 c0033e0:	1000030e 	bge	r2,zero,c0033f0 <MAXbytes_rd+0xe0>
 c0033e4:	010300b4 	movhi	r4,3074
 c0033e8:	2136b704 	addi	r4,r4,-9508
 c0033ec:	c01aeac0 	call	c01aeac <alt_printf>
					return (data+nbytes);
 c0033f0:	e0bffd03 	ldbu	r2,-12(fp)
 c0033f4:	e0fffe17 	ldw	r3,-8(fp)
 c0033f8:	1885883a 	add	r2,r3,r2
 c0033fc:	8037883a 	mov	sp,r16
	}
 c003400:	e6ffff04 	addi	sp,fp,-4
 c003404:	dfc00217 	ldw	ra,8(sp)
 c003408:	df000117 	ldw	fp,4(sp)
 c00340c:	dc000017 	ldw	r16,0(sp)
 c003410:	dec00304 	addi	sp,sp,12
 c003414:	f800283a 	ret

0c003418 <MAX3421E_reset>:

/* reset MAX3421E using chip reset bit. SPI configuration is not affected   */
void MAX3421E_reset(void) {
 c003418:	defffd04 	addi	sp,sp,-12
 c00341c:	dfc00215 	stw	ra,8(sp)
 c003420:	df000115 	stw	fp,4(sp)
 c003424:	df000104 	addi	fp,sp,4
	//hardware reset, then software reset
	IOWR_ALTERA_AVALON_PIO_DATA(USB_RST_BASE, 0);
 c003428:	0007883a 	mov	r3,zero
 c00342c:	00805804 	movi	r2,352
 c003430:	10c00035 	stwio	r3,0(r2)
	usleep(1000000);
 c003434:	010003f4 	movhi	r4,15
 c003438:	21109004 	addi	r4,r4,16960
 c00343c:	c01b52c0 	call	c01b52c <usleep>
	IOWR_ALTERA_AVALON_PIO_DATA(USB_RST_BASE, 1);
 c003440:	00c00044 	movi	r3,1
 c003444:	00805804 	movi	r2,352
 c003448:	10c00035 	stwio	r3,0(r2)
	BYTE tmp = 0;
 c00344c:	e03fff05 	stb	zero,-4(fp)
	MAXreg_wr( rUSBCTL, bmCHIPRES);      //Chip reset. This stops the oscillator
 c003450:	01400804 	movi	r5,32
 c003454:	01001e04 	movi	r4,120
 c003458:	c0030ac0 	call	c0030ac <MAXreg_wr>
	MAXreg_wr( rUSBCTL, 0x00);                          //Remove the reset
 c00345c:	000b883a 	mov	r5,zero
 c003460:	01001e04 	movi	r4,120
 c003464:	c0030ac0 	call	c0030ac <MAXreg_wr>
	while (!(MAXreg_rd( rUSBIRQ) & bmOSCOKIRQ)) { //wait until the PLL stabilizes
 c003468:	00000806 	br	c00348c <MAX3421E_reset+0x74>
		tmp++;                                      //timeout after 256 attempts
 c00346c:	e0bfff03 	ldbu	r2,-4(fp)
 c003470:	10800044 	addi	r2,r2,1
 c003474:	e0bfff05 	stb	r2,-4(fp)
		if (tmp == 0) {
 c003478:	e0bfff03 	ldbu	r2,-4(fp)
 c00347c:	1000031e 	bne	r2,zero,c00348c <MAX3421E_reset+0x74>
			printf("reset timeout!");
 c003480:	010300b4 	movhi	r4,3074
 c003484:	2136b904 	addi	r4,r4,-9500
 c003488:	c0051340 	call	c005134 <printf>
	usleep(1000000);
	IOWR_ALTERA_AVALON_PIO_DATA(USB_RST_BASE, 1);
	BYTE tmp = 0;
	MAXreg_wr( rUSBCTL, bmCHIPRES);      //Chip reset. This stops the oscillator
	MAXreg_wr( rUSBCTL, 0x00);                          //Remove the reset
	while (!(MAXreg_rd( rUSBIRQ) & bmOSCOKIRQ)) { //wait until the PLL stabilizes
 c00348c:	01001a04 	movi	r4,104
 c003490:	c00329c0 	call	c00329c <MAXreg_rd>
 c003494:	10803fcc 	andi	r2,r2,255
 c003498:	1080004c 	andi	r2,r2,1
 c00349c:	103ff326 	beq	r2,zero,c00346c <__alt_data_end+0xfc00346c>
		tmp++;                                      //timeout after 256 attempts
		if (tmp == 0) {
			printf("reset timeout!");
		}
	}
}
 c0034a0:	0001883a 	nop
 c0034a4:	e037883a 	mov	sp,fp
 c0034a8:	dfc00117 	ldw	ra,4(sp)
 c0034ac:	df000017 	ldw	fp,0(sp)
 c0034b0:	dec00204 	addi	sp,sp,8
 c0034b4:	f800283a 	ret

0c0034b8 <Vbus_power>:
/* turn USB power on/off                                                */
/* ON pin of VBUS switch (MAX4793 or similar) is connected to GPOUT7    */
/* OVERLOAD pin of Vbus switch is connected to GPIN7                    */
/* OVERLOAD state low. NO OVERLOAD or VBUS OFF state high.              */
BOOL Vbus_power(BOOL action) {
 c0034b8:	defffe04 	addi	sp,sp,-8
 c0034bc:	df000115 	stw	fp,4(sp)
 c0034c0:	df000104 	addi	fp,sp,4
 c0034c4:	e13fff15 	stw	r4,-4(fp)
	// power on/off successful
	return (1);
 c0034c8:	00800044 	movi	r2,1
}
 c0034cc:	e037883a 	mov	sp,fp
 c0034d0:	df000017 	ldw	fp,0(sp)
 c0034d4:	dec00104 	addi	sp,sp,4
 c0034d8:	f800283a 	ret

0c0034dc <MAX_busprobe>:

/* probe bus to determine device presense and speed */
void MAX_busprobe(void) {
 c0034dc:	defffd04 	addi	sp,sp,-12
 c0034e0:	dfc00215 	stw	ra,8(sp)
 c0034e4:	df000115 	stw	fp,4(sp)
 c0034e8:	df000104 	addi	fp,sp,4
	BYTE bus_sample;

//  MAXreg_wr(rHCTL,bmSAMPLEBUS);
	bus_sample = MAXreg_rd( rHRSL);            //Get J,K status
 c0034ec:	01003e04 	movi	r4,248
 c0034f0:	c00329c0 	call	c00329c <MAXreg_rd>
 c0034f4:	e0bfff05 	stb	r2,-4(fp)
	bus_sample &= ( bmJSTATUS | bmKSTATUS);      //zero the rest of the byte
 c0034f8:	e0ffff03 	ldbu	r3,-4(fp)
 c0034fc:	00bff004 	movi	r2,-64
 c003500:	1884703a 	and	r2,r3,r2
 c003504:	e0bfff05 	stb	r2,-4(fp)

	switch (bus_sample) {                   //start full-speed or low-speed host
 c003508:	e0bfff03 	ldbu	r2,-4(fp)
 c00350c:	10c01020 	cmpeqi	r3,r2,64
 c003510:	1800221e 	bne	r3,zero,c00359c <MAX_busprobe+0xc0>
 c003514:	10c01048 	cmpgei	r3,r2,65
 c003518:	1800021e 	bne	r3,zero,c003524 <MAX_busprobe+0x48>
 c00351c:	10003b26 	beq	r2,zero,c00360c <MAX_busprobe+0x130>
			MAXreg_wr( rMODE, MODE_FS_HOST); //start full-speed host
			usb_task_state = ( USB_DETACHED_SUBSTATE_WAIT_FOR_DEVICE);
		}
		break;
	} //end switch( bus_sample )
}
 c003520:	00004a06 	br	c00364c <MAX_busprobe+0x170>

//  MAXreg_wr(rHCTL,bmSAMPLEBUS);
	bus_sample = MAXreg_rd( rHRSL);            //Get J,K status
	bus_sample &= ( bmJSTATUS | bmKSTATUS);      //zero the rest of the byte

	switch (bus_sample) {                   //start full-speed or low-speed host
 c003524:	10c02020 	cmpeqi	r3,r2,128
 c003528:	1800031e 	bne	r3,zero,c003538 <MAX_busprobe+0x5c>
 c00352c:	10803020 	cmpeqi	r2,r2,192
 c003530:	1000331e 	bne	r2,zero,c003600 <MAX_busprobe+0x124>
			MAXreg_wr( rMODE, MODE_FS_HOST); //start full-speed host
			usb_task_state = ( USB_DETACHED_SUBSTATE_WAIT_FOR_DEVICE);
		}
		break;
	} //end switch( bus_sample )
}
 c003534:	00004506 	br	c00364c <MAX_busprobe+0x170>
	bus_sample &= ( bmJSTATUS | bmKSTATUS);      //zero the rest of the byte

	switch (bus_sample) {                   //start full-speed or low-speed host
	case ( bmJSTATUS):
		/*kludgy*/
		if (usb_task_state != USB_ATTACHED_SUBSTATE_WAIT_RESET_COMPLETE) { //bus reset causes connection detect interrupt
 c003538:	d0a00a03 	ldbu	r2,-32728(gp)
 c00353c:	10803fcc 	andi	r2,r2,255
 c003540:	108004e0 	cmpeqi	r2,r2,19
 c003544:	10003e1e 	bne	r2,zero,c003640 <MAX_busprobe+0x164>
			if (!(MAXreg_rd( rMODE) & bmLOWSPEED)) {
 c003548:	01003604 	movi	r4,216
 c00354c:	c00329c0 	call	c00329c <MAXreg_rd>
 c003550:	10803fcc 	andi	r2,r2,255
 c003554:	1080008c 	andi	r2,r2,2
 c003558:	1000071e 	bne	r2,zero,c003578 <MAX_busprobe+0x9c>
				MAXreg_wr( rMODE, MODE_FS_HOST);         //start full-speed host
 c00355c:	01403244 	movi	r5,201
 c003560:	01003604 	movi	r4,216
 c003564:	c0030ac0 	call	c0030ac <MAXreg_wr>
				printf("Starting in full speed\n");
 c003568:	010300b4 	movhi	r4,3074
 c00356c:	2136bd04 	addi	r4,r4,-9484
 c003570:	c0052300 	call	c005230 <puts>
 c003574:	00000606 	br	c003590 <MAX_busprobe+0xb4>
			} else {
				MAXreg_wr( rMODE, MODE_LS_HOST);    //start low-speed host
 c003578:	014032c4 	movi	r5,203
 c00357c:	01003604 	movi	r4,216
 c003580:	c0030ac0 	call	c0030ac <MAXreg_wr>
				printf("Starting in low speed\n");
 c003584:	010300b4 	movhi	r4,3074
 c003588:	2136c304 	addi	r4,r4,-9460
 c00358c:	c0052300 	call	c005230 <puts>
			}
			usb_task_state = ( USB_STATE_ATTACHED); //signal usb state machine to start attachment sequence
 c003590:	00800404 	movi	r2,16
 c003594:	d0a00a05 	stb	r2,-32728(gp)
		}
		break;
 c003598:	00002906 	br	c003640 <MAX_busprobe+0x164>
	case ( bmKSTATUS):
		if (usb_task_state != USB_ATTACHED_SUBSTATE_WAIT_RESET_COMPLETE) { //bus reset causes connection detect interrupt
 c00359c:	d0a00a03 	ldbu	r2,-32728(gp)
 c0035a0:	10803fcc 	andi	r2,r2,255
 c0035a4:	108004e0 	cmpeqi	r2,r2,19
 c0035a8:	1000271e 	bne	r2,zero,c003648 <MAX_busprobe+0x16c>
			if (!(MAXreg_rd( rMODE) & bmLOWSPEED)) {
 c0035ac:	01003604 	movi	r4,216
 c0035b0:	c00329c0 	call	c00329c <MAXreg_rd>
 c0035b4:	10803fcc 	andi	r2,r2,255
 c0035b8:	1080008c 	andi	r2,r2,2
 c0035bc:	1000071e 	bne	r2,zero,c0035dc <MAX_busprobe+0x100>
				MAXreg_wr( rMODE, MODE_LS_HOST);   //start low-speed host
 c0035c0:	014032c4 	movi	r5,203
 c0035c4:	01003604 	movi	r4,216
 c0035c8:	c0030ac0 	call	c0030ac <MAXreg_wr>
				printf("Starting in low speed\n");
 c0035cc:	010300b4 	movhi	r4,3074
 c0035d0:	2136c304 	addi	r4,r4,-9460
 c0035d4:	c0052300 	call	c005230 <puts>
 c0035d8:	00000606 	br	c0035f4 <MAX_busprobe+0x118>
			} else {
				MAXreg_wr( rMODE, MODE_FS_HOST);         //start full-speed host
 c0035dc:	01403244 	movi	r5,201
 c0035e0:	01003604 	movi	r4,216
 c0035e4:	c0030ac0 	call	c0030ac <MAXreg_wr>
				printf("Starting in full speed\n");
 c0035e8:	010300b4 	movhi	r4,3074
 c0035ec:	2136bd04 	addi	r4,r4,-9484
 c0035f0:	c0052300 	call	c005230 <puts>
			}
			usb_task_state = ( USB_STATE_ATTACHED); //signal usb state machine to start attachment sequence
 c0035f4:	00800404 	movi	r2,16
 c0035f8:	d0a00a05 	stb	r2,-32728(gp)
		}
		break;
 c0035fc:	00001206 	br	c003648 <MAX_busprobe+0x16c>
	case ( bmSE1):              //illegal state
		usb_task_state = ( USB_DETACHED_SUBSTATE_ILLEGAL);
 c003600:	00800104 	movi	r2,4
 c003604:	d0a00a05 	stb	r2,-32728(gp)
		break;
 c003608:	00001006 	br	c00364c <MAX_busprobe+0x170>
	case ( bmSE0):              //disconnected state
		if (!((usb_task_state & USB_STATE_MASK) == USB_STATE_DETACHED)) //if we came here from other than detached state
 c00360c:	d0a00a03 	ldbu	r2,-32728(gp)
 c003610:	10803fcc 	andi	r2,r2,255
 c003614:	10803c0c 	andi	r2,r2,240
 c003618:	10000326 	beq	r2,zero,c003628 <MAX_busprobe+0x14c>
			usb_task_state = ( USB_DETACHED_SUBSTATE_INITIALIZE); //clear device data structures
 c00361c:	00800044 	movi	r2,1
 c003620:	d0a00a05 	stb	r2,-32728(gp)
		else {
			MAXreg_wr( rMODE, MODE_FS_HOST); //start full-speed host
			usb_task_state = ( USB_DETACHED_SUBSTATE_WAIT_FOR_DEVICE);
		}
		break;
 c003624:	00000906 	br	c00364c <MAX_busprobe+0x170>
		break;
	case ( bmSE0):              //disconnected state
		if (!((usb_task_state & USB_STATE_MASK) == USB_STATE_DETACHED)) //if we came here from other than detached state
			usb_task_state = ( USB_DETACHED_SUBSTATE_INITIALIZE); //clear device data structures
		else {
			MAXreg_wr( rMODE, MODE_FS_HOST); //start full-speed host
 c003628:	01403244 	movi	r5,201
 c00362c:	01003604 	movi	r4,216
 c003630:	c0030ac0 	call	c0030ac <MAXreg_wr>
			usb_task_state = ( USB_DETACHED_SUBSTATE_WAIT_FOR_DEVICE);
 c003634:	008000c4 	movi	r2,3
 c003638:	d0a00a05 	stb	r2,-32728(gp)
		}
		break;
 c00363c:	00000306 	br	c00364c <MAX_busprobe+0x170>
				MAXreg_wr( rMODE, MODE_LS_HOST);    //start low-speed host
				printf("Starting in low speed\n");
			}
			usb_task_state = ( USB_STATE_ATTACHED); //signal usb state machine to start attachment sequence
		}
		break;
 c003640:	0001883a 	nop
 c003644:	00000106 	br	c00364c <MAX_busprobe+0x170>
				MAXreg_wr( rMODE, MODE_FS_HOST);         //start full-speed host
				printf("Starting in full speed\n");
			}
			usb_task_state = ( USB_STATE_ATTACHED); //signal usb state machine to start attachment sequence
		}
		break;
 c003648:	0001883a 	nop
			MAXreg_wr( rMODE, MODE_FS_HOST); //start full-speed host
			usb_task_state = ( USB_DETACHED_SUBSTATE_WAIT_FOR_DEVICE);
		}
		break;
	} //end switch( bus_sample )
}
 c00364c:	0001883a 	nop
 c003650:	e037883a 	mov	sp,fp
 c003654:	dfc00117 	ldw	ra,4(sp)
 c003658:	df000017 	ldw	fp,0(sp)
 c00365c:	dec00204 	addi	sp,sp,8
 c003660:	f800283a 	ret

0c003664 <MAX3421E_init>:
/* MAX3421E initialization after power-on   */
void MAX3421E_init(void) {
 c003664:	defffe04 	addi	sp,sp,-8
 c003668:	dfc00115 	stw	ra,4(sp)
 c00366c:	df000015 	stw	fp,0(sp)
 c003670:	d839883a 	mov	fp,sp
	/* Configure full-duplex SPI, interrupt pulse   */
	MAXreg_wr( rPINCTL, (bmFDUPSPI + bmINTLEVEL + bmGPXB)); //Full-duplex SPI, level interrupt, GPX
 c003674:	01400684 	movi	r5,26
 c003678:	01002204 	movi	r4,136
 c00367c:	c0030ac0 	call	c0030ac <MAXreg_wr>
	MAX3421E_reset();                                //stop/start the oscillator
 c003680:	c0034180 	call	c003418 <MAX3421E_reset>
	/* configure power switch   */
	Vbus_power( OFF);                                      //turn Vbus power off
 c003684:	0009883a 	mov	r4,zero
 c003688:	c0034b80 	call	c0034b8 <Vbus_power>
	MAXreg_wr( rGPINIEN, bmGPINIEN7); //enable interrupt on GPIN7 (power switch overload flag)
 c00368c:	01402004 	movi	r5,128
 c003690:	01002e04 	movi	r4,184
 c003694:	c0030ac0 	call	c0030ac <MAXreg_wr>
	Vbus_power( ON);
 c003698:	01000044 	movi	r4,1
 c00369c:	c0034b80 	call	c0034b8 <Vbus_power>
	/* configure host operation */
	MAXreg_wr( rMODE, bmDPPULLDN | bmDMPULLDN | bmHOST | bmSEPIRQ); // set pull-downs, SOF, Host, Separate GPIN IRQ on GPX
 c0036a0:	01403444 	movi	r5,209
 c0036a4:	01003604 	movi	r4,216
 c0036a8:	c0030ac0 	call	c0030ac <MAXreg_wr>
	//MAXreg_wr( rHIEN, bmFRAMEIE|bmCONDETIE|bmBUSEVENTIE );                      // enable SOF, connection detection, bus event IRQs
	MAXreg_wr( rHIEN, bmCONDETIE);                        //connection detection
 c0036ac:	01400804 	movi	r5,32
 c0036b0:	01003404 	movi	r4,208
 c0036b4:	c0030ac0 	call	c0030ac <MAXreg_wr>
	/* HXFRDNIRQ is checked in Dispatch packet function */
	MAXreg_wr(rHCTL, bmSAMPLEBUS);        // update the JSTATUS and KSTATUS bits
 c0036b8:	01400104 	movi	r5,4
 c0036bc:	01003a04 	movi	r4,232
 c0036c0:	c0030ac0 	call	c0030ac <MAXreg_wr>
	MAX_busprobe();                             //check if anything is connected
 c0036c4:	c0034dc0 	call	c0034dc <MAX_busprobe>
	MAXreg_wr( rHIRQ, bmCONDETIRQ); //clear connection detect interrupt                 
 c0036c8:	01400804 	movi	r5,32
 c0036cc:	01003204 	movi	r4,200
 c0036d0:	c0030ac0 	call	c0030ac <MAXreg_wr>
	MAXreg_wr( rCPUCTL, 0x01);                            //enable interrupt pin
 c0036d4:	01400044 	movi	r5,1
 c0036d8:	01002004 	movi	r4,128
 c0036dc:	c0030ac0 	call	c0030ac <MAXreg_wr>
}
 c0036e0:	0001883a 	nop
 c0036e4:	e037883a 	mov	sp,fp
 c0036e8:	dfc00117 	ldw	ra,4(sp)
 c0036ec:	df000017 	ldw	fp,0(sp)
 c0036f0:	dec00204 	addi	sp,sp,8
 c0036f4:	f800283a 	ret

0c0036f8 <MAX3421E_Task>:

/* MAX3421 state change task and interrupt handler */
void MAX3421E_Task(void) {
 c0036f8:	defffe04 	addi	sp,sp,-8
 c0036fc:	dfc00115 	stw	ra,4(sp)
 c003700:	df000015 	stw	fp,0(sp)
 c003704:	d839883a 	mov	fp,sp
	if ( IORD_ALTERA_AVALON_PIO_DATA(USB_IRQ_BASE) == 0) {
 c003708:	00806404 	movi	r2,400
 c00370c:	10800037 	ldwio	r2,0(r2)
 c003710:	1000041e 	bne	r2,zero,c003724 <MAX3421E_Task+0x2c>
		printf("MAX interrupt\n\r");
 c003714:	010300b4 	movhi	r4,3074
 c003718:	2136c904 	addi	r4,r4,-9436
 c00371c:	c0051340 	call	c005134 <printf>
		MaxIntHandler();
 c003720:	c00375c0 	call	c00375c <MaxIntHandler>
	}
	if ( IORD_ALTERA_AVALON_PIO_DATA(USB_GPX_BASE) == 1) {
 c003724:	00806004 	movi	r2,384
 c003728:	10800037 	ldwio	r2,0(r2)
 c00372c:	10800058 	cmpnei	r2,r2,1
 c003730:	1000041e 	bne	r2,zero,c003744 <MAX3421E_Task+0x4c>
		printf("GPX interrupt\n\r");
 c003734:	010300b4 	movhi	r4,3074
 c003738:	2136cd04 	addi	r4,r4,-9420
 c00373c:	c0051340 	call	c005134 <printf>
		MaxGpxHandler();
 c003740:	c0038280 	call	c003828 <MaxGpxHandler>
	}
}
 c003744:	0001883a 	nop
 c003748:	e037883a 	mov	sp,fp
 c00374c:	dfc00117 	ldw	ra,4(sp)
 c003750:	df000017 	ldw	fp,0(sp)
 c003754:	dec00204 	addi	sp,sp,8
 c003758:	f800283a 	ret

0c00375c <MaxIntHandler>:

void MaxIntHandler(void) {
 c00375c:	defffd04 	addi	sp,sp,-12
 c003760:	dfc00215 	stw	ra,8(sp)
 c003764:	df000115 	stw	fp,4(sp)
 c003768:	df000104 	addi	fp,sp,4
	BYTE HIRQ;
	BYTE HIRQ_sendback = 0x00;
 c00376c:	e03fff05 	stb	zero,-4(fp)
	HIRQ = MAXreg_rd( rHIRQ);                  //determine interrupt source
 c003770:	01003204 	movi	r4,200
 c003774:	c00329c0 	call	c00329c <MAXreg_rd>
 c003778:	e0bfff45 	stb	r2,-3(fp)
	printf("IRQ: %x\n", HIRQ);
 c00377c:	e0bfff43 	ldbu	r2,-3(fp)
 c003780:	100b883a 	mov	r5,r2
 c003784:	010300b4 	movhi	r4,3074
 c003788:	2136d104 	addi	r4,r4,-9404
 c00378c:	c0051340 	call	c005134 <printf>
	if (HIRQ & bmFRAMEIRQ) {                   //->1ms SOF interrupt handler
 c003790:	e0bfff43 	ldbu	r2,-3(fp)
 c003794:	1080100c 	andi	r2,r2,64
 c003798:	10000326 	beq	r2,zero,c0037a8 <MaxIntHandler+0x4c>
		HIRQ_sendback |= bmFRAMEIRQ;
 c00379c:	e0bfff03 	ldbu	r2,-4(fp)
 c0037a0:	10801014 	ori	r2,r2,64
 c0037a4:	e0bfff05 	stb	r2,-4(fp)
	}                   //end FRAMEIRQ handling

	if (HIRQ & bmCONDETIRQ) {
 c0037a8:	e0bfff43 	ldbu	r2,-3(fp)
 c0037ac:	1080080c 	andi	r2,r2,32
 c0037b0:	10000426 	beq	r2,zero,c0037c4 <MaxIntHandler+0x68>
		MAX_busprobe();
 c0037b4:	c0034dc0 	call	c0034dc <MAX_busprobe>
		HIRQ_sendback |= bmCONDETIRQ;      //set sendback to 1 to clear register
 c0037b8:	e0bfff03 	ldbu	r2,-4(fp)
 c0037bc:	10800814 	ori	r2,r2,32
 c0037c0:	e0bfff05 	stb	r2,-4(fp)
	}
	if (HIRQ & bmSNDBAVIRQ) //if the send buffer is clear (previous transfer completed without issue)
 c0037c4:	e0bfff43 	ldbu	r2,-3(fp)
 c0037c8:	1080020c 	andi	r2,r2,8
 c0037cc:	10000326 	beq	r2,zero,c0037dc <MaxIntHandler+0x80>
	{
		MAXreg_wr(rSNDBC, 0x00);//clear the send buffer (not really necessary, but clears interrupt)
 c0037d0:	000b883a 	mov	r5,zero
 c0037d4:	01000e04 	movi	r4,56
 c0037d8:	c0030ac0 	call	c0030ac <MAXreg_wr>
	}
	if (HIRQ & bmBUSEVENTIRQ) {           //bus event is either reset or suspend
 c0037dc:	e0bfff43 	ldbu	r2,-3(fp)
 c0037e0:	1080004c 	andi	r2,r2,1
 c0037e4:	10000626 	beq	r2,zero,c003800 <MaxIntHandler+0xa4>
		usb_task_state++;                       //advance USB task state machine
 c0037e8:	d0a00a03 	ldbu	r2,-32728(gp)
 c0037ec:	10800044 	addi	r2,r2,1
 c0037f0:	d0a00a05 	stb	r2,-32728(gp)
		HIRQ_sendback |= bmBUSEVENTIRQ;
 c0037f4:	e0bfff03 	ldbu	r2,-4(fp)
 c0037f8:	10800054 	ori	r2,r2,1
 c0037fc:	e0bfff05 	stb	r2,-4(fp)
	}
	/* End HIRQ interrupts handling, clear serviced IRQs    */
	MAXreg_wr( rHIRQ, HIRQ_sendback); //write '1' to CONDETIRQ to ack bus state change
 c003800:	e0bfff03 	ldbu	r2,-4(fp)
 c003804:	100b883a 	mov	r5,r2
 c003808:	01003204 	movi	r4,200
 c00380c:	c0030ac0 	call	c0030ac <MAXreg_wr>
}
 c003810:	0001883a 	nop
 c003814:	e037883a 	mov	sp,fp
 c003818:	dfc00117 	ldw	ra,4(sp)
 c00381c:	df000017 	ldw	fp,0(sp)
 c003820:	dec00204 	addi	sp,sp,8
 c003824:	f800283a 	ret

0c003828 <MaxGpxHandler>:

void MaxGpxHandler(void) {
 c003828:	defffd04 	addi	sp,sp,-12
 c00382c:	dfc00215 	stw	ra,8(sp)
 c003830:	df000115 	stw	fp,4(sp)
 c003834:	df000104 	addi	fp,sp,4
	BYTE GPINIRQ;
	GPINIRQ = MAXreg_rd( rGPINIRQ);            //read both IRQ registers
 c003838:	01002c04 	movi	r4,176
 c00383c:	c00329c0 	call	c00329c <MAXreg_rd>
 c003840:	e0bfff05 	stb	r2,-4(fp)
}
 c003844:	0001883a 	nop
 c003848:	e037883a 	mov	sp,fp
 c00384c:	dfc00117 	ldw	ra,4(sp)
 c003850:	df000017 	ldw	fp,0(sp)
 c003854:	dec00204 	addi	sp,sp,8
 c003858:	f800283a 	ret

0c00385c <XferCtrlReq>:
/* depending on request. Actual requests are defined as macros                                                                                      */
/* return codes:                */
/* 00       =   success         */
/* 01-0f    =   non-zero HRSLT  */
BYTE XferCtrlReq( BYTE addr, BYTE ep, BYTE bmReqType, BYTE bRequest, BYTE wValLo, BYTE wValHi, WORD wInd, WORD nbytes, BYTE* dataptr )
{
 c00385c:	defff104 	addi	sp,sp,-60
 c003860:	dfc00e15 	stw	ra,56(sp)
 c003864:	df000d15 	stw	fp,52(sp)
 c003868:	df000d04 	addi	fp,sp,52
 c00386c:	2015883a 	mov	r10,r4
 c003870:	2813883a 	mov	r9,r5
 c003874:	3011883a 	mov	r8,r6
 c003878:	380d883a 	mov	r6,r7
 c00387c:	e1400217 	ldw	r5,8(fp)
 c003880:	e1000317 	ldw	r4,12(fp)
 c003884:	e0c00417 	ldw	r3,16(fp)
 c003888:	e0800517 	ldw	r2,20(fp)
 c00388c:	e2bff805 	stb	r10,-32(fp)
 c003890:	e27ff905 	stb	r9,-28(fp)
 c003894:	e23ffa05 	stb	r8,-24(fp)
 c003898:	e1bffb05 	stb	r6,-20(fp)
 c00389c:	e17ffc05 	stb	r5,-16(fp)
 c0038a0:	e13ffd05 	stb	r4,-12(fp)
 c0038a4:	e0fffe0d 	sth	r3,-8(fp)
 c0038a8:	e0bfff0d 	sth	r2,-4(fp)
 BOOL direction = FALSE;        //request direction, IN or OUT
 c0038ac:	e03ff415 	stw	zero,-48(fp)
 BYTE datastage = 1; //request data stage present or absent
 c0038b0:	00800044 	movi	r2,1
 c0038b4:	e0bff505 	stb	r2,-44(fp)
 BYTE rcode;
 SETUP_PKT setup_pkt;
    if( dataptr == NULL ) {
 c0038b8:	e0800617 	ldw	r2,24(fp)
 c0038bc:	1000011e 	bne	r2,zero,c0038c4 <XferCtrlReq+0x68>
        datastage = 0;
 c0038c0:	e03ff505 	stb	zero,-44(fp)
    }
    MAXreg_wr( rPERADDR, addr );                    //set peripheral address
 c0038c4:	e0bff803 	ldbu	r2,-32(fp)
 c0038c8:	100b883a 	mov	r5,r2
 c0038cc:	01003804 	movi	r4,224
 c0038d0:	c0030ac0 	call	c0030ac <MAXreg_wr>
    /* fill in setup packet */
    if( bmReqType & 0x80 ) {
 c0038d4:	e0bffa03 	ldbu	r2,-24(fp)
 c0038d8:	10803fcc 	andi	r2,r2,255
 c0038dc:	1080201c 	xori	r2,r2,128
 c0038e0:	10bfe004 	addi	r2,r2,-128
 c0038e4:	1000020e 	bge	r2,zero,c0038f0 <XferCtrlReq+0x94>
        direction = TRUE;                   		//determine request direction
 c0038e8:	00800044 	movi	r2,1
 c0038ec:	e0bff415 	stw	r2,-48(fp)
    }
    /* fill in setup packet */
    setup_pkt.ReqType_u.bmRequestType = bmReqType;
 c0038f0:	e0bffa03 	ldbu	r2,-24(fp)
 c0038f4:	e0bff585 	stb	r2,-42(fp)
    setup_pkt.bRequest = bRequest;
 c0038f8:	e0bffb03 	ldbu	r2,-20(fp)
 c0038fc:	e0bff5c5 	stb	r2,-41(fp)
    setup_pkt.wVal_u.wValueLo = wValLo;
 c003900:	e0bffc03 	ldbu	r2,-16(fp)
 c003904:	e0bff605 	stb	r2,-40(fp)
    setup_pkt.wVal_u.wValueHi = wValHi;
 c003908:	e0bffd03 	ldbu	r2,-12(fp)
 c00390c:	e0bff645 	stb	r2,-39(fp)
    setup_pkt.wIndex = wInd;
 c003910:	e0bffe0b 	ldhu	r2,-8(fp)
 c003914:	e0bff68d 	sth	r2,-38(fp)
    setup_pkt.wLength = nbytes;
 c003918:	e0bfff0b 	ldhu	r2,-4(fp)
 c00391c:	e0bff70d 	sth	r2,-36(fp)
    MAXbytes_wr( rSUDFIFO, 8, (BYTE *)&setup_pkt );     //transfer to setup packet FIFO
 c003920:	e0bff584 	addi	r2,fp,-42
 c003924:	100d883a 	mov	r6,r2
 c003928:	01400204 	movi	r5,8
 c00392c:	01000804 	movi	r4,32
 c003930:	c0031340 	call	c003134 <MAXbytes_wr>
    rcode = XferDispatchPkt( tokSETUP, ep );            //dispatch packet
 c003934:	e0bff903 	ldbu	r2,-28(fp)
 c003938:	100b883a 	mov	r5,r2
 c00393c:	01000404 	movi	r4,16
 c003940:	c003b040 	call	c003b04 <XferDispatchPkt>
 c003944:	e0bff545 	stb	r2,-43(fp)
    if( rcode ) {                                       //return HRSLT if not zero
 c003948:	e0bff543 	ldbu	r2,-43(fp)
 c00394c:	10000226 	beq	r2,zero,c003958 <XferCtrlReq+0xfc>
        return( rcode );
 c003950:	e0bff543 	ldbu	r2,-43(fp)
 c003954:	00000f06 	br	c003994 <XferCtrlReq+0x138>
    }
    rcode = ctrl_xfers[ datastage ]( addr, ep, nbytes, dataptr, direction );    //call data stage or no data stage transfer
 c003958:	e0bff503 	ldbu	r2,-44(fp)
 c00395c:	1085883a 	add	r2,r2,r2
 c003960:	1087883a 	add	r3,r2,r2
 c003964:	d0a00804 	addi	r2,gp,-32736
 c003968:	1885883a 	add	r2,r3,r2
 c00396c:	10800017 	ldw	r2,0(r2)
 c003970:	e13ff803 	ldbu	r4,-32(fp)
 c003974:	e17ff903 	ldbu	r5,-28(fp)
 c003978:	e1bfff0b 	ldhu	r6,-4(fp)
 c00397c:	e0fff417 	ldw	r3,-48(fp)
 c003980:	d8c00015 	stw	r3,0(sp)
 c003984:	e1c00617 	ldw	r7,24(fp)
 c003988:	103ee83a 	callr	r2
 c00398c:	e0bff545 	stb	r2,-43(fp)
    return( rcode );
 c003990:	e0bff543 	ldbu	r2,-43(fp)
}
 c003994:	e037883a 	mov	sp,fp
 c003998:	dfc00117 	ldw	ra,4(sp)
 c00399c:	df000017 	ldw	fp,0(sp)
 c0039a0:	dec00204 	addi	sp,sp,8
 c0039a4:	f800283a 	ret

0c0039a8 <XferCtrlData>:
/* Control transfer with data stage */
BYTE XferCtrlData( BYTE addr, BYTE ep, WORD nbytes, BYTE* dataptr, BOOL direction )
{
 c0039a8:	defff804 	addi	sp,sp,-32
 c0039ac:	dfc00715 	stw	ra,28(sp)
 c0039b0:	df000615 	stw	fp,24(sp)
 c0039b4:	df000604 	addi	fp,sp,24
 c0039b8:	2807883a 	mov	r3,r5
 c0039bc:	3005883a 	mov	r2,r6
 c0039c0:	e1ffff15 	stw	r7,-4(fp)
 c0039c4:	e13ffc05 	stb	r4,-16(fp)
 c0039c8:	e0fffd05 	stb	r3,-12(fp)
 c0039cc:	e0bffe0d 	sth	r2,-8(fp)
  BYTE rcode;

    //MAXreg_wr( rHCTL, bmRCVTOG1 );       //set toggle to DATA1
    if( direction ) {   //IN transfer
 c0039d0:	e0800217 	ldw	r2,8(fp)
 c0039d4:	10002826 	beq	r2,zero,c003a78 <XferCtrlData+0xd0>
        devtable[ addr ].epinfo[ ep ].rcvToggle = bmRCVTOG1;
 c0039d8:	e0fffc03 	ldbu	r3,-16(fp)
 c0039dc:	008300b4 	movhi	r2,3074
 c0039e0:	109af404 	addi	r2,r2,27600
 c0039e4:	180690fa 	slli	r3,r3,3
 c0039e8:	10c5883a 	add	r2,r2,r3
 c0039ec:	10c00017 	ldw	r3,0(r2)
 c0039f0:	e0bffd03 	ldbu	r2,-12(fp)
 c0039f4:	100490fa 	slli	r2,r2,3
 c0039f8:	1885883a 	add	r2,r3,r2
 c0039fc:	00c00804 	movi	r3,32
 c003a00:	10c00185 	stb	r3,6(r2)
        rcode = XferInTransfer( addr, ep, nbytes, dataptr, devtable[ addr ].epinfo[ ep ].MaxPktSize );
 c003a04:	e13ffc03 	ldbu	r4,-16(fp)
 c003a08:	e17ffd03 	ldbu	r5,-12(fp)
 c003a0c:	e1bffe0b 	ldhu	r6,-8(fp)
 c003a10:	e0fffc03 	ldbu	r3,-16(fp)
 c003a14:	008300b4 	movhi	r2,3074
 c003a18:	109af404 	addi	r2,r2,27600
 c003a1c:	180690fa 	slli	r3,r3,3
 c003a20:	10c5883a 	add	r2,r2,r3
 c003a24:	10c00017 	ldw	r3,0(r2)
 c003a28:	e0bffd03 	ldbu	r2,-12(fp)
 c003a2c:	100490fa 	slli	r2,r2,3
 c003a30:	1885883a 	add	r2,r3,r2
 c003a34:	1080008b 	ldhu	r2,2(r2)
 c003a38:	10803fcc 	andi	r2,r2,255
 c003a3c:	d8800015 	stw	r2,0(sp)
 c003a40:	e1ffff17 	ldw	r7,-4(fp)
 c003a44:	c003c800 	call	c003c80 <XferInTransfer>
 c003a48:	e0bffb05 	stb	r2,-20(fp)
        if( rcode ) {
 c003a4c:	e0bffb03 	ldbu	r2,-20(fp)
 c003a50:	10000226 	beq	r2,zero,c003a5c <XferCtrlData+0xb4>
        return( rcode );
 c003a54:	e0bffb03 	ldbu	r2,-20(fp)
 c003a58:	00000806 	br	c003a7c <XferCtrlData+0xd4>
        }
        rcode = XferDispatchPkt( tokOUTHS, ep );
 c003a5c:	e0bffd03 	ldbu	r2,-12(fp)
 c003a60:	100b883a 	mov	r5,r2
 c003a64:	01002804 	movi	r4,160
 c003a68:	c003b040 	call	c003b04 <XferDispatchPkt>
 c003a6c:	e0bffb05 	stb	r2,-20(fp)
        return( rcode );
 c003a70:	e0bffb03 	ldbu	r2,-20(fp)
 c003a74:	00000106 	br	c003a7c <XferCtrlData+0xd4>
    }
    else {              //OUT not implemented
        return( 0xff );
 c003a78:	00bfffc4 	movi	r2,-1
    }
}
 c003a7c:	e037883a 	mov	sp,fp
 c003a80:	dfc00117 	ldw	ra,4(sp)
 c003a84:	df000017 	ldw	fp,0(sp)
 c003a88:	dec00204 	addi	sp,sp,8
 c003a8c:	f800283a 	ret

0c003a90 <XferCtrlND>:
/* Control transfer with status stage and no data stage */
BYTE XferCtrlND( BYTE addr, BYTE ep, WORD nbytes, BYTE* dataptr, BOOL direction )
{
 c003a90:	defff904 	addi	sp,sp,-28
 c003a94:	dfc00615 	stw	ra,24(sp)
 c003a98:	df000515 	stw	fp,20(sp)
 c003a9c:	df000504 	addi	fp,sp,20
 c003aa0:	2807883a 	mov	r3,r5
 c003aa4:	3005883a 	mov	r2,r6
 c003aa8:	e1ffff15 	stw	r7,-4(fp)
 c003aac:	e13ffc05 	stb	r4,-16(fp)
 c003ab0:	e0fffd05 	stb	r3,-12(fp)
 c003ab4:	e0bffe0d 	sth	r2,-8(fp)
  BYTE rcode;
    if( direction ) { //GET
 c003ab8:	e0800217 	ldw	r2,8(fp)
 c003abc:	10000626 	beq	r2,zero,c003ad8 <XferCtrlND+0x48>
        rcode = XferDispatchPkt( tokOUTHS, ep );
 c003ac0:	e0bffd03 	ldbu	r2,-12(fp)
 c003ac4:	100b883a 	mov	r5,r2
 c003ac8:	01002804 	movi	r4,160
 c003acc:	c003b040 	call	c003b04 <XferDispatchPkt>
 c003ad0:	e0bffb05 	stb	r2,-20(fp)
 c003ad4:	00000506 	br	c003aec <XferCtrlND+0x5c>
    }
    else {
        rcode = XferDispatchPkt( tokINHS, ep );
 c003ad8:	e0bffd03 	ldbu	r2,-12(fp)
 c003adc:	100b883a 	mov	r5,r2
 c003ae0:	01002004 	movi	r4,128
 c003ae4:	c003b040 	call	c003b04 <XferDispatchPkt>
 c003ae8:	e0bffb05 	stb	r2,-20(fp)
    }
    return( rcode );
 c003aec:	e0bffb03 	ldbu	r2,-20(fp)
}
 c003af0:	e037883a 	mov	sp,fp
 c003af4:	dfc00117 	ldw	ra,4(sp)
 c003af8:	df000017 	ldw	fp,0(sp)
 c003afc:	dec00204 	addi	sp,sp,8
 c003b00:	f800283a 	ret

0c003b04 <XferDispatchPkt>:
/* Result code: 0 success, nonzero = error condition                                                */
/* If NAK, tries to re-send up to USB_NAK_LIMIT times                                               */
/* If bus timeout, re-sends up to USB_RETRY_LIMIT times                                             */
/* return codes 0x00-0x0f are HRSLT( 0x00 being success ), 0xff means timeout                       */
BYTE XferDispatchPkt( BYTE token, BYTE ep )
{
 c003b04:	defff904 	addi	sp,sp,-28
 c003b08:	dfc00615 	stw	ra,24(sp)
 c003b0c:	df000515 	stw	fp,20(sp)
 c003b10:	df000504 	addi	fp,sp,20
 c003b14:	2007883a 	mov	r3,r4
 c003b18:	2805883a 	mov	r2,r5
 c003b1c:	e0fffe05 	stb	r3,-8(fp)
 c003b20:	e0bfff05 	stb	r2,-4(fp)
 * alt_nticks() returns the elapsed number of system clock ticks since reset.
 */

static ALT_INLINE alt_u32 ALT_ALWAYS_INLINE alt_nticks (void)
{
  return _alt_nticks;
 c003b24:	d0a7bb17 	ldw	r2,-24852(gp)
 DWORD timeout = (alt_nticks()*1000)/alt_ticks_per_second() + USB_XFER_TIMEOUT;
 c003b28:	0140fa04 	movi	r5,1000
 c003b2c:	1009883a 	mov	r4,r2
 c003b30:	c0048a80 	call	c0048a8 <__mulsi3>
 c003b34:	1007883a 	mov	r3,r2
 * Obtain the system clock rate in ticks/s. 
 */

static ALT_INLINE alt_u32 ALT_ALWAYS_INLINE alt_ticks_per_second (void)
{
  return _alt_tick_rate;
 c003b38:	d0a7ba17 	ldw	r2,-24856(gp)
 c003b3c:	100b883a 	mov	r5,r2
 c003b40:	1809883a 	mov	r4,r3
 c003b44:	c0047ec0 	call	c0047ec <__udivsi3>
 c003b48:	1084e204 	addi	r2,r2,5000
 c003b4c:	e0bffc15 	stw	r2,-16(fp)
 BYTE tmpdata;
 BYTE rcode;
 char retry_count = 0;
 c003b50:	e03ffb45 	stb	zero,-19(fp)
 BYTE nak_count = 0;
 c003b54:	e03ffb85 	stb	zero,-18(fp)

    while( 1 ) {
        MAXreg_wr( rHXFR, ( token|ep ));            //launch the transfer
 c003b58:	e0fffe03 	ldbu	r3,-8(fp)
 c003b5c:	e0bfff03 	ldbu	r2,-4(fp)
 c003b60:	1884b03a 	or	r2,r3,r2
 c003b64:	10803fcc 	andi	r2,r2,255
 c003b68:	100b883a 	mov	r5,r2
 c003b6c:	01003c04 	movi	r4,240
 c003b70:	c0030ac0 	call	c0030ac <MAXreg_wr>
        rcode = 0xff;
 c003b74:	00bfffc4 	movi	r2,-1
 c003b78:	e0bffb05 	stb	r2,-20(fp)
        while( (alt_nticks()*1000)/alt_ticks_per_second() < timeout ) {
 c003b7c:	00000d06 	br	c003bb4 <XferDispatchPkt+0xb0>
            tmpdata = MAXreg_rd( rHIRQ );
 c003b80:	01003204 	movi	r4,200
 c003b84:	c00329c0 	call	c00329c <MAXreg_rd>
 c003b88:	e0bffd05 	stb	r2,-12(fp)
            if( tmpdata & bmHXFRDNIRQ ) {
 c003b8c:	e0bffd03 	ldbu	r2,-12(fp)
 c003b90:	10803fcc 	andi	r2,r2,255
 c003b94:	1080201c 	xori	r2,r2,128
 c003b98:	10bfe004 	addi	r2,r2,-128
 c003b9c:	1000050e 	bge	r2,zero,c003bb4 <XferDispatchPkt+0xb0>
                MAXreg_wr( rHIRQ, bmHXFRDNIRQ );    //clear the interrupt
 c003ba0:	01402004 	movi	r5,128
 c003ba4:	01003204 	movi	r4,200
 c003ba8:	c0030ac0 	call	c0030ac <MAXreg_wr>
                rcode = 0x00;
 c003bac:	e03ffb05 	stb	zero,-20(fp)
                break;
 c003bb0:	00000c06 	br	c003be4 <XferDispatchPkt+0xe0>
 * alt_nticks() returns the elapsed number of system clock ticks since reset.
 */

static ALT_INLINE alt_u32 ALT_ALWAYS_INLINE alt_nticks (void)
{
  return _alt_nticks;
 c003bb4:	d0a7bb17 	ldw	r2,-24852(gp)
 BYTE nak_count = 0;

    while( 1 ) {
        MAXreg_wr( rHXFR, ( token|ep ));            //launch the transfer
        rcode = 0xff;
        while( (alt_nticks()*1000)/alt_ticks_per_second() < timeout ) {
 c003bb8:	0140fa04 	movi	r5,1000
 c003bbc:	1009883a 	mov	r4,r2
 c003bc0:	c0048a80 	call	c0048a8 <__mulsi3>
 c003bc4:	1007883a 	mov	r3,r2
 * Obtain the system clock rate in ticks/s. 
 */

static ALT_INLINE alt_u32 ALT_ALWAYS_INLINE alt_ticks_per_second (void)
{
  return _alt_tick_rate;
 c003bc8:	d0a7ba17 	ldw	r2,-24856(gp)
 c003bcc:	100b883a 	mov	r5,r2
 c003bd0:	1809883a 	mov	r4,r3
 c003bd4:	c0047ec0 	call	c0047ec <__udivsi3>
 c003bd8:	1007883a 	mov	r3,r2
 c003bdc:	e0bffc17 	ldw	r2,-16(fp)
 c003be0:	18bfe736 	bltu	r3,r2,c003b80 <__alt_data_end+0xfc003b80>
                MAXreg_wr( rHIRQ, bmHXFRDNIRQ );    //clear the interrupt
                rcode = 0x00;
                break;
            }
        }
        if( rcode != 0x00 ) {               //exit if timeout
 c003be4:	e0bffb03 	ldbu	r2,-20(fp)
 c003be8:	10000226 	beq	r2,zero,c003bf4 <XferDispatchPkt+0xf0>
            return( rcode );
 c003bec:	e0bffb03 	ldbu	r2,-20(fp)
 c003bf0:	00001e06 	br	c003c6c <XferDispatchPkt+0x168>
        }
        rcode = ( MAXreg_rd( rHRSL ) & 0x0f );
 c003bf4:	01003e04 	movi	r4,248
 c003bf8:	c00329c0 	call	c00329c <MAXreg_rd>
 c003bfc:	108003cc 	andi	r2,r2,15
 c003c00:	e0bffb05 	stb	r2,-20(fp)
        if( rcode == hrNAK ) {
 c003c04:	e0bffb03 	ldbu	r2,-20(fp)
 c003c08:	10800118 	cmpnei	r2,r2,4
 c003c0c:	1000071e 	bne	r2,zero,c003c2c <XferDispatchPkt+0x128>
            nak_count++;
 c003c10:	e0bffb83 	ldbu	r2,-18(fp)
 c003c14:	10800044 	addi	r2,r2,1
 c003c18:	e0bffb85 	stb	r2,-18(fp)
            if( nak_count == USB_NAK_LIMIT ) {
 c003c1c:	e0bffb83 	ldbu	r2,-18(fp)
 c003c20:	10803218 	cmpnei	r2,r2,200
 c003c24:	10000b1e 	bne	r2,zero,c003c54 <XferDispatchPkt+0x150>
                break;
 c003c28:	00000f06 	br	c003c68 <XferDispatchPkt+0x164>
            }
            else {
                continue;
            }
        }
        if( rcode == hrTIMEOUT ) {
 c003c2c:	e0bffb03 	ldbu	r2,-20(fp)
 c003c30:	10800398 	cmpnei	r2,r2,14
 c003c34:	1000091e 	bne	r2,zero,c003c5c <XferDispatchPkt+0x158>
            retry_count++;
 c003c38:	e0bffb43 	ldbu	r2,-19(fp)
 c003c3c:	10800044 	addi	r2,r2,1
 c003c40:	e0bffb45 	stb	r2,-19(fp)
            if( retry_count == USB_RETRY_LIMIT ) {
 c003c44:	e0bffb47 	ldb	r2,-19(fp)
 c003c48:	108000d8 	cmpnei	r2,r2,3
 c003c4c:	10000526 	beq	r2,zero,c003c64 <XferDispatchPkt+0x160>
                break;
            }
            else {
                continue;
 c003c50:	00000106 	br	c003c58 <XferDispatchPkt+0x154>
            nak_count++;
            if( nak_count == USB_NAK_LIMIT ) {
                break;
            }
            else {
                continue;
 c003c54:	0001883a 	nop
            else {
                continue;
            }
        }
        else break;
    }//while( 1 )
 c003c58:	003fbf06 	br	c003b58 <__alt_data_end+0xfc003b58>
            }
            else {
                continue;
            }
        }
        else break;
 c003c5c:	0001883a 	nop
 c003c60:	00000106 	br	c003c68 <XferDispatchPkt+0x164>
            }
        }
        if( rcode == hrTIMEOUT ) {
            retry_count++;
            if( retry_count == USB_RETRY_LIMIT ) {
                break;
 c003c64:	0001883a 	nop
                continue;
            }
        }
        else break;
    }//while( 1 )
    return( rcode );
 c003c68:	e0bffb03 	ldbu	r2,-20(fp)
}
 c003c6c:	e037883a 	mov	sp,fp
 c003c70:	dfc00117 	ldw	ra,4(sp)
 c003c74:	df000017 	ldw	fp,0(sp)
 c003c78:	dec00204 	addi	sp,sp,8
 c003c7c:	f800283a 	ret

0c003c80 <XferInTransfer>:
/* IN transfer to arbitrary endpoint. Assumes PERADDR is set. Handles multiple packets if necessary. Transfers 'nbytes' bytes.
    Keep sending INs and writes data to memory area pointed by 'data' */
/* rcode 0 if no errors. rcode 01-0f is relayed from prvXferDispatchPkt(). Rcode f0 means RCVDAVIRQ error,
            fe USB xfer timeout */
BYTE XferInTransfer( BYTE addr/* not sure if it's necessary */, BYTE ep, WORD nbytes, BYTE* data, BYTE maxpktsize )
{
 c003c80:	defff804 	addi	sp,sp,-32
 c003c84:	dfc00715 	stw	ra,28(sp)
 c003c88:	df000615 	stw	fp,24(sp)
 c003c8c:	df000604 	addi	fp,sp,24
 c003c90:	2011883a 	mov	r8,r4
 c003c94:	2809883a 	mov	r4,r5
 c003c98:	3007883a 	mov	r3,r6
 c003c9c:	e1fffe15 	stw	r7,-8(fp)
 c003ca0:	e0800217 	ldw	r2,8(fp)
 c003ca4:	e23ffb05 	stb	r8,-20(fp)
 c003ca8:	e13ffc05 	stb	r4,-16(fp)
 c003cac:	e0fffd0d 	sth	r3,-12(fp)
 c003cb0:	e0bfff05 	stb	r2,-4(fp)
 BYTE rcode;
 BYTE i;
 BYTE tmpbyte;
 BYTE pktsize;
 WORD xfrlen = 0;
 c003cb4:	e03ffa0d 	sth	zero,-24(fp)
    MAXreg_wr( rHCTL, devtable[ addr ].epinfo[ ep ].rcvToggle );    //set toggle value
 c003cb8:	e0fffb03 	ldbu	r3,-20(fp)
 c003cbc:	008300b4 	movhi	r2,3074
 c003cc0:	109af404 	addi	r2,r2,27600
 c003cc4:	180690fa 	slli	r3,r3,3
 c003cc8:	10c5883a 	add	r2,r2,r3
 c003ccc:	10c00017 	ldw	r3,0(r2)
 c003cd0:	e0bffc03 	ldbu	r2,-16(fp)
 c003cd4:	100490fa 	slli	r2,r2,3
 c003cd8:	1885883a 	add	r2,r3,r2
 c003cdc:	10800183 	ldbu	r2,6(r2)
 c003ce0:	10803fcc 	andi	r2,r2,255
 c003ce4:	100b883a 	mov	r5,r2
 c003ce8:	01003a04 	movi	r4,232
 c003cec:	c0030ac0 	call	c0030ac <MAXreg_wr>
    while( 1 ) { // use a 'return' to exit this loop
        rcode = XferDispatchPkt( tokIN, ep );           //IN packet to EP-'endpoint'. Function takes care of NAKS.
 c003cf0:	e0bffc03 	ldbu	r2,-16(fp)
 c003cf4:	100b883a 	mov	r5,r2
 c003cf8:	0009883a 	mov	r4,zero
 c003cfc:	c003b040 	call	c003b04 <XferDispatchPkt>
 c003d00:	e0bffa85 	stb	r2,-22(fp)
        if( rcode ) {
 c003d04:	e0bffa83 	ldbu	r2,-22(fp)
 c003d08:	10000226 	beq	r2,zero,c003d14 <XferInTransfer+0x94>
            return( rcode );                            //should be 0, indicating ACK. Else return error code.
 c003d0c:	e0bffa83 	ldbu	r2,-22(fp)
 c003d10:	00003a06 	br	c003dfc <XferInTransfer+0x17c>
        }
        /* check for RCVDAVIRQ and generate error if not present */
        /* the only case when absence of RCVDAVIRQ makes sense is when toggle error occurred. Need to add handling for that */
        if(( MAXreg_rd( rHIRQ ) & bmRCVDAVIRQ ) == 0 ) {
 c003d14:	01003204 	movi	r4,200
 c003d18:	c00329c0 	call	c00329c <MAXreg_rd>
 c003d1c:	10803fcc 	andi	r2,r2,255
 c003d20:	1080010c 	andi	r2,r2,4
 c003d24:	1000021e 	bne	r2,zero,c003d30 <XferInTransfer+0xb0>
            return ( 0xf0 );                            //receive error
 c003d28:	00bffc04 	movi	r2,-16
 c003d2c:	00003306 	br	c003dfc <XferInTransfer+0x17c>
        }
        pktsize = MAXreg_rd( rRCVBC );                  //number of received bytes
 c003d30:	01000c04 	movi	r4,48
 c003d34:	c00329c0 	call	c00329c <MAXreg_rd>
 c003d38:	e0bffac5 	stb	r2,-21(fp)
        //printf ("pktsize: %d\n", pktsize);
        data = MAXbytes_rd( rRCVFIFO, pktsize, data );
 c003d3c:	e0bffac3 	ldbu	r2,-21(fp)
 c003d40:	e1bffe17 	ldw	r6,-8(fp)
 c003d44:	100b883a 	mov	r5,r2
 c003d48:	01000204 	movi	r4,8
 c003d4c:	c0033100 	call	c003310 <MAXbytes_rd>
 c003d50:	e0bffe15 	stw	r2,-8(fp)
        MAXreg_wr( rHIRQ, bmRCVDAVIRQ );                // Clear the IRQ & free the buffer
 c003d54:	01400104 	movi	r5,4
 c003d58:	01003204 	movi	r4,200
 c003d5c:	c0030ac0 	call	c0030ac <MAXreg_wr>
        xfrlen += pktsize;                              // add this packet's byte count to total transfer length
 c003d60:	e0fffac3 	ldbu	r3,-21(fp)
 c003d64:	e0bffa0b 	ldhu	r2,-24(fp)
 c003d68:	1885883a 	add	r2,r3,r2
 c003d6c:	e0bffa0d 	sth	r2,-24(fp)
        /* The transfer is complete under two conditions:           */
        /* 1. The device sent a short packet (L.T. maxPacketSize)   */
        /* 2. 'nbytes' have been transferred.                       */
        if (( pktsize < maxpktsize ) || (xfrlen >= nbytes )) {    // have we transferred 'nbytes' bytes?
 c003d70:	e0fffac3 	ldbu	r3,-21(fp)
 c003d74:	e0bfff03 	ldbu	r2,-4(fp)
 c003d78:	18800336 	bltu	r3,r2,c003d88 <XferInTransfer+0x108>
 c003d7c:	e0fffa0b 	ldhu	r3,-24(fp)
 c003d80:	e0bffd0b 	ldhu	r2,-12(fp)
 c003d84:	18bfda36 	bltu	r3,r2,c003cf0 <__alt_data_end+0xfc003cf0>
            if( MAXreg_rd( rHRSL ) & bmRCVTOGRD ) {                 //save toggle value
 c003d88:	01003e04 	movi	r4,248
 c003d8c:	c00329c0 	call	c00329c <MAXreg_rd>
 c003d90:	10803fcc 	andi	r2,r2,255
 c003d94:	1080040c 	andi	r2,r2,16
 c003d98:	10000c26 	beq	r2,zero,c003dcc <XferInTransfer+0x14c>
                devtable[ addr ].epinfo[ ep ].rcvToggle = bmRCVTOG1;
 c003d9c:	e0fffb03 	ldbu	r3,-20(fp)
 c003da0:	008300b4 	movhi	r2,3074
 c003da4:	109af404 	addi	r2,r2,27600
 c003da8:	180690fa 	slli	r3,r3,3
 c003dac:	10c5883a 	add	r2,r2,r3
 c003db0:	10c00017 	ldw	r3,0(r2)
 c003db4:	e0bffc03 	ldbu	r2,-16(fp)
 c003db8:	100490fa 	slli	r2,r2,3
 c003dbc:	1885883a 	add	r2,r3,r2
 c003dc0:	00c00804 	movi	r3,32
 c003dc4:	10c00185 	stb	r3,6(r2)
 c003dc8:	00000b06 	br	c003df8 <XferInTransfer+0x178>
            }
            else {
                devtable[ addr ].epinfo[ ep ].rcvToggle = bmRCVTOG0;
 c003dcc:	e0fffb03 	ldbu	r3,-20(fp)
 c003dd0:	008300b4 	movhi	r2,3074
 c003dd4:	109af404 	addi	r2,r2,27600
 c003dd8:	180690fa 	slli	r3,r3,3
 c003ddc:	10c5883a 	add	r2,r2,r3
 c003de0:	10c00017 	ldw	r3,0(r2)
 c003de4:	e0bffc03 	ldbu	r2,-16(fp)
 c003de8:	100490fa 	slli	r2,r2,3
 c003dec:	1885883a 	add	r2,r3,r2
 c003df0:	00c00404 	movi	r3,16
 c003df4:	10c00185 	stb	r3,6(r2)
            }
            return( 0 );
 c003df8:	0005883a 	mov	r2,zero
        }
  }//while( 1 )
}
 c003dfc:	e037883a 	mov	sp,fp
 c003e00:	dfc00117 	ldw	ra,4(sp)
 c003e04:	df000017 	ldw	fp,0(sp)
 c003e08:	dec00204 	addi	sp,sp,8
 c003e0c:	f800283a 	ret

0c003e10 <USB_init>:
/* initialization of USB data structures */
void USB_init( void )
{
 c003e10:	defffe04 	addi	sp,sp,-8
 c003e14:	df000115 	stw	fp,4(sp)
 c003e18:	df000104 	addi	fp,sp,4
  BYTE i;
    for( i = 0; i < ( USB_NUMDEVICES + 1 ); i++ ) {
 c003e1c:	e03fff05 	stb	zero,-4(fp)
 c003e20:	00001006 	br	c003e64 <USB_init+0x54>
        devtable[ i ].epinfo = NULL;       //clear device table
 c003e24:	e0ffff03 	ldbu	r3,-4(fp)
 c003e28:	008300b4 	movhi	r2,3074
 c003e2c:	109af404 	addi	r2,r2,27600
 c003e30:	180690fa 	slli	r3,r3,3
 c003e34:	10c5883a 	add	r2,r2,r3
 c003e38:	10000015 	stw	zero,0(r2)
        devtable[ i ].devclass = 0;
 c003e3c:	e0ffff03 	ldbu	r3,-4(fp)
 c003e40:	008300b4 	movhi	r2,3074
 c003e44:	109af404 	addi	r2,r2,27600
 c003e48:	180690fa 	slli	r3,r3,3
 c003e4c:	10c5883a 	add	r2,r2,r3
 c003e50:	10800104 	addi	r2,r2,4
 c003e54:	10000005 	stb	zero,0(r2)
}
/* initialization of USB data structures */
void USB_init( void )
{
  BYTE i;
    for( i = 0; i < ( USB_NUMDEVICES + 1 ); i++ ) {
 c003e58:	e0bfff03 	ldbu	r2,-4(fp)
 c003e5c:	10800044 	addi	r2,r2,1
 c003e60:	e0bfff05 	stb	r2,-4(fp)
 c003e64:	e0bfff03 	ldbu	r2,-4(fp)
 c003e68:	10800270 	cmpltui	r2,r2,9
 c003e6c:	103fed1e 	bne	r2,zero,c003e24 <__alt_data_end+0xfc003e24>
        devtable[ i ].epinfo = NULL;       //clear device table
        devtable[ i ].devclass = 0;
    }
    devtable[ 0 ].epinfo = &dev0ep;  //set single ep for uninitialized device
 c003e70:	008300b4 	movhi	r2,3074
 c003e74:	109af404 	addi	r2,r2,27600
 c003e78:	d0e7ab04 	addi	r3,gp,-24916
 c003e7c:	10c00015 	stw	r3,0(r2)
    dev0ep.MaxPktSize = 0;
 c003e80:	d027ab8d 	sth	zero,-24914(gp)
    dev0ep.sndToggle = bmSNDTOG0;   //set DATA0/1 toggles to 0
 c003e84:	00801004 	movi	r2,64
 c003e88:	d0a7ac45 	stb	r2,-24911(gp)
    dev0ep.rcvToggle = bmRCVTOG0;
 c003e8c:	00800404 	movi	r2,16
 c003e90:	d0a7ac85 	stb	r2,-24910(gp)
}
 c003e94:	0001883a 	nop
 c003e98:	e037883a 	mov	sp,fp
 c003e9c:	df000017 	ldw	fp,0(sp)
 c003ea0:	dec00104 	addi	sp,sp,4
 c003ea4:	f800283a 	ret

0c003ea8 <USB_Task>:
/* error codes: 01-0f HRSLT        */
/* ff - unsupported device         */
/* fe - no address available       */
/* fd - no client driver available */
void USB_Task( void )
{
 c003ea8:	deffb204 	addi	sp,sp,-312
 c003eac:	dfc04d15 	stw	ra,308(sp)
 c003eb0:	df004c15 	stw	fp,304(sp)
 c003eb4:	dc004b15 	stw	r16,300(sp)
 c003eb8:	df004c04 	addi	fp,sp,304
 USB_DEVICE_DESCRIPTOR buf;

 BYTE rcode, tmpdata;
 BYTE i;

    switch( usb_task_state & USB_STATE_MASK ) {
 c003ebc:	d0a00a03 	ldbu	r2,-32728(gp)
 c003ec0:	10803fcc 	andi	r2,r2,255
 c003ec4:	10803c0c 	andi	r2,r2,240
 c003ec8:	10c00820 	cmpeqi	r3,r2,32
 c003ecc:	1801121e 	bne	r3,zero,c004318 <USB_Task+0x470>
 c003ed0:	10c00848 	cmpgei	r3,r2,33
 c003ed4:	1800041e 	bne	r3,zero,c003ee8 <USB_Task+0x40>
 c003ed8:	10000a26 	beq	r2,zero,c003f04 <USB_Task+0x5c>
 c003edc:	10800420 	cmpeqi	r2,r2,16
 c003ee0:	10001b1e 	bne	r2,zero,c003f50 <USB_Task+0xa8>
        case( USB_STATE_ERROR ):
            //vTaskDelay( LED_RATE ); //stay here if error
            break;//( USB_STATE_ERROR )
        default:
            //Should never get here
            break;
 c003ee4:	00017a06 	br	c0044d0 <USB_Task+0x628>
 USB_DEVICE_DESCRIPTOR buf;

 BYTE rcode, tmpdata;
 BYTE i;

    switch( usb_task_state & USB_STATE_MASK ) {
 c003ee8:	10c01020 	cmpeqi	r3,r2,64
 c003eec:	18016f1e 	bne	r3,zero,c0044ac <USB_Task+0x604>
 c003ef0:	10c03fe0 	cmpeqi	r3,r2,255
 c003ef4:	18016f1e 	bne	r3,zero,c0044b4 <USB_Task+0x60c>
 c003ef8:	10800c20 	cmpeqi	r2,r2,48
 c003efc:	1001441e 	bne	r2,zero,c004410 <USB_Task+0x568>
        case( USB_STATE_ERROR ):
            //vTaskDelay( LED_RATE ); //stay here if error
            break;//( USB_STATE_ERROR )
        default:
            //Should never get here
            break;
 c003f00:	00017306 	br	c0044d0 <USB_Task+0x628>
 BYTE i;

    switch( usb_task_state & USB_STATE_MASK ) {
        /* Detached state - when nothing is connected to ( or just disconnected from) USB bus   */
        case( USB_STATE_DETACHED ):
            switch( usb_task_state ) {
 c003f04:	d0a00a03 	ldbu	r2,-32728(gp)
 c003f08:	10803fcc 	andi	r2,r2,255
 c003f0c:	10c000e0 	cmpeqi	r3,r2,3
 c003f10:	1800091e 	bne	r3,zero,c003f38 <USB_Task+0x90>
 c003f14:	10c00120 	cmpeqi	r3,r2,4
 c003f18:	18000b1e 	bne	r3,zero,c003f48 <USB_Task+0xa0>
 c003f1c:	10800060 	cmpeqi	r2,r2,1
 c003f20:	1000011e 	bne	r2,zero,c003f28 <USB_Task+0x80>
                    break;
                case( USB_DETACHED_SUBSTATE_ILLEGAL ):
                    /* don't know what to do yet */
                    break;
            }//switch( usb_task_state )
            break;//( USB_STATE_DETACHED ):
 c003f24:	00016a06 	br	c0044d0 <USB_Task+0x628>
        /* Detached state - when nothing is connected to ( or just disconnected from) USB bus   */
        case( USB_STATE_DETACHED ):
            switch( usb_task_state ) {
                case( USB_DETACHED_SUBSTATE_INITIALIZE ):
                    /* cleanup device data structures */
                    USB_init();
 c003f28:	c003e100 	call	c003e10 <USB_init>
                    usb_task_state = USB_DETACHED_SUBSTATE_WAIT_FOR_DEVICE;
 c003f2c:	008000c4 	movi	r2,3
 c003f30:	d0a00a05 	stb	r2,-32728(gp)
                    break;
 c003f34:	00000506 	br	c003f4c <USB_Task+0xa4>
                case( USB_DETACHED_SUBSTATE_WAIT_FOR_DEVICE ):
                    /* Do nothing */
                    MAXreg_wr(rHCTL,bmSAMPLEBUS);
 c003f38:	01400104 	movi	r5,4
 c003f3c:	01003a04 	movi	r4,232
 c003f40:	c0030ac0 	call	c0030ac <MAXreg_wr>
                    break;
 c003f44:	00000106 	br	c003f4c <USB_Task+0xa4>
                case( USB_DETACHED_SUBSTATE_ILLEGAL ):
                    /* don't know what to do yet */
                    break;
 c003f48:	0001883a 	nop
            }//switch( usb_task_state )
            break;//( USB_STATE_DETACHED ):
 c003f4c:	00016006 	br	c0044d0 <USB_Task+0x628>
            /**/
        case( USB_STATE_ATTACHED ):                     //prepare for enumeration
            switch( usb_task_state ) {
 c003f50:	d0a00a03 	ldbu	r2,-32728(gp)
 c003f54:	10803fcc 	andi	r2,r2,255
 c003f58:	10bffc04 	addi	r2,r2,-16
 c003f5c:	10c001a8 	cmpgeui	r3,r2,6
 c003f60:	1801561e 	bne	r3,zero,c0044bc <USB_Task+0x614>
 c003f64:	100690ba 	slli	r3,r2,2
 c003f68:	00830034 	movhi	r2,3072
 c003f6c:	108fdf04 	addi	r2,r2,16252
 c003f70:	1885883a 	add	r2,r3,r2
 c003f74:	10800017 	ldw	r2,0(r2)
 c003f78:	1000683a 	jmp	r2
 c003f7c:	0c003f94 	ori	r16,at,254
 c003f80:	0c003fcc 	andi	r16,at,255
 c003f84:	0c004008 	cmpgei	r16,at,256
 c003f88:	0c00402c 	andhi	r16,at,256
 c003f8c:	0c00406c 	andhi	r16,at,257
 c003f90:	0c004080 	call	c00408 <__alt_mem_onchip_memory2_0+0xc00408>
 * alt_nticks() returns the elapsed number of system clock ticks since reset.
 */

static ALT_INLINE alt_u32 ALT_ALWAYS_INLINE alt_nticks (void)
{
  return _alt_nticks;
 c003f94:	d0a7bb17 	ldw	r2,-24852(gp)
                case( USB_STATE_ATTACHED ):
                    usb_delay = (alt_nticks()*1000)/alt_ticks_per_second() + 200;           //initial settle 200ms
 c003f98:	0140fa04 	movi	r5,1000
