
finale_4.elf:     file format elf32-littlenios2
finale_4.elf
architecture: nios2:r1, flags 0x00000112:
EXEC_P, HAS_SYMS, D_PAGED
start address 0x0c000230

Program Header:
    LOAD off    0x00001000 vaddr 0x0c000000 paddr 0x0c000000 align 2**12
         filesz 0x00000020 memsz 0x00000020 flags r-x
    LOAD off    0x00001020 vaddr 0x0c000020 paddr 0x0c000020 align 2**12
         filesz 0x0001a410 memsz 0x0001a410 flags r-x
    LOAD off    0x0001b430 vaddr 0x0c01a430 paddr 0x0c01c254 align 2**12
         filesz 0x00001e24 memsz 0x00001e24 flags rw-
    LOAD off    0x0001e078 vaddr 0x0c01e078 paddr 0x0c01e078 align 2**12
         filesz 0x00000000 memsz 0x000004a8 flags rw-

Sections:
Idx Name          Size      VMA       LMA       File off  Algn
  0 .entry        00000020  0c000000  0c000000  00001000  2**5
                  CONTENTS, ALLOC, LOAD, READONLY, CODE
  1 .exceptions   00000210  0c000020  0c000020  00001020  2**2
                  CONTENTS, ALLOC, LOAD, READONLY, CODE
  2 .text         000198dc  0c000230  0c000230  00001230  2**2
                  CONTENTS, ALLOC, LOAD, READONLY, CODE
  3 .rodata       00000924  0c019b0c  0c019b0c  0001ab0c  2**2
                  CONTENTS, ALLOC, LOAD, READONLY, DATA
  4 .rwdata       00001e24  0c01a430  0c01c254  0001b430  2**2
                  CONTENTS, ALLOC, LOAD, DATA, SMALL_DATA
  5 .bss          000004a8  0c01e078  0c01e078  0001e078  2**2
                  ALLOC, SMALL_DATA
  6 .onchip_memory2_0 00000000  00000000  00000000  0001d254  2**0
                  CONTENTS
  7 .sdram        00000000  0c01e520  0c01e520  0001d254  2**0
                  CONTENTS
  8 .comment      00000023  00000000  00000000  0001d254  2**0
                  CONTENTS, READONLY
  9 .debug_aranges 000012d8  00000000  00000000  0001d278  2**3
                  CONTENTS, READONLY, DEBUGGING
 10 .debug_info   00030e06  00000000  00000000  0001e550  2**0
                  CONTENTS, READONLY, DEBUGGING
 11 .debug_abbrev 0000bfc9  00000000  00000000  0004f356  2**0
                  CONTENTS, READONLY, DEBUGGING
 12 .debug_line   0000fa33  00000000  00000000  0005b31f  2**0
                  CONTENTS, READONLY, DEBUGGING
 13 .debug_frame  00003330  00000000  00000000  0006ad54  2**2
                  CONTENTS, READONLY, DEBUGGING
 14 .debug_str    00004e80  00000000  00000000  0006e084  2**0
                  CONTENTS, READONLY, DEBUGGING
 15 .debug_loc    0001d622  00000000  00000000  00072f04  2**0
                  CONTENTS, READONLY, DEBUGGING
 16 .debug_alt_sim_info 00000040  00000000  00000000  00090528  2**2
                  CONTENTS, READONLY, DEBUGGING
 17 .debug_ranges 00001c60  00000000  00000000  00090568  2**3
                  CONTENTS, READONLY, DEBUGGING
 18 .thread_model 00000003  00000000  00000000  000966ce  2**0
                  CONTENTS, READONLY
 19 .cpu          0000000c  00000000  00000000  000966d1  2**0
                  CONTENTS, READONLY
 20 .qsys         00000001  00000000  00000000  000966dd  2**0
                  CONTENTS, READONLY
 21 .simulation_enabled 00000001  00000000  00000000  000966de  2**0
                  CONTENTS, READONLY
 22 .sysid_hash   00000004  00000000  00000000  000966df  2**0
                  CONTENTS, READONLY
 23 .sysid_base   00000004  00000000  00000000  000966e3  2**0
                  CONTENTS, READONLY
 24 .sysid_time   00000004  00000000  00000000  000966e7  2**0
                  CONTENTS, READONLY
 25 .stderr_dev   0000000b  00000000  00000000  000966eb  2**0
                  CONTENTS, READONLY
 26 .stdin_dev    0000000b  00000000  00000000  000966f6  2**0
                  CONTENTS, READONLY
 27 .stdout_dev   0000000b  00000000  00000000  00096701  2**0
                  CONTENTS, READONLY
 28 .sopc_system_name 00000006  00000000  00000000  0009670c  2**0
                  CONTENTS, READONLY
 29 .quartus_project_dir 00000009  00000000  00000000  00096712  2**0
                  CONTENTS, READONLY
 30 .jdi          00004d26  00000000  00000000  0009671b  2**0
                  CONTENTS, READONLY
 31 .sopcinfo     0008a4ea  00000000  00000000  0009b441  2**0
                  CONTENTS, READONLY
SYMBOL TABLE:
0c000000 l    d  .entry	00000000 .entry
0c000020 l    d  .exceptions	00000000 .exceptions
0c000230 l    d  .text	00000000 .text
0c019b0c l    d  .rodata	00000000 .rodata
0c01a430 l    d  .rwdata	00000000 .rwdata
0c01e078 l    d  .bss	00000000 .bss
00000000 l    d  .onchip_memory2_0	00000000 .onchip_memory2_0
0c01e520 l    d  .sdram	00000000 .sdram
00000000 l    d  .comment	00000000 .comment
00000000 l    d  .debug_aranges	00000000 .debug_aranges
00000000 l    d  .debug_info	00000000 .debug_info
00000000 l    d  .debug_abbrev	00000000 .debug_abbrev
00000000 l    d  .debug_line	00000000 .debug_line
00000000 l    d  .debug_frame	00000000 .debug_frame
00000000 l    d  .debug_str	00000000 .debug_str
00000000 l    d  .debug_loc	00000000 .debug_loc
00000000 l    d  .debug_alt_sim_info	00000000 .debug_alt_sim_info
00000000 l    d  .debug_ranges	00000000 .debug_ranges
00000000 l    df *ABS*	00000000 ../finale_4_bsp//obj/HAL/src/crt0.o
0c000268 l       .text	00000000 alt_after_alt_main
00000000 l    df *ABS*	00000000 alt_irq_handler.c
00000000 l    df *ABS*	00000000 alt_instruction_exception_entry.c
00000000 l    df *ABS*	00000000 USB_drive.c
0c019fb0 l     O .rodata	0000001c __func__.3250
0c019fcc l     O .rodata	0000001b __func__.3258
0c01c1fc l     O .rwdata	00000001 addr
00000000 l    df *ABS*	00000000 main.c
0c01c200 l     O .rwdata	00000004 vga_ctrl
0c01a430 l     O .rwdata	00000170 colors
00000000 l    df *ABS*	00000000 text_mode_vga_color.c
0c01c204 l     O .rwdata	00000004 vga_ctrl
0c01a5a0 l     O .rwdata	00000170 colors
00000000 l    df *ABS*	00000000 HID.c
00000000 l    df *ABS*	00000000 MAX3421E.c
00000000 l    df *ABS*	00000000 transfer.c
0c01e0b0 l     O .bss	00000004 usb_delay.2608
0c01e0b4 l     O .bss	00000001 tmp_addr.2609
00000000 l    df *ABS*	00000000 lib2-divmod.c
00000000 l    df *ABS*	00000000 lib2-mul.c
00000000 l    df *ABS*	00000000 assert.c
00000000 l    df *ABS*	00000000 fiprintf.c
00000000 l    df *ABS*	00000000 impure.c
0c01a740 l     O .rwdata	00000424 impure_data
00000000 l    df *ABS*	00000000 malloc.c
00000000 l    df *ABS*	00000000 mallocr.c
00000000 l    df *ABS*	00000000 memcpy.c
00000000 l    df *ABS*	00000000 printf.c
00000000 l    df *ABS*	00000000 putchar.c
00000000 l    df *ABS*	00000000 puts.c
00000000 l    df *ABS*	00000000 rand.c
00000000 l    df *ABS*	00000000 sbrkr.c
00000000 l    df *ABS*	00000000 sprintf.c
00000000 l    df *ABS*	00000000 strlen.c
00000000 l    df *ABS*	00000000 vfprintf.c
0c01a13a l     O .rodata	00000010 zeroes.4389
0c01a14a l     O .rodata	00000010 blanks.4388
00000000 l    df *ABS*	00000000 time.c
00000000 l    df *ABS*	00000000 vfiprintfr_1.c
00000000 l    df *ABS*	00000000 vfprintf.c
0c01a15a l     O .rodata	00000010 zeroes.4404
0c00afb4 l     F .text	000000bc __sbprintf
0c01a16a l     O .rodata	00000010 blanks.4403
00000000 l    df *ABS*	00000000 wsetup.c
00000000 l    df *ABS*	00000000 abort.c
00000000 l    df *ABS*	00000000 dtoa.c
0c00b1dc l     F .text	00000228 quorem
00000000 l    df *ABS*	00000000 fflush.c
00000000 l    df *ABS*	00000000 findfp.c
0c00cd34 l     F .text	00000008 __fp_unlock
0c00cd48 l     F .text	0000019c __sinit.part.1
0c00cee4 l     F .text	00000008 __fp_lock
00000000 l    df *ABS*	00000000 mallocr.c
00000000 l    df *ABS*	00000000 fvwrite.c
00000000 l    df *ABS*	00000000 fwalk.c
00000000 l    df *ABS*	00000000 gettimeofdayr.c
00000000 l    df *ABS*	00000000 int_errno.c
00000000 l    df *ABS*	00000000 locale.c
0c01af8c l     O .rwdata	00000020 lc_ctype_charset
0c01af6c l     O .rwdata	00000020 lc_message_charset
0c01afac l     O .rwdata	00000038 lconv
00000000 l    df *ABS*	00000000 makebuf.c
00000000 l    df *ABS*	00000000 memchr.c
00000000 l    df *ABS*	00000000 memmove.c
00000000 l    df *ABS*	00000000 memset.c
00000000 l    df *ABS*	00000000 mprec.c
0c01a198 l     O .rodata	0000000c p05.2768
00000000 l    df *ABS*	00000000 putc.c
00000000 l    df *ABS*	00000000 mallocr.c
00000000 l    df *ABS*	00000000 s_fpclassify.c
00000000 l    df *ABS*	00000000 signal.c
00000000 l    df *ABS*	00000000 signalr.c
00000000 l    df *ABS*	00000000 stdio.c
00000000 l    df *ABS*	00000000 strcmp.c
00000000 l    df *ABS*	00000000 vfprintf.c
0c01a2bc l     O .rodata	00000010 zeroes.4333
0c01a2cc l     O .rodata	00000010 blanks.4332
00000000 l    df *ABS*	00000000 vfprintf.c
0c011448 l     F .text	000000fc __sprint_r.part.0
0c01a2dc l     O .rodata	00000010 zeroes.4349
0c012a84 l     F .text	000000bc __sbprintf
0c01a2ec l     O .rodata	00000010 blanks.4348
00000000 l    df *ABS*	00000000 wbuf.c
00000000 l    df *ABS*	00000000 writer.c
00000000 l    df *ABS*	00000000 closer.c
00000000 l    df *ABS*	00000000 mallocr.c
00000000 l    df *ABS*	00000000 fclose.c
00000000 l    df *ABS*	00000000 fputwc.c
00000000 l    df *ABS*	00000000 fstatr.c
00000000 l    df *ABS*	00000000 isattyr.c
00000000 l    df *ABS*	00000000 lseekr.c
00000000 l    df *ABS*	00000000 readr.c
00000000 l    df *ABS*	00000000 wcrtomb.c
00000000 l    df *ABS*	00000000 wctomb_r.c
00000000 l    df *ABS*	00000000 libgcc2.c
00000000 l    df *ABS*	00000000 libgcc2.c
00000000 l    df *ABS*	00000000 libgcc2.c
00000000 l    df *ABS*	00000000 adddf3.c
00000000 l    df *ABS*	00000000 divdf3.c
00000000 l    df *ABS*	00000000 eqdf2.c
00000000 l    df *ABS*	00000000 gedf2.c
00000000 l    df *ABS*	00000000 ledf2.c
00000000 l    df *ABS*	00000000 muldf3.c
00000000 l    df *ABS*	00000000 subdf3.c
00000000 l    df *ABS*	00000000 fixdfsi.c
00000000 l    df *ABS*	00000000 floatsidf.c
00000000 l    df *ABS*	00000000 floatunsidf.c
00000000 l    df *ABS*	00000000 libgcc2.c
00000000 l    df *ABS*	00000000 libgcc2.c
00000000 l    df *ABS*	00000000 alt_close.c
0c0169fc l     F .text	0000003c alt_get_errno
00000000 l    df *ABS*	00000000 alt_dev.c
0c016b10 l     F .text	0000002c alt_dev_null_write
00000000 l    df *ABS*	00000000 alt_errno.c
00000000 l    df *ABS*	00000000 alt_exit.c
00000000 l    df *ABS*	00000000 alt_fstat.c
0c016b70 l     F .text	0000003c alt_get_errno
00000000 l    df *ABS*	00000000 alt_getpid.c
00000000 l    df *ABS*	00000000 alt_gettod.c
00000000 l    df *ABS*	00000000 alt_isatty.c
0c016e78 l     F .text	0000003c alt_get_errno
00000000 l    df *ABS*	00000000 alt_kill.c
0c016f60 l     F .text	0000003c alt_get_errno
00000000 l    df *ABS*	00000000 alt_load.c
0c0170cc l     F .text	00000068 alt_load_section
00000000 l    df *ABS*	00000000 alt_lseek.c
0c0171b8 l     F .text	0000003c alt_get_errno
00000000 l    df *ABS*	00000000 alt_main.c
00000000 l    df *ABS*	00000000 alt_malloc_lock.c
00000000 l    df *ABS*	00000000 alt_printf.c
00000000 l    df *ABS*	00000000 alt_putchar.c
00000000 l    df *ABS*	00000000 alt_read.c
0c0175fc l     F .text	0000003c alt_get_errno
00000000 l    df *ABS*	00000000 alt_release_fd.c
00000000 l    df *ABS*	00000000 alt_sbrk.c
0c01c244 l     O .rwdata	00000004 heap_end
00000000 l    df *ABS*	00000000 alt_tick.c
00000000 l    df *ABS*	00000000 alt_usleep.c
00000000 l    df *ABS*	00000000 alt_write.c
0c017a44 l     F .text	0000003c alt_get_errno
00000000 l    df *ABS*	00000000 alt_sys_init.c
0c017b80 l     F .text	00000034 alt_dev_reg
0c01b18c l     O .rwdata	00001060 jtag_uart_0
00000000 l    df *ABS*	00000000 altera_avalon_jtag_uart_fd.c
00000000 l    df *ABS*	00000000 altera_avalon_jtag_uart_init.c
0c017e74 l     F .text	0000020c altera_avalon_jtag_uart_irq
0c018080 l     F .text	000000a0 altera_avalon_jtag_uart_timeout
00000000 l    df *ABS*	00000000 altera_avalon_jtag_uart_ioctl.c
00000000 l    df *ABS*	00000000 altera_avalon_jtag_uart_read.c
00000000 l    df *ABS*	00000000 altera_avalon_jtag_uart_write.c
00000000 l    df *ABS*	00000000 altera_avalon_spi.c
00000000 l    df *ABS*	00000000 altera_avalon_timer_sc.c
0c0188b4 l     F .text	00000078 alt_avalon_timer_sc_irq
00000000 l    df *ABS*	00000000 alt_alarm_start.c
00000000 l    df *ABS*	00000000 alt_busy_sleep.c
00000000 l    df *ABS*	00000000 alt_dcache_flush_all.c
00000000 l    df *ABS*	00000000 alt_dev_llist_insert.c
0c018c4c l     F .text	0000003c alt_get_errno
00000000 l    df *ABS*	00000000 alt_do_ctors.c
00000000 l    df *ABS*	00000000 alt_do_dtors.c
00000000 l    df *ABS*	00000000 alt_icache_flush_all.c
00000000 l    df *ABS*	00000000 alt_iic.c
00000000 l    df *ABS*	00000000 alt_iic_isr_register.c
00000000 l    df *ABS*	00000000 alt_io_redirect.c
0c0190ac l     F .text	000000e4 alt_open_fd
00000000 l    df *ABS*	00000000 alt_irq_vars.c
00000000 l    df *ABS*	00000000 alt_open.c
0c01920c l     F .text	0000003c alt_get_errno
0c019248 l     F .text	000000ec alt_file_locked
00000000 l    df *ABS*	00000000 altera_nios2_gen2_irq.c
00000000 l    df *ABS*	00000000 alt_find_dev.c
00000000 l    df *ABS*	00000000 alt_find_file.c
00000000 l    df *ABS*	00000000 alt_get_fd.c
00000000 l    df *ABS*	00000000 atexit.c
00000000 l    df *ABS*	00000000 exit.c
00000000 l    df *ABS*	00000000 memcmp.c
00000000 l    df *ABS*	00000000 __atexit.c
00000000 l    df *ABS*	00000000 __call_atexit.c
0c01e0fc g     O .bss	00000004 alt_instruction_exception_handler
0c006680 g     F .text	00000018 putchar
0c00f104 g     F .text	00000074 _mprec_log10
0c00f1f0 g     F .text	0000008c __any_on
0c013190 g     F .text	00000054 _isatty_r
0c01a1a4 g     O .rodata	00000028 __mprec_tinytens
0c0172d0 g     F .text	0000007c alt_main
0c01c208 g     O .rwdata	00000008 ctrl_xfers
0c006698 g     F .text	000000c0 _puts_r
0c01e420 g     O .bss	00000100 alt_irq
0c0131e4 g     F .text	00000060 _lseek_r
0c005190 g     F .text	00000644 USB_Task
0c01c254 g       *ABS*	00000000 __flash_rwdata_start
0c0153d4 g     F .text	00000088 .hidden __eqdf2
0c00db68 g     F .text	0000005c _gettimeofday_r
0c01e520 g       *ABS*	00000000 __alt_heap_start
0c00fc60 g     F .text	0000005c _kill_r
0c00663c g     F .text	0000003c printf
0c0132a4 g     F .text	0000009c _wcrtomb_r
0c01e084 g     O .bss	00000004 difficulty1
0c004240 g     F .text	00000088 kbdPoll
0c00fa28 g     F .text	00000084 _signal_r
0c00fd98 g     F .text	0000005c __sseek
0c00d094 g     F .text	00000010 __sinit
0c012b40 g     F .text	00000140 __swbuf_r
0c00dbc4 g     F .text	0000007c _setlocale_r
0c00ceec g     F .text	00000078 __sfmoreglue
0c017370 g     F .text	00000024 __malloc_unlock
0c003590 g     F .text	000002b4 textVGAColorScreenSaver
0c019b0c g     O .rodata	00000134 tetrisBlocks
0c001364 g     F .text	000001d4 TetrisCheckLineComplete
0c001910 g     F .text	000001f0 GetDriverandReport
0c002750 g     F .text	000009f0 keyInput
0c0007f4 g     F .text	000001c4 TetrisCheckCollision
0c00df40 g     F .text	0000015c memmove
0c00d07c g     F .text	00000018 _cleanup
0c00e1c4 g     F .text	000000a8 _Balloc
0c01c1f4 g     O .rwdata	00000004 timer
0c004394 g     F .text	00000088 MAXreg_wr
0c01a710 g     O .rwdata	00000030 ClientDriverTable
0c01e07c g     O .bss	00000004 difficultyPos1
0c01545c g     F .text	000000dc .hidden __gtdf2
0c019490 g     F .text	00000024 altera_nios2_gen2_irq_init
0c0057d4 g     F .text	0000002c MSDProbe
0c000000 g     F .entry	0000000c __reset
0c004c90 g     F .text	000000e8 XferCtrlData
0c01e094 g     O .bss	00000004 nextColor
0c0038b0 g     F .text	000000b8 VGAwriteText
0c000020 g       *ABS*	00000000 __flash_exceptions_start
0c01e100 g     O .bss	00000010 hid_ep
0c013134 g     F .text	0000005c _fstat_r
0c01e0c4 g     O .bss	00000004 errno
0c00fd14 g     F .text	00000008 __seofread
0c000750 g     F .text	000000a4 TetrisCleanup
0c0100a8 g     F .text	000013a0 ___svfiprintf_internal_r
0c01e0e8 g     O .bss	00000004 alt_argv
0c0241ec g       *ABS*	00000000 _gp
0c017a14 g     F .text	00000030 usleep
0c004584 g     F .text	00000074 MAXreg_rd
0c01c1f8 g     O .rwdata	00000004 reset
0c003208 g     F .text	00000050 textVGAColorClr
0c016c64 g     F .text	00000020 getpid
0c01e098 g     O .bss	00000004 boardColor
0c01b00c g     O .rwdata	00000180 alt_fd_list
0c004178 g     F .text	00000040 HID_init
0c000d9c g     F .text	00000150 TetrisPrintBlock
0c006678 g     F .text	00000008 _putchar_r
0c0194b4 g     F .text	00000090 alt_find_dev
0c0064c4 g     F .text	00000148 memcpy
0c01e09c g     O .bss	00000004 nextBlock
0c00cd3c g     F .text	0000000c _cleanup_r
0c016814 g     F .text	000000dc .hidden __floatsidf
0c019190 g     F .text	0000007c alt_io_redirect
0c015538 g     F .text	000000f4 .hidden __ltdf2
0c019b0c g       *ABS*	00000000 __DTOR_END__
0c006758 g     F .text	00000014 puts
0c019710 g     F .text	0000009c alt_exception_cause_generated_bad_addr
0c00f948 g     F .text	00000074 __fpclassifyd
0c00f060 g     F .text	000000a4 __ratio
0c012a68 g     F .text	0000001c __vfiprintf_internal
0c018278 g     F .text	0000021c altera_avalon_jtag_uart_read
0c005c90 g     F .text	00000014 malloc
0c00660c g     F .text	00000030 _printf_r
00000000 g       *ABS*	00000000 __alt_mem_onchip_memory2_0
0c005ad4 g     F .text	00000064 .hidden __udivsi3
0c016eb4 g     F .text	000000ac isatty
0c00faac g     F .text	000000bc _raise_r
0c005bb8 g     F .text	00000068 __assert_func
0c01a1f4 g     O .rodata	000000c8 __mprec_tens
0c002158 g     F .text	000002f4 moveMenu
0c00dc40 g     F .text	0000000c __locale_charset
0c01e0d4 g     O .bss	00000008 alt_timezone
0c01e0c0 g     O .bss	00000004 __malloc_top_pad
0c00fcbc g     F .text	00000004 _getpid_r
0c001538 g     F .text	00000060 TetrisInputLeft
0c01c210 g     O .rwdata	00000001 usb_task_state
0c01c224 g     O .rwdata	00000004 __mb_cur_max
0c00dc70 g     F .text	0000000c _localeconv_r
0c00e5f8 g     F .text	0000003c __i2b
0c00d518 g     F .text	000004c8 __sfvwrite_r
0c00fb68 g     F .text	000000a8 __sigtramp_r
0c0067e8 g     F .text	00000054 _sbrk_r
0c00026c g     F .text	00000134 TetrisInitializeChanceTable
0c013244 g     F .text	00000060 _read_r
0c00494c g     F .text	00000094 MAX3421E_init
0c001ddc g     F .text	00000034 setKeycode
0c01c23c g     O .rwdata	00000004 alt_max_fd
0c012e28 g     F .text	000000f0 _fclose_r
0c00cd04 g     F .text	00000030 fflush
0c01e0bc g     O .bss	00000004 __malloc_max_sbrked_mem
0c014158 g     F .text	000008ac .hidden __adddf3
0c00ee08 g     F .text	0000010c __b2d
0c013b94 g     F .text	000005c4 .hidden __umoddi3
0c0171f4 g     F .text	000000dc lseek
0c0024d4 g     F .text	0000027c difficultyMenu
0c01c214 g     O .rwdata	00000004 _global_impure_ptr
0c00f3e4 g     F .text	00000564 _realloc_r
0c01e520 g       *ABS*	00000000 __bss_end
0c018fbc g     F .text	000000f0 alt_iic_isr_register
0c01790c g     F .text	00000108 alt_tick
0c013598 g     F .text	000005fc .hidden __udivdi3
0c013090 g     F .text	00000024 _fputwc_r
0c01a1cc g     O .rodata	00000028 __mprec_bigtens
0c00e3dc g     F .text	00000104 __s2b
0c00b1c4 g     F .text	00000018 abort
0c0168f0 g     F .text	000000a8 .hidden __floatunsidf
0c00eb48 g     F .text	00000060 __mcmp
0c00d0b4 g     F .text	00000018 __fp_lock_all
0c018f70 g     F .text	0000004c alt_ic_irq_enabled
0c01e078 g     O .bss	00000004 players
0c017870 g     F .text	0000009c alt_alarm_stop
0c01e0f8 g     O .bss	00000004 alt_irq_active
0c00589c g     F .text	0000002c DummyProbe
0c0000fc g     F .exceptions	000000d4 alt_irq_handler
0c00123c g     F .text	00000128 TetrisClearLine
0c01afe4 g     O .rwdata	00000028 alt_dev_null
0c0041b8 g     F .text	00000088 mousePoll
0c0047a0 g     F .text	00000024 Vbus_power
0c001e10 g     F .text	00000200 TetrisPopulate
0c018c2c g     F .text	00000020 alt_dcache_flush_all
0c00e4e0 g     F .text	00000068 __hi0bits
0c016794 g     F .text	00000080 .hidden __fixdfsi
0c01c254 g       *ABS*	00000000 __ram_rwdata_end
0c01e088 g     O .bss	00000004 difficulty2
0c01e090 g     O .bss	00000004 run2
0c01c234 g     O .rwdata	00000008 alt_dev_list
0c017a80 g     F .text	00000100 write
0c00f27c g     F .text	000000a0 _putc_r
0c01a430 g       *ABS*	00000000 __ram_rodata_end
0c01e0b5 g     O .bss	00000001 usb_error
0c016bac g     F .text	000000b8 fstat
0c016f9c g     F .text	00000130 kill
0c015538 g     F .text	000000f4 .hidden __ledf2
0c00e8c0 g     F .text	00000140 __pow5mult
0c01e0d0 g     O .bss	00000004 __nlocale_changed
0c01155c g     F .text	0000150c ___vfiprintf_internal_r
0c005b38 g     F .text	00000058 .hidden __umodsi3
0c0005a4 g     F .text	000001ac TetrisInitialize
0c01e520 g       *ABS*	00000000 end
0c0003a0 g     F .text	000000ec TetrisGetRandomTetrisBlock
0c017db4 g     F .text	000000c0 altera_avalon_jtag_uart_init
0c0001d0 g     F .exceptions	00000060 alt_instruction_exception_entry
0c004dec g     F .text	0000017c XferDispatchPkt
0c019b0c g       *ABS*	00000000 __CTOR_LIST__
10000000 g       *ABS*	00000000 __alt_stack_pointer
0c01892c g     F .text	0000007c alt_avalon_timer_sc_init
0c016998 g     F .text	00000064 .hidden __clzsi2
0c018494 g     F .text	00000224 altera_avalon_jtag_uart_write
0c00d0a4 g     F .text	00000004 __sfp_lock_acquire
0c00de5c g     F .text	000000e4 memchr
0c008cbc g     F .text	000022dc ___vfprintf_internal_r
0c004b10 g     F .text	00000034 MaxGpxHandler
0c00683c g     F .text	00000058 _sprintf_r
0c00d208 g     F .text	00000310 _free_r
0c017394 g     F .text	0000022c alt_printf
0c00dc4c g     F .text	00000010 __locale_mb_cur_max
0c01998c g     F .text	00000180 __call_exitprocs
0c01e0cc g     O .bss	00000004 __mlocale_changed
0c01c21c g     O .rwdata	00000004 __malloc_sbrk_base
0c000230 g     F .text	0000003c _start
0c01e0f0 g     O .bss	00000004 _alt_tick_rate
0c0045f8 g     F .text	00000108 MAXbytes_rd
0c01e150 g     O .bss	000000c4 state1
0c006784 g     F .text	00000064 rand
0c00ea00 g     F .text	00000148 __lshift
0c0186b8 g     F .text	000001fc alt_avalon_spi_command
0c01e0f4 g     O .bss	00000004 _alt_nticks
0c00fc24 g     F .text	00000018 signal
0c017638 g     F .text	00000104 read
0c017bec g     F .text	00000064 alt_sys_init
0c00fed8 g     F .text	000001d0 __ssprint_r
0c01e3d8 g     O .bss	00000048 devtable
0c019874 g     F .text	00000118 __register_exitproc
0c003d70 g     F .text	00000408 HIDKProbe
0c01e110 g     O .bss	00000018 msd_ep
0c001598 g     F .text	00000060 TetrisInputRight
0c00e634 g     F .text	0000028c __multiply
0c018120 g     F .text	00000068 altera_avalon_jtag_uart_close
0c0050f8 g     F .text	00000098 USB_init
0c01e2d8 g     O .bss	00000100 bigbuf
0c005b90 g     F .text	00000028 .hidden __mulsi3
0c01a430 g       *ABS*	00000000 __ram_rwdata_start
0c019b0c g       *ABS*	00000000 __ram_rodata_start
0c01e128 g     O .bss	00000028 __malloc_current_mallinfo
0c01e0ac g     O .bss	00000001 last_usb_task_state
0c00ef14 g     F .text	0000014c __d2b
0c01e0a4 g     O .bss	00000008 dev0ep
0c001b44 g     F .text	00000048 clearLED
0c017c50 g     F .text	00000060 altera_avalon_jtag_uart_read_fd
0c01964c g     F .text	000000c4 alt_get_fd
0c018ad4 g     F .text	00000158 alt_busy_sleep
0c005800 g     F .text	00000038 MSDEventHandler
0c012cf8 g     F .text	00000054 _close_r
0c0197f8 g     F .text	0000007c memcmp
0c017d10 g     F .text	00000050 altera_avalon_jtag_uart_close_fd
0c01e520 g       *ABS*	00000000 __alt_stack_base
0c017d60 g     F .text	00000054 altera_avalon_jtag_uart_ioctl_fd
0c00b070 g     F .text	00000154 __swsetup_r
0c014a04 g     F .text	000009d0 .hidden __divdf3
0c00cf64 g     F .text	00000118 __sfp
0c00f178 g     F .text	00000078 __copybits
0c01ab64 g     O .rwdata	00000408 __malloc_av_
0c00d0b0 g     F .text	00000004 __sinit_lock_release
0c005864 g     F .text	00000038 CDCEventHandler
0c01562c g     F .text	0000086c .hidden __muldf3
0c0058c8 g     F .text	00000038 DummyEventHandler
0c00fcc0 g     F .text	00000054 __sread
0c019544 g     F .text	00000108 alt_find_file
0c018c88 g     F .text	000000a4 alt_dev_llist_insert
0c01734c g     F .text	00000024 __malloc_lock
0c0177c0 g     F .text	000000b0 sbrk
0c006998 g     F .text	000022bc ___svfprintf_internal_r
0c00048c g     F .text	00000118 TetrisInitializeBlockChanceTables
0c00cca8 g     F .text	0000005c _fflush_r
0c012d4c g     F .text	000000dc _calloc_r
0c016c84 g     F .text	000001f4 gettimeofday
0c01e078 g       *ABS*	00000000 __bss_start
0c0047c4 g     F .text	00000188 MAX_busprobe
0c01e0a0 g     O .bss	00000002 hid_device
0c00e09c g     F .text	00000128 memset
0c003140 g     F .text	000000c8 main
0c0049e0 g     F .text	00000064 MAX3421E_Task
0c01e0ec g     O .bss	00000004 alt_envp
0c01e0b8 g     O .bss	00000004 __malloc_max_total_mem
0c017cb0 g     F .text	00000060 altera_avalon_jtag_uart_write_fd
0c012c80 g     F .text	00000018 __swbuf
0c00676c g     F .text	00000018 srand
0c005958 g     F .text	00000084 ConvUTF8ToStr
0c000eec g     F .text	000002e0 TetrisRotateBlock
0c002010 g     F .text	00000148 gameMenu
0c0009b8 g     F .text	000003e4 TetrisCreateBlock
0c00fdf4 g     F .text	00000008 __sclose
10000000 g       *ABS*	00000000 __alt_heap_limit
0c003490 g     F .text	00000100 screenVGAinitializer
0c012f18 g     F .text	00000014 fclose
0c003844 g     F .text	0000006c VGADrawColorBox
0c00b404 g     F .text	00001688 _dtoa_r
0c005cb8 g     F .text	0000080c _malloc_r
0c013400 g     F .text	00000030 __ascii_wctomb
0c008c54 g     F .text	00000050 time
0c01c240 g     O .rwdata	00000004 alt_errno
0c005c34 g     F .text	00000020 _fiprintf_r
0c00fc3c g     F .text	00000010 _init_signal
0c00d9e0 g     F .text	000000c4 _fwalk
0c00f31c g     F .text	000000c8 putc
0c0059dc g     F .text	00000084 .hidden __divsi3
0c004f68 g     F .text	00000190 XferInTransfer
0c003368 g     F .text	00000128 setColorPalette
0c001ca4 g     F .text	00000138 printSignedHex1
0c00d0e4 g     F .text	00000124 _malloc_trim_r
0c019b0c g       *ABS*	00000000 __CTOR_END__
0c0015f8 g     F .text	000002dc TetrisPrintBoard
0c005920 g     F .text	00000038 GetDevtable
0c00fdfc g     F .text	000000dc strcmp
0c019b0c g       *ABS*	00000000 __flash_rodata_start
0c019b0c g       *ABS*	00000000 __DTOR_LIST__
0c004d78 g     F .text	00000074 XferCtrlND
0c0153d4 g     F .text	00000088 .hidden __nedf2
0c004700 g     F .text	000000a0 MAX3421E_reset
0c017bb4 g     F .text	00000038 alt_irq_init
0c01773c g     F .text	00000084 alt_release_fd
0c006894 g     F .text	0000006c sprintf
0c01a2fc g     O .rodata	00000100 .hidden __clz_tab
0c01e0c8 g     O .bss	00000004 _PathLocale
0c01c1f0 g     O .rwdata	00000004 arrowPos
0c0197ac g     F .text	00000014 atexit
0c012c98 g     F .text	00000060 _write_r
0c01e080 g     O .bss	00000004 difficultyPos2
0c00dc7c g     F .text	00000018 setlocale
0c0011cc g     F .text	00000070 TetrisFallBlocks
0c01c218 g     O .rwdata	00000004 _impure_ptr
0c01e0e4 g     O .bss	00000004 alt_argc
0c00ca8c g     F .text	0000021c __sflush_r
0c018d8c g     F .text	00000060 _do_dtors
0c00dc68 g     F .text	00000008 __locale_cjk_lang
0c00441c g     F .text	00000168 MAXbytes_wr
0c000020 g       .exceptions	00000000 alt_irq_entry
0c00eda4 g     F .text	00000064 __ulp
0c00d0cc g     F .text	00000018 __fp_unlock_all
0c01c22c g     O .rwdata	00000008 alt_fs_list
0c005838 g     F .text	0000002c CDCProbe
0c01e08c g     O .bss	00000004 run1
0c01e0dc g     O .bss	00000008 alt_resettime
0c000020 g       *ABS*	00000000 __ram_exceptions_start
0c00dc94 g     F .text	0000000c localeconv
0c001b00 g     F .text	00000044 setLED
0c005900 g     F .text	00000020 GetUsbTaskState
0c018e0c g     F .text	00000050 alt_ic_isr_register
0c019d30 g     O .rodata	00000010 devclasses
0c01c254 g       *ABS*	00000000 _edata
0c004300 g     F .text	00000038 HIDKEventHandler
0c01e520 g       *ABS*	00000000 _end
0c004a44 g     F .text	000000cc MaxIntHandler
0c012f2c g     F .text	00000164 __fputwc
0c000230 g       *ABS*	00000000 __ram_exceptions_end
0c018188 g     F .text	000000f0 altera_avalon_jtag_uart_ioctl
0c0018d4 g     F .text	0000003c TetrisPause
0c003258 g     F .text	00000110 textVGADrawColorText
0c004338 g     F .text	00000034 SPI_init
0c018ee4 g     F .text	0000008c alt_ic_irq_disable
0c01c1ec g     O .rwdata	00000004 tetrisBlockCount
0c00fd1c g     F .text	0000007c __swrite
0c01c220 g     O .rwdata	00000004 __malloc_trim_threshold
0c00dc5c g     F .text	0000000c __locale_msgcharset
0c0197c0 g     F .text	00000038 exit
0c005c54 g     F .text	0000003c fiprintf
0c008ca4 g     F .text	00000018 _vfiprintf_r
0c00daa4 g     F .text	000000c4 _fwalk_reent
0c00eba8 g     F .text	000001fc __mdiff
0c005a60 g     F .text	00000074 .hidden __modsi3
10000000 g       *ABS*	00000000 __alt_data_end
0c000020 g     F .exceptions	00000000 alt_exception
0c00d0a8 g     F .text	00000004 __sfp_lock_release
0c000000 g       *ABS*	00000000 __alt_mem_sdram
0c01e214 g     O .bss	000000c4 state2
0c0042c8 g     F .text	00000038 HIDMEventHandler
0c016b3c g     F .text	00000034 _exit
0c0189a8 g     F .text	0000012c alt_alarm_start
0c001b8c g     F .text	00000118 printSignedHex0
0c01348c g     F .text	0000010c .hidden __muldi3
0c00dca0 g     F .text	000001bc __smakebuf_r
0c006900 g     F .text	00000098 strlen
0c00244c g     F .text	00000088 clearMenu
0c00f9bc g     F .text	0000006c _init_signal_r
0c019334 g     F .text	0000015c open
0c01545c g     F .text	000000dc .hidden __gedf2
0c0175c0 g     F .text	0000003c alt_putchar
0c005c20 g     F .text	00000014 __assert
0c01c228 g     O .rwdata	00000004 __wctomb
0c011544 g     F .text	00000018 __sprint_r
0c018dec g     F .text	00000020 alt_icache_flush_all
0c01c250 g     O .rwdata	00000004 alt_priority_mask
0c018e5c g     F .text	00000088 alt_ic_irq_enable
0c00af98 g     F .text	0000001c __vfprintf_internal
0c003968 g     F .text	00000408 HIDMProbe
0c013430 g     F .text	0000005c _wctomb_r
0c00436c g     F .text	00000028 SPI_wr
0c015e98 g     F .text	000008fc .hidden __subdf3
0c00e548 g     F .text	000000b0 __lo0bits
0c01c248 g     O .rwdata	00000008 alt_alarm_list
0c018d2c g     F .text	00000060 _do_ctors
0c00fc4c g     F .text	00000014 __sigtramp
0c013340 g     F .text	000000c0 wcrtomb
0c016a38 g     F .text	000000d8 close
0c017134 g     F .text	00000084 alt_load
0c0130b4 g     F .text	00000080 fputwc
0c00fc10 g     F .text	00000014 raise
0c005ca4 g     F .text	00000014 free
0c00d0ac g     F .text	00000004 __sinit_lock_acquire
0c004b44 g     F .text	0000014c XferCtrlReq
0c00e294 g     F .text	00000148 __multadd
0c00e26c g     F .text	00000028 _Bfree



Disassembly of section .entry:

0c000000 <__reset>:
 * Jump to the _start entry point in the .text section if reset code
 * is allowed or if optimizing for RTL simulation.
 */
#if defined(ALT_ALLOW_CODE_AT_RESET) || defined(ALT_SIM_OPTIMIZE)
    /* Jump to the _start entry point in the .text section. */
    movhi r1, %hi(_start)
 c000000:	00430034 	movhi	at,3072
    ori r1, r1, %lo(_start)
 c000004:	08408c14 	ori	at,at,560
    jmp r1
 c000008:	0800683a 	jmp	at
	...

Disassembly of section .exceptions:

0c000020 <alt_exception>:

#else /* ALT_EXCEPTION_STACK disabled */
        /* 
         * Reserve space on normal stack for registers about to be pushed.
         */
        addi  sp, sp, -76
 c000020:	deffed04 	addi	sp,sp,-76
         * documentation for details).
         *
         * Leave a gap in the stack frame at 4(sp) for the muldiv handler to
         * store zero into.
         */
        stw   ra,  0(sp)
 c000024:	dfc00015 	stw	ra,0(sp)
        stw   r1,   8(sp)
 c000028:	d8400215 	stw	at,8(sp)
        stw   r2,  12(sp)
 c00002c:	d8800315 	stw	r2,12(sp)
        stw   r3,  16(sp)
 c000030:	d8c00415 	stw	r3,16(sp)
        stw   r4,  20(sp)
 c000034:	d9000515 	stw	r4,20(sp)
        stw   r5,  24(sp)
 c000038:	d9400615 	stw	r5,24(sp)
        stw   r6,  28(sp)
 c00003c:	d9800715 	stw	r6,28(sp)
        stw   r7,  32(sp)
 c000040:	d9c00815 	stw	r7,32(sp)
        rdctl r5, estatus   /* Read early to avoid usage stall */
 c000044:	000b307a 	rdctl	r5,estatus
        stw   r8,  36(sp)
 c000048:	da000915 	stw	r8,36(sp)
        stw   r9,  40(sp)
 c00004c:	da400a15 	stw	r9,40(sp)
        stw   r10, 44(sp)
 c000050:	da800b15 	stw	r10,44(sp)
        stw   r11, 48(sp)
 c000054:	dac00c15 	stw	r11,48(sp)
        stw   r12, 52(sp)
 c000058:	db000d15 	stw	r12,52(sp)
        stw   r13, 56(sp)
 c00005c:	db400e15 	stw	r13,56(sp)
        stw   r14, 60(sp)
 c000060:	db800f15 	stw	r14,60(sp)
        stw   r15, 64(sp)
 c000064:	dbc01015 	stw	r15,64(sp)
        /*
         * ea-4 contains the address of the instruction being executed
         * when the exception occured. For interrupt exceptions, we will
         * will be re-issue the isntruction. Store it in 72(sp)
         */
        stw   r5,  68(sp)  /* estatus */
 c000068:	d9401115 	stw	r5,68(sp)
        addi  r15, ea, -4  /* instruction that caused exception */
 c00006c:	ebffff04 	addi	r15,ea,-4
        stw   r15,  72(sp)
 c000070:	dbc01215 	stw	r15,72(sp)
#else
        /*
         * Test to see if the exception was a software exception or caused 
         * by an external interrupt, and vector accordingly.
         */
        rdctl r4, ipending
 c000074:	0009313a 	rdctl	r4,ipending
        andi  r2, r5, 1
 c000078:	2880004c 	andi	r2,r5,1
        beq   r2, zero, .Lnot_irq
 c00007c:	10000326 	beq	r2,zero,c00008c <alt_exception+0x6c>
        beq   r4, zero, .Lnot_irq
 c000080:	20000226 	beq	r4,zero,c00008c <alt_exception+0x6c>
        /*
         * Now that all necessary registers have been preserved, call 
         * alt_irq_handler() to process the interrupts.
         */

        call alt_irq_handler
 c000084:	c0000fc0 	call	c0000fc <alt_irq_handler>

        .section .exceptions.irqreturn, "xa"

        br    .Lexception_exit
 c000088:	00000706 	br	c0000a8 <alt_exception+0x88>
         * upon completion, so we write ea (address of instruction *after*
         * the one where the exception occured) into 72(sp). The actual
         * instruction that caused the exception is written in r2, which these
         * handlers will utilize.
         */
        stw ea, 72(sp) /* EA is PC+4 so will skip over instruction causing exception */
 c00008c:	df401215 	stw	ea,72(sp)
.Lunknown_16bit:
        addi.n r4, r4, 2 /* Need PC+2 to skip over instruction causing exception */
        stw r4, 72(sp)

#else /* CDX is not Enabled and all instructions are 32bits */
        ldw r2, -4(ea) /* Instruction value that caused exception */
 c000090:	e8bfff17 	ldw	r2,-4(ea)
         * debugger is present) or go into an infinite loop since the
         * handling behavior is undefined; in that case we will not return here.
         */

        /* Load exception-causing address as first argument (r4) */
        addi   r4, ea, -4
 c000094:	e93fff04 	addi	r4,ea,-4

        /* Call the instruction-exception entry */
        call   alt_instruction_exception_entry
 c000098:	c0001d00 	call	c0001d0 <alt_instruction_exception_entry>
         * instruction
         *
         * Return code was 0: Skip. The instruction after the exception is
         * already stored in 72(sp).
         */
        bne   r2, r0, .Lexception_exit
 c00009c:	1000021e 	bne	r2,zero,c0000a8 <alt_exception+0x88>

        /*
         * Otherwise, modify 72(sp) to re-issue the instruction that caused the
         * exception.
         */
        addi  r15, ea, -4  /* instruction that caused exception */
 c0000a0:	ebffff04 	addi	r15,ea,-4
        stw   r15,  72(sp)
 c0000a4:	dbc01215 	stw	r15,72(sp)
        /* 
         * Restore the saved registers, so that all general purpose registers 
         * have been restored to their state at the time the interrupt occured.
         */

        ldw   r5,  68(sp)
 c0000a8:	d9401117 	ldw	r5,68(sp)
        ldw   ea,  72(sp)  /* This becomes the PC once eret is executed */
 c0000ac:	df401217 	ldw	ea,72(sp)
        ldw   ra,   0(sp)
 c0000b0:	dfc00017 	ldw	ra,0(sp)

        wrctl estatus, r5
 c0000b4:	2801707a 	wrctl	estatus,r5

        ldw   r1,   8(sp)
 c0000b8:	d8400217 	ldw	at,8(sp)
        ldw   r2,  12(sp)
 c0000bc:	d8800317 	ldw	r2,12(sp)
        ldw   r3,  16(sp)
 c0000c0:	d8c00417 	ldw	r3,16(sp)
        ldw   r4,  20(sp)
 c0000c4:	d9000517 	ldw	r4,20(sp)
        ldw   r5,  24(sp)
 c0000c8:	d9400617 	ldw	r5,24(sp)
        ldw   r6,  28(sp)
 c0000cc:	d9800717 	ldw	r6,28(sp)
        ldw   r7,  32(sp)
 c0000d0:	d9c00817 	ldw	r7,32(sp)

#if defined(ALT_EXCEPTION_STACK) && defined(ALT_STACK_CHECK)
        ldw   et, %gprel(alt_exception_old_stack_limit)(gp)
#endif

        ldw   r8,  36(sp)
 c0000d4:	da000917 	ldw	r8,36(sp)
        ldw   r9,  40(sp)
 c0000d8:	da400a17 	ldw	r9,40(sp)
        ldw   r10, 44(sp)
 c0000dc:	da800b17 	ldw	r10,44(sp)
        ldw   r11, 48(sp)
 c0000e0:	dac00c17 	ldw	r11,48(sp)
        ldw   r12, 52(sp)
 c0000e4:	db000d17 	ldw	r12,52(sp)
        ldw   r13, 56(sp)
 c0000e8:	db400e17 	ldw	r13,56(sp)
        ldw   r14, 60(sp)
 c0000ec:	db800f17 	ldw	r14,60(sp)
        ldw   r15, 64(sp)
 c0000f0:	dbc01017 	ldw	r15,64(sp)
        stw   et, %gprel(alt_stack_limit_value)(gp)
        stw   zero, %gprel(alt_exception_old_stack_limit)(gp)
#endif /* ALT_STACK_CHECK */
        ldw   sp,  76(sp)
#else /* ALT_EXCEPTION_STACK disabled */
        addi  sp, sp, 76
 c0000f4:	dec01304 	addi	sp,sp,76

        /*
         * Return to the interrupted instruction.
         */

        eret
 c0000f8:	ef80083a 	eret

0c0000fc <alt_irq_handler>:
 * instruction is present if the macro ALT_CI_INTERRUPT_VECTOR defined.
 */

void alt_irq_handler (void) __attribute__ ((section (".exceptions")));
void alt_irq_handler (void)
{
 c0000fc:	defff904 	addi	sp,sp,-28
 c000100:	dfc00615 	stw	ra,24(sp)
 c000104:	df000515 	stw	fp,20(sp)
 c000108:	df000504 	addi	fp,sp,20
  
  /*
   * Notify the operating system that we are at interrupt level.
   */ 
  
  ALT_OS_INT_ENTER();
 c00010c:	0001883a 	nop
#ifndef NIOS2_EIC_PRESENT
static ALT_INLINE alt_u32 ALT_ALWAYS_INLINE alt_irq_pending (void)
{
  alt_u32 active;

  NIOS2_READ_IPENDING (active);
 c000110:	0005313a 	rdctl	r2,ipending
 c000114:	e0bffe15 	stw	r2,-8(fp)

  return active;
 c000118:	e0bffe17 	ldw	r2,-8(fp)
   * Consider the case where the high priority interupt is asserted during
   * the interrupt entry sequence for a lower priority interrupt to see why
   * this is the case.
   */

  active = alt_irq_pending ();
 c00011c:	e0bffb15 	stw	r2,-20(fp)

  do
  {
    i = 0;
 c000120:	e03ffd15 	stw	zero,-12(fp)
    mask = 1;
 c000124:	00800044 	movi	r2,1
 c000128:	e0bffc15 	stw	r2,-16(fp)
     * called to clear the interrupt condition.
     */

    do
    {
      if (active & mask)
 c00012c:	e0fffb17 	ldw	r3,-20(fp)
 c000130:	e0bffc17 	ldw	r2,-16(fp)
 c000134:	1884703a 	and	r2,r3,r2
 c000138:	10001426 	beq	r2,zero,c00018c <alt_irq_handler+0x90>
      { 
#ifdef ALT_ENHANCED_INTERRUPT_API_PRESENT
        alt_irq[i].handler(alt_irq[i].context); 
 c00013c:	008300b4 	movhi	r2,3074
 c000140:	10b90804 	addi	r2,r2,-7136
 c000144:	e0fffd17 	ldw	r3,-12(fp)
 c000148:	180690fa 	slli	r3,r3,3
 c00014c:	10c5883a 	add	r2,r2,r3
 c000150:	10c00017 	ldw	r3,0(r2)
 c000154:	008300b4 	movhi	r2,3074
 c000158:	10b90804 	addi	r2,r2,-7136
 c00015c:	e13ffd17 	ldw	r4,-12(fp)
 c000160:	200890fa 	slli	r4,r4,3
 c000164:	1105883a 	add	r2,r2,r4
 c000168:	10800104 	addi	r2,r2,4
 c00016c:	10800017 	ldw	r2,0(r2)
 c000170:	1009883a 	mov	r4,r2
 c000174:	183ee83a 	callr	r3
#else
        alt_irq[i].handler(alt_irq[i].context, i); 
#endif
        break;
 c000178:	0001883a 	nop
#ifndef NIOS2_EIC_PRESENT
static ALT_INLINE alt_u32 ALT_ALWAYS_INLINE alt_irq_pending (void)
{
  alt_u32 active;

  NIOS2_READ_IPENDING (active);
 c00017c:	0005313a 	rdctl	r2,ipending
 c000180:	e0bfff15 	stw	r2,-4(fp)

  return active;
 c000184:	e0bfff17 	ldw	r2,-4(fp)
 c000188:	00000706 	br	c0001a8 <alt_irq_handler+0xac>
      }
      mask <<= 1;
 c00018c:	e0bffc17 	ldw	r2,-16(fp)
 c000190:	1085883a 	add	r2,r2,r2
 c000194:	e0bffc15 	stw	r2,-16(fp)
      i++;
 c000198:	e0bffd17 	ldw	r2,-12(fp)
 c00019c:	10800044 	addi	r2,r2,1
 c0001a0:	e0bffd15 	stw	r2,-12(fp)

    } while (1);
 c0001a4:	003fe106 	br	c00012c <__alt_data_end+0xfc00012c>

    active = alt_irq_pending ();
 c0001a8:	e0bffb15 	stw	r2,-20(fp)
    
  } while (active);
 c0001ac:	e0bffb17 	ldw	r2,-20(fp)
 c0001b0:	103fdb1e 	bne	r2,zero,c000120 <__alt_data_end+0xfc000120>

  /*
   * Notify the operating system that interrupt processing is complete.
   */ 

  ALT_OS_INT_EXIT();
 c0001b4:	0001883a 	nop
}
 c0001b8:	0001883a 	nop
 c0001bc:	e037883a 	mov	sp,fp
 c0001c0:	dfc00117 	ldw	ra,4(sp)
 c0001c4:	df000017 	ldw	fp,0(sp)
 c0001c8:	dec00204 	addi	sp,sp,8
 c0001cc:	f800283a 	ret

0c0001d0 <alt_instruction_exception_entry>:
 * that handler if it has been registered. Absent a handler, it will
 * break break or hang as discussed below.
 */
int 
alt_instruction_exception_entry (alt_u32 exception_pc)
{
 c0001d0:	defffb04 	addi	sp,sp,-20
 c0001d4:	dfc00415 	stw	ra,16(sp)
 c0001d8:	df000315 	stw	fp,12(sp)
 c0001dc:	df000304 	addi	fp,sp,12
 c0001e0:	e13fff15 	stw	r4,-4(fp)
  cause = ( (cause & NIOS2_EXCEPTION_REG_CAUSE_MASK) >>
              NIOS2_EXCEPTION_REG_CAUSE_OFST );

  NIOS2_READ_BADADDR(badaddr);
#else
  cause = NIOS2_EXCEPTION_CAUSE_NOT_PRESENT;
 c0001e4:	00bfffc4 	movi	r2,-1
 c0001e8:	e0bffd15 	stw	r2,-12(fp)
  badaddr = 0;
 c0001ec:	e03ffe15 	stw	zero,-8(fp)
#endif /* NIOS2_HAS_EXTRA_EXCEPTION_INFO */

  if(alt_instruction_exception_handler) {
 c0001f0:	d0a7c417 	ldw	r2,-24816(gp)
 c0001f4:	10000726 	beq	r2,zero,c000214 <alt_instruction_exception_entry+0x44>
     * Call handler. Its return value indicates whether the exception-causing
     * instruction should be re-issued. The code that called us,
     * alt_eceptions_entry.S, will look at this value and adjust the ea
     * register as necessary
     */
    return alt_instruction_exception_handler(cause, exception_pc, badaddr);
 c0001f8:	d0a7c417 	ldw	r2,-24816(gp)
 c0001fc:	e0fffd17 	ldw	r3,-12(fp)
 c000200:	e1bffe17 	ldw	r6,-8(fp)
 c000204:	e17fff17 	ldw	r5,-4(fp)
 c000208:	1809883a 	mov	r4,r3
 c00020c:	103ee83a 	callr	r2
 c000210:	00000206 	br	c00021c <alt_instruction_exception_entry+0x4c>
   *    (a peripheral which negates its interrupt output before its
   *    interrupt handler has been executed will cause spurious interrupts)
   */
  else {
#ifdef NIOS2_HAS_DEBUG_STUB
    NIOS2_BREAK();
 c000214:	003da03a 	break	0
      ;
#endif /* NIOS2_HAS_DEBUG_STUB */
  }

  /* We should not get here. Remove compiler warning. */
  return NIOS2_EXCEPTION_RETURN_REISSUE_INST;
 c000218:	0005883a 	mov	r2,zero
}
 c00021c:	e037883a 	mov	sp,fp
 c000220:	dfc00117 	ldw	ra,4(sp)
 c000224:	df000017 	ldw	fp,0(sp)
 c000228:	dec00204 	addi	sp,sp,8
 c00022c:	f800283a 	ret

Disassembly of section .text:

0c000230 <_start>:

    /*
     * Now that the caches are initialized, set up the stack pointer and global pointer.
     * The values provided by the linker are assumed to be correctly aligned.
     */
    movhi sp, %hi(__alt_stack_pointer)
 c000230:	06c40034 	movhi	sp,4096
    ori sp, sp, %lo(__alt_stack_pointer)
 c000234:	dec00014 	ori	sp,sp,0
    movhi gp, %hi(_gp)
 c000238:	068300b4 	movhi	gp,3074
    ori gp, gp, %lo(_gp)
 c00023c:	d6907b14 	ori	gp,gp,16876
 */
#ifndef ALT_SIM_OPTIMIZE
    /* Log that the BSS is about to be cleared. */
    ALT_LOG_PUTS(alt_log_msg_bss)

    movhi r2, %hi(__bss_start)
 c000240:	00830074 	movhi	r2,3073
    ori r2, r2, %lo(__bss_start)
 c000244:	10b81e14 	ori	r2,r2,57464

    movhi r3, %hi(__bss_end)
 c000248:	00c30074 	movhi	r3,3073
    ori r3, r3, %lo(__bss_end)
 c00024c:	18f94814 	ori	r3,r3,58656

    beq r2, r3, 1f
 c000250:	10c00326 	beq	r2,r3,c000260 <_start+0x30>

0:
    stw zero, (r2)
 c000254:	10000015 	stw	zero,0(r2)
    addi r2, r2, 4
 c000258:	10800104 	addi	r2,r2,4
    bltu r2, r3, 0b
 c00025c:	10fffd36 	bltu	r2,r3,c000254 <__alt_data_end+0xfc000254>
     * section aren't defined until alt_load() has been called).
     */
    mov   et, zero
#endif

    call alt_load
 c000260:	c0171340 	call	c017134 <alt_load>

    /* Log that alt_main is about to be called. */
    ALT_LOG_PUTS(alt_log_msg_alt_main)

    /* Call the C entry point. It should never return. */
    call alt_main
 c000264:	c0172d00 	call	c0172d0 <alt_main>

0c000268 <alt_after_alt_main>:

    /* Wait in infinite loop in case alt_main does return. */
alt_after_alt_main:
    br alt_after_alt_main
 c000268:	003fff06 	br	c000268 <__alt_data_end+0xfc000268>

0c00026c <TetrisInitializeChanceTable>:
int difficultyPos1 = 0, difficultyPos2 = 0, difficulty1 = 0; difficulty2 = 0, run1=0, run2=0;
alt_u8* timer = 0x00000040;
alt_u8* reset = 0x00000030;


void TetrisInitializeChanceTable(TetrisBlockChanceTable* table, int* chances){
 c00026c:	defffb04 	addi	sp,sp,-20
 c000270:	dfc00415 	stw	ra,16(sp)
 c000274:	df000315 	stw	fp,12(sp)
 c000278:	df000304 	addi	fp,sp,12
 c00027c:	e13ffe15 	stw	r4,-8(fp)
 c000280:	e17fff15 	stw	r5,-4(fp)
    assert(e_TETRIS_BLOCK_TYPE_O == 0);
    assert(e_TETRIS_BLOCK_TYPE_T == 1);
    assert(e_TETRIS_BLOCK_TYPE_S_REVERSE == 6);

    table->totalChance = chances[0];
 c000284:	e0bfff17 	ldw	r2,-4(fp)
 c000288:	10c00017 	ldw	r3,0(r2)
 c00028c:	e0bffe17 	ldw	r2,-8(fp)
 c000290:	10c00015 	stw	r3,0(r2)
    table->cumulativeChances[e_TETRIS_BLOCK_TYPE_O] = chances[0];
 c000294:	e0bfff17 	ldw	r2,-4(fp)
 c000298:	10c00017 	ldw	r3,0(r2)
 c00029c:	e0bffe17 	ldw	r2,-8(fp)
 c0002a0:	10c00115 	stw	r3,4(r2)

    for (int i = e_TETRIS_BLOCK_TYPE_T; i < e_TETRIS_BLOCK_TYPE_COUNT; ++i)
 c0002a4:	00800044 	movi	r2,1
 c0002a8:	e0bffd15 	stw	r2,-12(fp)
 c0002ac:	00002606 	br	c000348 <TetrisInitializeChanceTable+0xdc>
    {
        table->totalChance += chances[i];
 c0002b0:	e0bffe17 	ldw	r2,-8(fp)
 c0002b4:	10c00017 	ldw	r3,0(r2)
 c0002b8:	e0bffd17 	ldw	r2,-12(fp)
 c0002bc:	1085883a 	add	r2,r2,r2
 c0002c0:	1085883a 	add	r2,r2,r2
 c0002c4:	1009883a 	mov	r4,r2
 c0002c8:	e0bfff17 	ldw	r2,-4(fp)
 c0002cc:	1105883a 	add	r2,r2,r4
 c0002d0:	10800017 	ldw	r2,0(r2)
 c0002d4:	1887883a 	add	r3,r3,r2
 c0002d8:	e0bffe17 	ldw	r2,-8(fp)
 c0002dc:	10c00015 	stw	r3,0(r2)
        table->cumulativeChances[i] =
            table->cumulativeChances[i - 1] + chances[i];
 c0002e0:	e0bffd17 	ldw	r2,-12(fp)
 c0002e4:	10bfffc4 	addi	r2,r2,-1
 c0002e8:	e0fffe17 	ldw	r3,-8(fp)
 c0002ec:	10800044 	addi	r2,r2,1
 c0002f0:	1085883a 	add	r2,r2,r2
 c0002f4:	1085883a 	add	r2,r2,r2
 c0002f8:	1885883a 	add	r2,r3,r2
 c0002fc:	10c00017 	ldw	r3,0(r2)
 c000300:	e0bffd17 	ldw	r2,-12(fp)
 c000304:	1085883a 	add	r2,r2,r2
 c000308:	1085883a 	add	r2,r2,r2
 c00030c:	1009883a 	mov	r4,r2
 c000310:	e0bfff17 	ldw	r2,-4(fp)
 c000314:	1105883a 	add	r2,r2,r4
 c000318:	10800017 	ldw	r2,0(r2)
 c00031c:	1887883a 	add	r3,r3,r2
    table->cumulativeChances[e_TETRIS_BLOCK_TYPE_O] = chances[0];

    for (int i = e_TETRIS_BLOCK_TYPE_T; i < e_TETRIS_BLOCK_TYPE_COUNT; ++i)
    {
        table->totalChance += chances[i];
        table->cumulativeChances[i] =
 c000320:	e13ffe17 	ldw	r4,-8(fp)
 c000324:	e0bffd17 	ldw	r2,-12(fp)
 c000328:	10800044 	addi	r2,r2,1
 c00032c:	1085883a 	add	r2,r2,r2
 c000330:	1085883a 	add	r2,r2,r2
 c000334:	2085883a 	add	r2,r4,r2
 c000338:	10c00015 	stw	r3,0(r2)
    assert(e_TETRIS_BLOCK_TYPE_S_REVERSE == 6);

    table->totalChance = chances[0];
    table->cumulativeChances[e_TETRIS_BLOCK_TYPE_O] = chances[0];

    for (int i = e_TETRIS_BLOCK_TYPE_T; i < e_TETRIS_BLOCK_TYPE_COUNT; ++i)
 c00033c:	e0bffd17 	ldw	r2,-12(fp)
 c000340:	10800044 	addi	r2,r2,1
 c000344:	e0bffd15 	stw	r2,-12(fp)
 c000348:	e0bffd17 	ldw	r2,-12(fp)
 c00034c:	108001d0 	cmplti	r2,r2,7
 c000350:	103fd71e 	bne	r2,zero,c0002b0 <__alt_data_end+0xfc0002b0>
        table->totalChance += chances[i];
        table->cumulativeChances[i] =
            table->cumulativeChances[i - 1] + chances[i];
    }

    assert(table->cumulativeChances[e_TETRIS_BLOCK_TYPE_S_REVERSE] ==
 c000354:	e0bffe17 	ldw	r2,-8(fp)
 c000358:	10c00717 	ldw	r3,28(r2)
 c00035c:	e0bffe17 	ldw	r2,-8(fp)
 c000360:	10800017 	ldw	r2,0(r2)
 c000364:	18800826 	beq	r3,r2,c000388 <TetrisInitializeChanceTable+0x11c>
 c000368:	01c300b4 	movhi	r7,3074
 c00036c:	39e71004 	addi	r7,r7,-25536
 c000370:	018300b4 	movhi	r6,3074
 c000374:	31a7ec04 	addi	r6,r6,-24656
 c000378:	01402b84 	movi	r5,174
 c00037c:	010300b4 	movhi	r4,3074
 c000380:	21272404 	addi	r4,r4,-25456
 c000384:	c005bb80 	call	c005bb8 <__assert_func>
           table->totalChance);
}
 c000388:	0001883a 	nop
 c00038c:	e037883a 	mov	sp,fp
 c000390:	dfc00117 	ldw	ra,4(sp)
 c000394:	df000017 	ldw	fp,0(sp)
 c000398:	dec00204 	addi	sp,sp,8
 c00039c:	f800283a 	ret

0c0003a0 <TetrisGetRandomTetrisBlock>:

int TetrisGetRandomTetrisBlock(TetrisGameState* givenState){
 c0003a0:	defffa04 	addi	sp,sp,-24
 c0003a4:	dfc00515 	stw	ra,20(sp)
 c0003a8:	df000415 	stw	fp,16(sp)
 c0003ac:	df000404 	addi	fp,sp,16
 c0003b0:	e13fff15 	stw	r4,-4(fp)
    assert(e_TETRIS_BLOCK_TYPE_O == 0);

    TetrisBlockChanceTable* chanceTable =
        &givenState->blockChanceTables[givenState->difficulty];
 c0003b4:	e0bfff17 	ldw	r2,-4(fp)
 c0003b8:	10801817 	ldw	r2,96(r2)
}

int TetrisGetRandomTetrisBlock(TetrisGameState* givenState){
    assert(e_TETRIS_BLOCK_TYPE_O == 0);

    TetrisBlockChanceTable* chanceTable =
 c0003bc:	1004917a 	slli	r2,r2,5
 c0003c0:	10801904 	addi	r2,r2,100
 c0003c4:	e0ffff17 	ldw	r3,-4(fp)
 c0003c8:	1885883a 	add	r2,r3,r2
 c0003cc:	e0bffd15 	stw	r2,-12(fp)
        &givenState->blockChanceTables[givenState->difficulty];

    int rndValue = rand() % chanceTable->totalChance;
 c0003d0:	c0067840 	call	c006784 <rand>
 c0003d4:	1007883a 	mov	r3,r2
 c0003d8:	e0bffd17 	ldw	r2,-12(fp)
 c0003dc:	10800017 	ldw	r2,0(r2)
 c0003e0:	100b883a 	mov	r5,r2
 c0003e4:	1809883a 	mov	r4,r3
 c0003e8:	c005a600 	call	c005a60 <__modsi3>
 c0003ec:	e0bffe15 	stw	r2,-8(fp)

    for (int i = e_TETRIS_BLOCK_TYPE_O; i < e_TETRIS_BLOCK_TYPE_COUNT; ++i)
 c0003f0:	e03ffc15 	stw	zero,-16(fp)
 c0003f4:	00000e06 	br	c000430 <TetrisGetRandomTetrisBlock+0x90>
    {
        if (chanceTable->cumulativeChances[i] >= rndValue)
 c0003f8:	e0fffd17 	ldw	r3,-12(fp)
 c0003fc:	e0bffc17 	ldw	r2,-16(fp)
 c000400:	10800044 	addi	r2,r2,1
 c000404:	1085883a 	add	r2,r2,r2
 c000408:	1085883a 	add	r2,r2,r2
 c00040c:	1885883a 	add	r2,r3,r2
 c000410:	10c00017 	ldw	r3,0(r2)
 c000414:	e0bffe17 	ldw	r2,-8(fp)
 c000418:	18800216 	blt	r3,r2,c000424 <TetrisGetRandomTetrisBlock+0x84>
        {
            return i;
 c00041c:	e0bffc17 	ldw	r2,-16(fp)
 c000420:	00001506 	br	c000478 <TetrisGetRandomTetrisBlock+0xd8>
    TetrisBlockChanceTable* chanceTable =
        &givenState->blockChanceTables[givenState->difficulty];

    int rndValue = rand() % chanceTable->totalChance;

    for (int i = e_TETRIS_BLOCK_TYPE_O; i < e_TETRIS_BLOCK_TYPE_COUNT; ++i)
 c000424:	e0bffc17 	ldw	r2,-16(fp)
 c000428:	10800044 	addi	r2,r2,1
 c00042c:	e0bffc15 	stw	r2,-16(fp)
 c000430:	e0bffc17 	ldw	r2,-16(fp)
 c000434:	108001d0 	cmplti	r2,r2,7
 c000438:	103fef1e 	bne	r2,zero,c0003f8 <__alt_data_end+0xfc0003f8>
        {
            return i;
        }
    }

	printf("%d, %d",rndValue, chanceTable->totalChance);
 c00043c:	e0bffd17 	ldw	r2,-12(fp)
 c000440:	10800017 	ldw	r2,0(r2)
 c000444:	100d883a 	mov	r6,r2
 c000448:	e17ffe17 	ldw	r5,-8(fp)
 c00044c:	010300b4 	movhi	r4,3074
 c000450:	21272704 	addi	r4,r4,-25444
 c000454:	c00663c0 	call	c00663c <printf>
    assert(0);
 c000458:	01c300b4 	movhi	r7,3074
 c00045c:	39e72904 	addi	r7,r7,-25436
 c000460:	018300b4 	movhi	r6,3074
 c000464:	31a7f304 	addi	r6,r6,-24628
 c000468:	01403084 	movi	r5,194
 c00046c:	010300b4 	movhi	r4,3074
 c000470:	21272404 	addi	r4,r4,-25456
 c000474:	c005bb80 	call	c005bb8 <__assert_func>
    return e_TETRIS_BLOCK_TYPE_O;
}
 c000478:	e037883a 	mov	sp,fp
 c00047c:	dfc00117 	ldw	ra,4(sp)
 c000480:	df000017 	ldw	fp,0(sp)
 c000484:	dec00204 	addi	sp,sp,8
 c000488:	f800283a 	ret

0c00048c <TetrisInitializeBlockChanceTables>:

void TetrisInitializeBlockChanceTables(TetrisGameState* givenState) {
 c00048c:	deffe804 	addi	sp,sp,-96
 c000490:	dfc01715 	stw	ra,92(sp)
 c000494:	df001615 	stw	fp,88(sp)
 c000498:	df001604 	addi	fp,sp,88
 c00049c:	e13fff15 	stw	r4,-4(fp)
    {
        int chances[e_TETRIS_BLOCK_TYPE_COUNT];

        chances[e_TETRIS_BLOCK_TYPE_O] = 10;
 c0004a0:	00800284 	movi	r2,10
 c0004a4:	e0bfea15 	stw	r2,-88(fp)
        chances[e_TETRIS_BLOCK_TYPE_T] = 10;
 c0004a8:	00800284 	movi	r2,10
 c0004ac:	e0bfeb15 	stw	r2,-84(fp)
        chances[e_TETRIS_BLOCK_TYPE_I] = 10;
 c0004b0:	00800284 	movi	r2,10
 c0004b4:	e0bfec15 	stw	r2,-80(fp)
        chances[e_TETRIS_BLOCK_TYPE_J] = 10;
 c0004b8:	00800284 	movi	r2,10
 c0004bc:	e0bfed15 	stw	r2,-76(fp)
        chances[e_TETRIS_BLOCK_TYPE_L] = 10;
 c0004c0:	00800284 	movi	r2,10
 c0004c4:	e0bfee15 	stw	r2,-72(fp)
        chances[e_TETRIS_BLOCK_TYPE_S] = 10;
 c0004c8:	00800284 	movi	r2,10
 c0004cc:	e0bfef15 	stw	r2,-68(fp)
        chances[e_TETRIS_BLOCK_TYPE_S_REVERSE] = 10;
 c0004d0:	00800284 	movi	r2,10
 c0004d4:	e0bff015 	stw	r2,-64(fp)

        TetrisInitializeChanceTable(
 c0004d8:	e0bfff17 	ldw	r2,-4(fp)
 c0004dc:	10801904 	addi	r2,r2,100
 c0004e0:	e17fea04 	addi	r5,fp,-88
 c0004e4:	1009883a 	mov	r4,r2
 c0004e8:	c00026c0 	call	c00026c <TetrisInitializeChanceTable>
    }

    {
        int chances[e_TETRIS_BLOCK_TYPE_COUNT];

        chances[e_TETRIS_BLOCK_TYPE_O] = 20;
 c0004ec:	00800504 	movi	r2,20
 c0004f0:	e0bff115 	stw	r2,-60(fp)
        chances[e_TETRIS_BLOCK_TYPE_T] = 15;
 c0004f4:	008003c4 	movi	r2,15
 c0004f8:	e0bff215 	stw	r2,-56(fp)
        chances[e_TETRIS_BLOCK_TYPE_I] = 10;
 c0004fc:	00800284 	movi	r2,10
 c000500:	e0bff315 	stw	r2,-52(fp)
        chances[e_TETRIS_BLOCK_TYPE_J] = 20;
 c000504:	00800504 	movi	r2,20
 c000508:	e0bff415 	stw	r2,-48(fp)
        chances[e_TETRIS_BLOCK_TYPE_L] = 20;
 c00050c:	00800504 	movi	r2,20
 c000510:	e0bff515 	stw	r2,-44(fp)
        chances[e_TETRIS_BLOCK_TYPE_S] = 22;
 c000514:	00800584 	movi	r2,22
 c000518:	e0bff615 	stw	r2,-40(fp)
        chances[e_TETRIS_BLOCK_TYPE_S_REVERSE] = 22;
 c00051c:	00800584 	movi	r2,22
 c000520:	e0bff715 	stw	r2,-36(fp)

        TetrisInitializeChanceTable(
 c000524:	e0bfff17 	ldw	r2,-4(fp)
 c000528:	10802104 	addi	r2,r2,132
 c00052c:	e0fff104 	addi	r3,fp,-60
 c000530:	180b883a 	mov	r5,r3
 c000534:	1009883a 	mov	r4,r2
 c000538:	c00026c0 	call	c00026c <TetrisInitializeChanceTable>
    }

    {
        int chances[e_TETRIS_BLOCK_TYPE_COUNT];

        chances[e_TETRIS_BLOCK_TYPE_O] = 30;
 c00053c:	00800784 	movi	r2,30
 c000540:	e0bff815 	stw	r2,-32(fp)
        chances[e_TETRIS_BLOCK_TYPE_T] = 25;
 c000544:	00800644 	movi	r2,25
 c000548:	e0bff915 	stw	r2,-28(fp)
        chances[e_TETRIS_BLOCK_TYPE_I] = 20;
 c00054c:	00800504 	movi	r2,20
 c000550:	e0bffa15 	stw	r2,-24(fp)
        chances[e_TETRIS_BLOCK_TYPE_J] = 35;
 c000554:	008008c4 	movi	r2,35
 c000558:	e0bffb15 	stw	r2,-20(fp)
        chances[e_TETRIS_BLOCK_TYPE_L] = 35;
 c00055c:	008008c4 	movi	r2,35
 c000560:	e0bffc15 	stw	r2,-16(fp)
        chances[e_TETRIS_BLOCK_TYPE_S] = 40;
 c000564:	00800a04 	movi	r2,40
 c000568:	e0bffd15 	stw	r2,-12(fp)
        chances[e_TETRIS_BLOCK_TYPE_S_REVERSE] = 40;
 c00056c:	00800a04 	movi	r2,40
 c000570:	e0bffe15 	stw	r2,-8(fp)

        TetrisInitializeChanceTable(
 c000574:	e0bfff17 	ldw	r2,-4(fp)
 c000578:	10802904 	addi	r2,r2,164
 c00057c:	e0fff804 	addi	r3,fp,-32
 c000580:	180b883a 	mov	r5,r3
 c000584:	1009883a 	mov	r4,r2
 c000588:	c00026c0 	call	c00026c <TetrisInitializeChanceTable>
            &givenState->blockChanceTables[e_TETRIS_DIFFICULTY_LEVEL_HARD], chances);
    }
}
 c00058c:	0001883a 	nop
 c000590:	e037883a 	mov	sp,fp
 c000594:	dfc00117 	ldw	ra,4(sp)
 c000598:	df000017 	ldw	fp,0(sp)
 c00059c:	dec00204 	addi	sp,sp,8
 c0005a0:	f800283a 	ret

0c0005a4 <TetrisInitialize>:

void TetrisInitialize(TetrisGameState* givenState, int width, int height, int givenX, int givenY, int difficult) {
 c0005a4:	defff704 	addi	sp,sp,-36
 c0005a8:	dfc00815 	stw	ra,32(sp)
 c0005ac:	df000715 	stw	fp,28(sp)
 c0005b0:	dc000615 	stw	r16,24(sp)
 c0005b4:	df000704 	addi	fp,sp,28
 c0005b8:	e13ffb15 	stw	r4,-20(fp)
 c0005bc:	e17ffc15 	stw	r5,-16(fp)
 c0005c0:	e1bffd15 	stw	r6,-12(fp)
 c0005c4:	e1fffe15 	stw	r7,-8(fp)
    int x, y;
    givenState->completedLines = 0;
 c0005c8:	e0bffb17 	ldw	r2,-20(fp)
 c0005cc:	10000415 	stw	zero,16(r2)
    givenState->dead = 0;
 c0005d0:	e0bffb17 	ldw	r2,-20(fp)
 c0005d4:	10000315 	stw	zero,12(r2)
    givenState->boardWidth = (width);
 c0005d8:	e0bffb17 	ldw	r2,-20(fp)
 c0005dc:	e0fffc17 	ldw	r3,-16(fp)
 c0005e0:	10c00115 	stw	r3,4(r2)
    givenState->boardHeight = (height+4);
 c0005e4:	e0bffd17 	ldw	r2,-12(fp)
 c0005e8:	10c00104 	addi	r3,r2,4
 c0005ec:	e0bffb17 	ldw	r2,-20(fp)
 c0005f0:	10c00215 	stw	r3,8(r2)
    givenState->gameX = givenX;
 c0005f4:	e0bffb17 	ldw	r2,-20(fp)
 c0005f8:	e0fffe17 	ldw	r3,-8(fp)
 c0005fc:	10c01315 	stw	r3,76(r2)
    givenState->gameY = givenY;
 c000600:	e0bffb17 	ldw	r2,-20(fp)
 c000604:	e0c00217 	ldw	r3,8(fp)
 c000608:	10c01415 	stw	r3,80(r2)
    givenState->board = (int**)malloc(sizeof(int*) * width);
 c00060c:	e0bffc17 	ldw	r2,-16(fp)
 c000610:	1085883a 	add	r2,r2,r2
 c000614:	1085883a 	add	r2,r2,r2
 c000618:	1009883a 	mov	r4,r2
 c00061c:	c005c900 	call	c005c90 <malloc>
 c000620:	1007883a 	mov	r3,r2
 c000624:	e0bffb17 	ldw	r2,-20(fp)
 c000628:	10c00015 	stw	r3,0(r2)
    if (difficult == 3) givenState->difficulty = e_TETRIS_DIFFICULTY_LEVEL_HARD;
 c00062c:	e0800317 	ldw	r2,12(fp)
 c000630:	108000d8 	cmpnei	r2,r2,3
 c000634:	1000031e 	bne	r2,zero,c000644 <TetrisInitialize+0xa0>
 c000638:	e0bffb17 	ldw	r2,-20(fp)
 c00063c:	00c00084 	movi	r3,2
 c000640:	10c01815 	stw	r3,96(r2)
    if (difficult == 2) givenState->difficulty = e_TETRIS_DIFFICULTY_LEVEL_MEDIUM;
 c000644:	e0800317 	ldw	r2,12(fp)
 c000648:	10800098 	cmpnei	r2,r2,2
 c00064c:	1000041e 	bne	r2,zero,c000660 <TetrisInitialize+0xbc>
 c000650:	e0bffb17 	ldw	r2,-20(fp)
 c000654:	00c00044 	movi	r3,1
 c000658:	10c01815 	stw	r3,96(r2)
 c00065c:	00000206 	br	c000668 <TetrisInitialize+0xc4>
    else givenState->difficulty = e_TETRIS_DIFFICULTY_LEVEL_EASY;
 c000660:	e0bffb17 	ldw	r2,-20(fp)
 c000664:	10001815 	stw	zero,96(r2)
    TetrisInitializeBlockChanceTables(givenState);
 c000668:	e13ffb17 	ldw	r4,-20(fp)
 c00066c:	c00048c0 	call	c00048c <TetrisInitializeBlockChanceTables>


    for (x = 0; x < givenState->boardWidth; x++) {
 c000670:	e03ff915 	stw	zero,-28(fp)
 c000674:	00002706 	br	c000714 <TetrisInitialize+0x170>
        givenState->board[x] = (int*)malloc(sizeof(int) * givenState->boardHeight);
 c000678:	e0bffb17 	ldw	r2,-20(fp)
 c00067c:	10c00017 	ldw	r3,0(r2)
 c000680:	e0bff917 	ldw	r2,-28(fp)
 c000684:	1085883a 	add	r2,r2,r2
 c000688:	1085883a 	add	r2,r2,r2
 c00068c:	18a1883a 	add	r16,r3,r2
 c000690:	e0bffb17 	ldw	r2,-20(fp)
 c000694:	10800217 	ldw	r2,8(r2)
 c000698:	1085883a 	add	r2,r2,r2
 c00069c:	1085883a 	add	r2,r2,r2
 c0006a0:	1009883a 	mov	r4,r2
 c0006a4:	c005c900 	call	c005c90 <malloc>
 c0006a8:	80800015 	stw	r2,0(r16)
        for (y = 0; y < givenState->boardHeight; y++) {
 c0006ac:	e03ffa15 	stw	zero,-24(fp)
 c0006b0:	00001106 	br	c0006f8 <TetrisInitialize+0x154>
            givenState->board[x][y] = givenState->boardColor;
 c0006b4:	e0bffb17 	ldw	r2,-20(fp)
 c0006b8:	10c00017 	ldw	r3,0(r2)
 c0006bc:	e0bff917 	ldw	r2,-28(fp)
 c0006c0:	1085883a 	add	r2,r2,r2
 c0006c4:	1085883a 	add	r2,r2,r2
 c0006c8:	1885883a 	add	r2,r3,r2
 c0006cc:	10c00017 	ldw	r3,0(r2)
 c0006d0:	e0bffa17 	ldw	r2,-24(fp)
 c0006d4:	1085883a 	add	r2,r2,r2
 c0006d8:	1085883a 	add	r2,r2,r2
 c0006dc:	1885883a 	add	r2,r3,r2
 c0006e0:	e0fffb17 	ldw	r3,-20(fp)
 c0006e4:	18c01517 	ldw	r3,84(r3)
 c0006e8:	10c00015 	stw	r3,0(r2)
    TetrisInitializeBlockChanceTables(givenState);


    for (x = 0; x < givenState->boardWidth; x++) {
        givenState->board[x] = (int*)malloc(sizeof(int) * givenState->boardHeight);
        for (y = 0; y < givenState->boardHeight; y++) {
 c0006ec:	e0bffa17 	ldw	r2,-24(fp)
 c0006f0:	10800044 	addi	r2,r2,1
 c0006f4:	e0bffa15 	stw	r2,-24(fp)
 c0006f8:	e0bffb17 	ldw	r2,-20(fp)
 c0006fc:	10800217 	ldw	r2,8(r2)
 c000700:	e0fffa17 	ldw	r3,-24(fp)
 c000704:	18bfeb16 	blt	r3,r2,c0006b4 <__alt_data_end+0xfc0006b4>
    if (difficult == 2) givenState->difficulty = e_TETRIS_DIFFICULTY_LEVEL_MEDIUM;
    else givenState->difficulty = e_TETRIS_DIFFICULTY_LEVEL_EASY;
    TetrisInitializeBlockChanceTables(givenState);


    for (x = 0; x < givenState->boardWidth; x++) {
 c000708:	e0bff917 	ldw	r2,-28(fp)
 c00070c:	10800044 	addi	r2,r2,1
 c000710:	e0bff915 	stw	r2,-28(fp)
 c000714:	e0bffb17 	ldw	r2,-20(fp)
 c000718:	10800117 	ldw	r2,4(r2)
 c00071c:	e0fff917 	ldw	r3,-28(fp)
 c000720:	18bfd516 	blt	r3,r2,c000678 <__alt_data_end+0xfc000678>
        givenState->board[x] = (int*)malloc(sizeof(int) * givenState->boardHeight);
        for (y = 0; y < givenState->boardHeight; y++) {
            givenState->board[x][y] = givenState->boardColor;
        }
    }
    TetrisPrintBoard(givenState);
 c000724:	e13ffb17 	ldw	r4,-20(fp)
 c000728:	c0015f80 	call	c0015f8 <TetrisPrintBoard>

    givenState->pause = 0;
 c00072c:	e0bffb17 	ldw	r2,-20(fp)
 c000730:	10001215 	stw	zero,72(r2)
}
 c000734:	0001883a 	nop
 c000738:	e6ffff04 	addi	sp,fp,-4
 c00073c:	dfc00217 	ldw	ra,8(sp)
 c000740:	df000117 	ldw	fp,4(sp)
 c000744:	dc000017 	ldw	r16,0(sp)
 c000748:	dec00304 	addi	sp,sp,12
 c00074c:	f800283a 	ret

0c000750 <TetrisCleanup>:

void TetrisCleanup(TetrisGameState* givenState) {
 c000750:	defffc04 	addi	sp,sp,-16
 c000754:	df000315 	stw	fp,12(sp)
 c000758:	df000304 	addi	fp,sp,12
 c00075c:	e13fff15 	stw	r4,-4(fp)
    for (int x = 0; x < givenState->boardWidth; x++) {
 c000760:	e03ffd15 	stw	zero,-12(fp)
 c000764:	00001a06 	br	c0007d0 <TetrisCleanup+0x80>
    	for (int y = 0; y < givenState->boardHeight; y++) {
 c000768:	e03ffe15 	stw	zero,-8(fp)
 c00076c:	00001106 	br	c0007b4 <TetrisCleanup+0x64>
    		givenState->board[x][y] = givenState->boardColor;
 c000770:	e0bfff17 	ldw	r2,-4(fp)
 c000774:	10c00017 	ldw	r3,0(r2)
 c000778:	e0bffd17 	ldw	r2,-12(fp)
 c00077c:	1085883a 	add	r2,r2,r2
 c000780:	1085883a 	add	r2,r2,r2
 c000784:	1885883a 	add	r2,r3,r2
 c000788:	10c00017 	ldw	r3,0(r2)
 c00078c:	e0bffe17 	ldw	r2,-8(fp)
 c000790:	1085883a 	add	r2,r2,r2
 c000794:	1085883a 	add	r2,r2,r2
 c000798:	1885883a 	add	r2,r3,r2
 c00079c:	e0ffff17 	ldw	r3,-4(fp)
 c0007a0:	18c01517 	ldw	r3,84(r3)
 c0007a4:	10c00015 	stw	r3,0(r2)
    givenState->pause = 0;
}

void TetrisCleanup(TetrisGameState* givenState) {
    for (int x = 0; x < givenState->boardWidth; x++) {
    	for (int y = 0; y < givenState->boardHeight; y++) {
 c0007a8:	e0bffe17 	ldw	r2,-8(fp)
 c0007ac:	10800044 	addi	r2,r2,1
 c0007b0:	e0bffe15 	stw	r2,-8(fp)
 c0007b4:	e0bfff17 	ldw	r2,-4(fp)
 c0007b8:	10800217 	ldw	r2,8(r2)
 c0007bc:	e0fffe17 	ldw	r3,-8(fp)
 c0007c0:	18bfeb16 	blt	r3,r2,c000770 <__alt_data_end+0xfc000770>

    givenState->pause = 0;
}

void TetrisCleanup(TetrisGameState* givenState) {
    for (int x = 0; x < givenState->boardWidth; x++) {
 c0007c4:	e0bffd17 	ldw	r2,-12(fp)
 c0007c8:	10800044 	addi	r2,r2,1
 c0007cc:	e0bffd15 	stw	r2,-12(fp)
 c0007d0:	e0bfff17 	ldw	r2,-4(fp)
 c0007d4:	10800117 	ldw	r2,4(r2)
 c0007d8:	e0fffd17 	ldw	r3,-12(fp)
 c0007dc:	18bfe216 	blt	r3,r2,c000768 <__alt_data_end+0xfc000768>
    		givenState->board[x][y] = givenState->boardColor;
    	}
        //free(givenState->board[x]);
    }
    //free(givenState->board);
}
 c0007e0:	0001883a 	nop
 c0007e4:	e037883a 	mov	sp,fp
 c0007e8:	df000017 	ldw	fp,0(sp)
 c0007ec:	dec00104 	addi	sp,sp,4
 c0007f0:	f800283a 	ret

0c0007f4 <TetrisCheckCollision>:


int TetrisCheckCollision(TetrisGameState* givenState) {
 c0007f4:	deffee04 	addi	sp,sp,-72
 c0007f8:	dfc01115 	stw	ra,68(sp)
 c0007fc:	df001015 	stw	fp,64(sp)
 c000800:	df001004 	addi	fp,sp,64
 c000804:	e13fff15 	stw	r4,-4(fp)
    int x, y, X, Y;

    TetrisBlock activeBlock = givenState->activeBlock;
 c000808:	e0bfff17 	ldw	r2,-4(fp)
 c00080c:	10c00517 	ldw	r3,20(r2)
 c000810:	e0fff415 	stw	r3,-48(fp)
 c000814:	10c00617 	ldw	r3,24(r2)
 c000818:	e0fff515 	stw	r3,-44(fp)
 c00081c:	10c00717 	ldw	r3,28(r2)
 c000820:	e0fff615 	stw	r3,-40(fp)
 c000824:	10c00817 	ldw	r3,32(r2)
 c000828:	e0fff715 	stw	r3,-36(fp)
 c00082c:	10c00917 	ldw	r3,36(r2)
 c000830:	e0fff815 	stw	r3,-32(fp)
 c000834:	10c00a17 	ldw	r3,40(r2)
 c000838:	e0fff915 	stw	r3,-28(fp)
 c00083c:	10c00b17 	ldw	r3,44(r2)
 c000840:	e0fffa15 	stw	r3,-24(fp)
 c000844:	10c00c17 	ldw	r3,48(r2)
 c000848:	e0fffb15 	stw	r3,-20(fp)
 c00084c:	10c00d17 	ldw	r3,52(r2)
 c000850:	e0fffc15 	stw	r3,-16(fp)
 c000854:	10c00e17 	ldw	r3,56(r2)
 c000858:	e0fffd15 	stw	r3,-12(fp)
 c00085c:	10800f17 	ldw	r2,60(r2)
 c000860:	e0bffe15 	stw	r2,-8(fp)

    for (x = 0; x < activeBlock.width; x++) {
 c000864:	e03ff015 	stw	zero,-64(fp)
 c000868:	00004a06 	br	c000994 <TetrisCheckCollision+0x1a0>
        for (y = 0; y < activeBlock.height; y++) {
 c00086c:	e03ff115 	stw	zero,-60(fp)
 c000870:	00004206 	br	c00097c <TetrisCheckCollision+0x188>
            X = givenState->activeBlockX + x;
 c000874:	e0bfff17 	ldw	r2,-4(fp)
 c000878:	10c01017 	ldw	r3,64(r2)
 c00087c:	e0bff017 	ldw	r2,-64(fp)
 c000880:	1885883a 	add	r2,r3,r2
 c000884:	e0bff215 	stw	r2,-56(fp)
            Y = givenState->activeBlockY + y;
 c000888:	e0bfff17 	ldw	r2,-4(fp)
 c00088c:	10c01117 	ldw	r3,68(r2)
 c000890:	e0bff117 	ldw	r2,-60(fp)
 c000894:	1885883a 	add	r2,r3,r2
 c000898:	e0bff315 	stw	r2,-52(fp)

            if (X < 0 || X >= givenState->boardWidth) return 1;
 c00089c:	e0bff217 	ldw	r2,-56(fp)
 c0008a0:	10000416 	blt	r2,zero,c0008b4 <TetrisCheckCollision+0xc0>
 c0008a4:	e0bfff17 	ldw	r2,-4(fp)
 c0008a8:	10800117 	ldw	r2,4(r2)
 c0008ac:	e0fff217 	ldw	r3,-56(fp)
 c0008b0:	18800216 	blt	r3,r2,c0008bc <TetrisCheckCollision+0xc8>
 c0008b4:	00800044 	movi	r2,1
 c0008b8:	00003a06 	br	c0009a4 <TetrisCheckCollision+0x1b0>

            if (activeBlock.data[y][x] != ' ') {
 c0008bc:	e0bff117 	ldw	r2,-60(fp)
 c0008c0:	01400144 	movi	r5,5
 c0008c4:	1009883a 	mov	r4,r2
 c0008c8:	c005b900 	call	c005b90 <__mulsi3>
 c0008cc:	e13ff004 	addi	r4,fp,-64
 c0008d0:	2087883a 	add	r3,r4,r2
 c0008d4:	e0bff017 	ldw	r2,-64(fp)
 c0008d8:	1885883a 	add	r2,r3,r2
 c0008dc:	10800704 	addi	r2,r2,28
 c0008e0:	10800003 	ldbu	r2,0(r2)
 c0008e4:	10803fcc 	andi	r2,r2,255
 c0008e8:	1080201c 	xori	r2,r2,128
 c0008ec:	10bfe004 	addi	r2,r2,-128
 c0008f0:	10800820 	cmpeqi	r2,r2,32
 c0008f4:	10001e1e 	bne	r2,zero,c000970 <TetrisCheckCollision+0x17c>
                if ((Y >= givenState->boardHeight) ||
 c0008f8:	e0bfff17 	ldw	r2,-4(fp)
 c0008fc:	10800217 	ldw	r2,8(r2)
 c000900:	e0fff317 	ldw	r3,-52(fp)
 c000904:	1880180e 	bge	r3,r2,c000968 <TetrisCheckCollision+0x174>
 c000908:	e0bff217 	ldw	r2,-56(fp)
 c00090c:	10001816 	blt	r2,zero,c000970 <TetrisCheckCollision+0x17c>
                    (X >= 0 && X < givenState->boardWidth && Y >= 3 &&
 c000910:	e0bfff17 	ldw	r2,-4(fp)
 c000914:	10800117 	ldw	r2,4(r2)
 c000918:	e0fff217 	ldw	r3,-56(fp)
 c00091c:	1880140e 	bge	r3,r2,c000970 <TetrisCheckCollision+0x17c>
 c000920:	e0bff317 	ldw	r2,-52(fp)
 c000924:	108000d0 	cmplti	r2,r2,3
 c000928:	1000111e 	bne	r2,zero,c000970 <TetrisCheckCollision+0x17c>
						givenState->board[X][Y] != givenState->boardColor)) {
 c00092c:	e0bfff17 	ldw	r2,-4(fp)
 c000930:	10c00017 	ldw	r3,0(r2)
 c000934:	e0bff217 	ldw	r2,-56(fp)
 c000938:	1085883a 	add	r2,r2,r2
 c00093c:	1085883a 	add	r2,r2,r2
 c000940:	1885883a 	add	r2,r3,r2
 c000944:	10c00017 	ldw	r3,0(r2)
 c000948:	e0bff317 	ldw	r2,-52(fp)
 c00094c:	1085883a 	add	r2,r2,r2
 c000950:	1085883a 	add	r2,r2,r2
 c000954:	1885883a 	add	r2,r3,r2
 c000958:	10c00017 	ldw	r3,0(r2)
 c00095c:	e0bfff17 	ldw	r2,-4(fp)
 c000960:	10801517 	ldw	r2,84(r2)

            if (X < 0 || X >= givenState->boardWidth) return 1;

            if (activeBlock.data[y][x] != ' ') {
                if ((Y >= givenState->boardHeight) ||
                    (X >= 0 && X < givenState->boardWidth && Y >= 3 &&
 c000964:	18800226 	beq	r3,r2,c000970 <TetrisCheckCollision+0x17c>
						givenState->board[X][Y] != givenState->boardColor)) {
                    return 1;
 c000968:	00800044 	movi	r2,1
 c00096c:	00000d06 	br	c0009a4 <TetrisCheckCollision+0x1b0>
    int x, y, X, Y;

    TetrisBlock activeBlock = givenState->activeBlock;

    for (x = 0; x < activeBlock.width; x++) {
        for (y = 0; y < activeBlock.height; y++) {
 c000970:	e0bff117 	ldw	r2,-60(fp)
 c000974:	10800044 	addi	r2,r2,1
 c000978:	e0bff115 	stw	r2,-60(fp)
 c00097c:	e0bff617 	ldw	r2,-40(fp)
 c000980:	e0fff117 	ldw	r3,-60(fp)
 c000984:	18bfbb16 	blt	r3,r2,c000874 <__alt_data_end+0xfc000874>
int TetrisCheckCollision(TetrisGameState* givenState) {
    int x, y, X, Y;

    TetrisBlock activeBlock = givenState->activeBlock;

    for (x = 0; x < activeBlock.width; x++) {
 c000988:	e0bff017 	ldw	r2,-64(fp)
 c00098c:	10800044 	addi	r2,r2,1
 c000990:	e0bff015 	stw	r2,-64(fp)
 c000994:	e0bff517 	ldw	r2,-44(fp)
 c000998:	e0fff017 	ldw	r3,-64(fp)
 c00099c:	18bfb316 	blt	r3,r2,c00086c <__alt_data_end+0xfc00086c>
                }
            }
        }
    }

    return 0;
 c0009a0:	0005883a 	mov	r2,zero
}
 c0009a4:	e037883a 	mov	sp,fp
 c0009a8:	dfc00117 	ldw	ra,4(sp)
 c0009ac:	df000017 	ldw	fp,0(sp)
 c0009b0:	dec00204 	addi	sp,sp,8
 c0009b4:	f800283a 	ret

0c0009b8 <TetrisCreateBlock>:

void TetrisCreateBlock(TetrisGameState* givenState) {
 c0009b8:	deffeb04 	addi	sp,sp,-84
 c0009bc:	dfc01415 	stw	ra,80(sp)
 c0009c0:	df001315 	stw	fp,76(sp)
 c0009c4:	dc401215 	stw	r17,72(sp)
 c0009c8:	dc001115 	stw	r16,68(sp)
 c0009cc:	df001304 	addi	fp,sp,76
 c0009d0:	e13ffd15 	stw	r4,-12(fp)
    givenState->activeBlock = tetrisBlocks[TetrisGetRandomTetrisBlock(givenState)];
 c0009d4:	e13ffd17 	ldw	r4,-12(fp)
 c0009d8:	c0003a00 	call	c0003a0 <TetrisGetRandomTetrisBlock>
 c0009dc:	e43ffd17 	ldw	r16,-12(fp)
 c0009e0:	044300b4 	movhi	r17,3074
 c0009e4:	8c66c304 	addi	r17,r17,-25844
 c0009e8:	01400b04 	movi	r5,44
 c0009ec:	1009883a 	mov	r4,r2
 c0009f0:	c005b900 	call	c005b90 <__mulsi3>
 c0009f4:	8885883a 	add	r2,r17,r2
 c0009f8:	10c00017 	ldw	r3,0(r2)
 c0009fc:	80c00515 	stw	r3,20(r16)
 c000a00:	10c00117 	ldw	r3,4(r2)
 c000a04:	80c00615 	stw	r3,24(r16)
 c000a08:	10c00217 	ldw	r3,8(r2)
 c000a0c:	80c00715 	stw	r3,28(r16)
 c000a10:	10c00317 	ldw	r3,12(r2)
 c000a14:	80c00815 	stw	r3,32(r16)
 c000a18:	10c00417 	ldw	r3,16(r2)
 c000a1c:	80c00915 	stw	r3,36(r16)
 c000a20:	10c00517 	ldw	r3,20(r2)
 c000a24:	80c00a15 	stw	r3,40(r16)
 c000a28:	10c00617 	ldw	r3,24(r2)
 c000a2c:	80c00b15 	stw	r3,44(r16)
 c000a30:	10c00717 	ldw	r3,28(r2)
 c000a34:	80c00c15 	stw	r3,48(r16)
 c000a38:	10c00817 	ldw	r3,32(r2)
 c000a3c:	80c00d15 	stw	r3,52(r16)
 c000a40:	10c00917 	ldw	r3,36(r2)
 c000a44:	80c00e15 	stw	r3,56(r16)
 c000a48:	10800a17 	ldw	r2,40(r2)
 c000a4c:	80800f15 	stw	r2,60(r16)

    givenState->activeBlockX =
        (givenState->boardWidth / 2) - (givenState->activeBlock.width / 2);
 c000a50:	e0bffd17 	ldw	r2,-12(fp)
 c000a54:	10800117 	ldw	r2,4(r2)
 c000a58:	1006d7fa 	srli	r3,r2,31
 c000a5c:	1885883a 	add	r2,r3,r2
 c000a60:	1005d07a 	srai	r2,r2,1
 c000a64:	1009883a 	mov	r4,r2
 c000a68:	e0bffd17 	ldw	r2,-12(fp)
 c000a6c:	10800617 	ldw	r2,24(r2)
 c000a70:	1006d7fa 	srli	r3,r2,31
 c000a74:	1885883a 	add	r2,r3,r2
 c000a78:	1005d07a 	srai	r2,r2,1
 c000a7c:	2087c83a 	sub	r3,r4,r2
}

void TetrisCreateBlock(TetrisGameState* givenState) {
    givenState->activeBlock = tetrisBlocks[TetrisGetRandomTetrisBlock(givenState)];

    givenState->activeBlockX =
 c000a80:	e0bffd17 	ldw	r2,-12(fp)
 c000a84:	10c01015 	stw	r3,64(r2)
        (givenState->boardWidth / 2) - (givenState->activeBlock.width / 2);

    givenState->activeBlockY = 4-givenState->activeBlock.height;
 c000a88:	e0bffd17 	ldw	r2,-12(fp)
 c000a8c:	10800717 	ldw	r2,28(r2)
 c000a90:	00c00104 	movi	r3,4
 c000a94:	1887c83a 	sub	r3,r3,r2
 c000a98:	e0bffd17 	ldw	r2,-12(fp)
 c000a9c:	10c01115 	stw	r3,68(r2)

    givenState->activeBlock.color = givenState->nextColor; //current block's color
 c000aa0:	e0bffd17 	ldw	r2,-12(fp)
 c000aa4:	10c01717 	ldw	r3,92(r2)
 c000aa8:	e0bffd17 	ldw	r2,-12(fp)
 c000aac:	10c00f15 	stw	r3,60(r2)
    givenState->nextBlock = TetrisGetRandomTetrisBlock(givenState); //next block's color
 c000ab0:	e13ffd17 	ldw	r4,-12(fp)
 c000ab4:	c0003a00 	call	c0003a0 <TetrisGetRandomTetrisBlock>
 c000ab8:	1007883a 	mov	r3,r2
 c000abc:	e0bffd17 	ldw	r2,-12(fp)
 c000ac0:	10c01615 	stw	r3,88(r2)
    int color = (rand() % 15)+1;
 c000ac4:	c0067840 	call	c006784 <rand>
 c000ac8:	014003c4 	movi	r5,15
 c000acc:	1009883a 	mov	r4,r2
 c000ad0:	c005a600 	call	c005a60 <__modsi3>
 c000ad4:	10800044 	addi	r2,r2,1
 c000ad8:	e0bfee15 	stw	r2,-72(fp)
    if (color == givenState->boardColor || color == nextColor) color = (rand() % 15)+1;
 c000adc:	e0bffd17 	ldw	r2,-12(fp)
 c000ae0:	10c01517 	ldw	r3,84(r2)
 c000ae4:	e0bfee17 	ldw	r2,-72(fp)
 c000ae8:	18800326 	beq	r3,r2,c000af8 <TetrisCreateBlock+0x140>
 c000aec:	d0a7aa17 	ldw	r2,-24920(gp)
 c000af0:	e0ffee17 	ldw	r3,-72(fp)
 c000af4:	1880061e 	bne	r3,r2,c000b10 <TetrisCreateBlock+0x158>
 c000af8:	c0067840 	call	c006784 <rand>
 c000afc:	014003c4 	movi	r5,15
 c000b00:	1009883a 	mov	r4,r2
 c000b04:	c005a600 	call	c005a60 <__modsi3>
 c000b08:	10800044 	addi	r2,r2,1
 c000b0c:	e0bfee15 	stw	r2,-72(fp)
    givenState->nextColor = color; //next color
 c000b10:	e0bffd17 	ldw	r2,-12(fp)
 c000b14:	e0ffee17 	ldw	r3,-72(fp)
 c000b18:	10c01715 	stw	r3,92(r2)
  	for (int i = 0; i < rand() % 3; i++) {
 c000b1c:	e03fef15 	stw	zero,-68(fp)
 c000b20:	00000506 	br	c000b38 <TetrisCreateBlock+0x180>
  		TetrisRotateBlock(givenState); //roate block
 c000b24:	e13ffd17 	ldw	r4,-12(fp)
 c000b28:	c000eec0 	call	c000eec <TetrisRotateBlock>
    givenState->activeBlock.color = givenState->nextColor; //current block's color
    givenState->nextBlock = TetrisGetRandomTetrisBlock(givenState); //next block's color
    int color = (rand() % 15)+1;
    if (color == givenState->boardColor || color == nextColor) color = (rand() % 15)+1;
    givenState->nextColor = color; //next color
  	for (int i = 0; i < rand() % 3; i++) {
 c000b2c:	e0bfef17 	ldw	r2,-68(fp)
 c000b30:	10800044 	addi	r2,r2,1
 c000b34:	e0bfef15 	stw	r2,-68(fp)
 c000b38:	c0067840 	call	c006784 <rand>
 c000b3c:	014000c4 	movi	r5,3
 c000b40:	1009883a 	mov	r4,r2
 c000b44:	c005a600 	call	c005a60 <__modsi3>
 c000b48:	1007883a 	mov	r3,r2
 c000b4c:	e0bfef17 	ldw	r2,-68(fp)
 c000b50:	10fff416 	blt	r2,r3,c000b24 <__alt_data_end+0xfc000b24>
  		TetrisRotateBlock(givenState); //roate block
  	}
  	TetrisBlock previewBlock = tetrisBlocks[givenState->nextBlock]; //preview next block
 c000b54:	e0bffd17 	ldw	r2,-12(fp)
 c000b58:	10801617 	ldw	r2,88(r2)
 c000b5c:	040300b4 	movhi	r16,3074
 c000b60:	8426c304 	addi	r16,r16,-25844
 c000b64:	01400b04 	movi	r5,44
 c000b68:	1009883a 	mov	r4,r2
 c000b6c:	c005b900 	call	c005b90 <__mulsi3>
 c000b70:	8085883a 	add	r2,r16,r2
 c000b74:	10c00017 	ldw	r3,0(r2)
 c000b78:	e0fff215 	stw	r3,-56(fp)
 c000b7c:	10c00117 	ldw	r3,4(r2)
 c000b80:	e0fff315 	stw	r3,-52(fp)
 c000b84:	10c00217 	ldw	r3,8(r2)
 c000b88:	e0fff415 	stw	r3,-48(fp)
 c000b8c:	10c00317 	ldw	r3,12(r2)
 c000b90:	e0fff515 	stw	r3,-44(fp)
 c000b94:	10c00417 	ldw	r3,16(r2)
 c000b98:	e0fff615 	stw	r3,-40(fp)
 c000b9c:	10c00517 	ldw	r3,20(r2)
 c000ba0:	e0fff715 	stw	r3,-36(fp)
 c000ba4:	10c00617 	ldw	r3,24(r2)
 c000ba8:	e0fff815 	stw	r3,-32(fp)
 c000bac:	10c00717 	ldw	r3,28(r2)
 c000bb0:	e0fff915 	stw	r3,-28(fp)
 c000bb4:	10c00817 	ldw	r3,32(r2)
 c000bb8:	e0fffa15 	stw	r3,-24(fp)
 c000bbc:	10c00917 	ldw	r3,36(r2)
 c000bc0:	e0fffb15 	stw	r3,-20(fp)
 c000bc4:	10800a17 	ldw	r2,40(r2)
 c000bc8:	e0bffc15 	stw	r2,-16(fp)
	for (int x = 0; x < 9; x++) {
 c000bcc:	e03ff015 	stw	zero,-64(fp)
 c000bd0:	00004806 	br	c000cf4 <TetrisCreateBlock+0x33c>
		for (int y = 0; y < 9; y++) {
 c000bd4:	e03ff115 	stw	zero,-60(fp)
 c000bd8:	00004006 	br	c000cdc <TetrisCreateBlock+0x324>
			if ((x < previewBlock.width*2 &&  y < previewBlock.height*2) && previewBlock.data[y/2][x/2] != ' ') VGADrawColorBox(x+givenState->gameX-10, y+givenState->gameY, givenState->nextColor);
 c000bdc:	e0bff317 	ldw	r2,-52(fp)
 c000be0:	1085883a 	add	r2,r2,r2
 c000be4:	1007883a 	mov	r3,r2
 c000be8:	e0bff017 	ldw	r2,-64(fp)
 c000bec:	10c02a0e 	bge	r2,r3,c000c98 <TetrisCreateBlock+0x2e0>
 c000bf0:	e0bff417 	ldw	r2,-48(fp)
 c000bf4:	1085883a 	add	r2,r2,r2
 c000bf8:	1007883a 	mov	r3,r2
 c000bfc:	e0bff117 	ldw	r2,-60(fp)
 c000c00:	10c0250e 	bge	r2,r3,c000c98 <TetrisCreateBlock+0x2e0>
 c000c04:	e0bff117 	ldw	r2,-60(fp)
 c000c08:	1006d7fa 	srli	r3,r2,31
 c000c0c:	1885883a 	add	r2,r3,r2
 c000c10:	1005d07a 	srai	r2,r2,1
 c000c14:	1009883a 	mov	r4,r2
 c000c18:	e0bff017 	ldw	r2,-64(fp)
 c000c1c:	1006d7fa 	srli	r3,r2,31
 c000c20:	1885883a 	add	r2,r3,r2
 c000c24:	1005d07a 	srai	r2,r2,1
 c000c28:	1021883a 	mov	r16,r2
 c000c2c:	01400144 	movi	r5,5
 c000c30:	c005b900 	call	c005b90 <__mulsi3>
 c000c34:	e0ffee04 	addi	r3,fp,-72
 c000c38:	1885883a 	add	r2,r3,r2
 c000c3c:	1405883a 	add	r2,r2,r16
 c000c40:	10800704 	addi	r2,r2,28
 c000c44:	10800003 	ldbu	r2,0(r2)
 c000c48:	10803fcc 	andi	r2,r2,255
 c000c4c:	1080201c 	xori	r2,r2,128
 c000c50:	10bfe004 	addi	r2,r2,-128
 c000c54:	10800820 	cmpeqi	r2,r2,32
 c000c58:	10000f1e 	bne	r2,zero,c000c98 <TetrisCreateBlock+0x2e0>
 c000c5c:	e0bffd17 	ldw	r2,-12(fp)
 c000c60:	10c01317 	ldw	r3,76(r2)
 c000c64:	e0bff017 	ldw	r2,-64(fp)
 c000c68:	1885883a 	add	r2,r3,r2
 c000c6c:	113ffd84 	addi	r4,r2,-10
 c000c70:	e0bffd17 	ldw	r2,-12(fp)
 c000c74:	10c01417 	ldw	r3,80(r2)
 c000c78:	e0bff117 	ldw	r2,-60(fp)
 c000c7c:	1887883a 	add	r3,r3,r2
 c000c80:	e0bffd17 	ldw	r2,-12(fp)
 c000c84:	10801717 	ldw	r2,92(r2)
 c000c88:	100d883a 	mov	r6,r2
 c000c8c:	180b883a 	mov	r5,r3
 c000c90:	c0038440 	call	c003844 <VGADrawColorBox>
 c000c94:	00000e06 	br	c000cd0 <TetrisCreateBlock+0x318>
			else VGADrawColorBox(x+givenState->gameX-10, y+givenState->gameY, givenState->boardColor);
 c000c98:	e0bffd17 	ldw	r2,-12(fp)
 c000c9c:	10c01317 	ldw	r3,76(r2)
 c000ca0:	e0bff017 	ldw	r2,-64(fp)
 c000ca4:	1885883a 	add	r2,r3,r2
 c000ca8:	113ffd84 	addi	r4,r2,-10
 c000cac:	e0bffd17 	ldw	r2,-12(fp)
 c000cb0:	10c01417 	ldw	r3,80(r2)
 c000cb4:	e0bff117 	ldw	r2,-60(fp)
 c000cb8:	1887883a 	add	r3,r3,r2
 c000cbc:	e0bffd17 	ldw	r2,-12(fp)
 c000cc0:	10801517 	ldw	r2,84(r2)
 c000cc4:	100d883a 	mov	r6,r2
 c000cc8:	180b883a 	mov	r5,r3
 c000ccc:	c0038440 	call	c003844 <VGADrawColorBox>
  	for (int i = 0; i < rand() % 3; i++) {
  		TetrisRotateBlock(givenState); //roate block
  	}
  	TetrisBlock previewBlock = tetrisBlocks[givenState->nextBlock]; //preview next block
	for (int x = 0; x < 9; x++) {
		for (int y = 0; y < 9; y++) {
 c000cd0:	e0bff117 	ldw	r2,-60(fp)
 c000cd4:	10800044 	addi	r2,r2,1
 c000cd8:	e0bff115 	stw	r2,-60(fp)
 c000cdc:	e0bff117 	ldw	r2,-60(fp)
 c000ce0:	10800250 	cmplti	r2,r2,9
 c000ce4:	103fbd1e 	bne	r2,zero,c000bdc <__alt_data_end+0xfc000bdc>
    givenState->nextColor = color; //next color
  	for (int i = 0; i < rand() % 3; i++) {
  		TetrisRotateBlock(givenState); //roate block
  	}
  	TetrisBlock previewBlock = tetrisBlocks[givenState->nextBlock]; //preview next block
	for (int x = 0; x < 9; x++) {
 c000ce8:	e0bff017 	ldw	r2,-64(fp)
 c000cec:	10800044 	addi	r2,r2,1
 c000cf0:	e0bff015 	stw	r2,-64(fp)
 c000cf4:	e0bff017 	ldw	r2,-64(fp)
 c000cf8:	10800250 	cmplti	r2,r2,9
 c000cfc:	103fb51e 	bne	r2,zero,c000bd4 <__alt_data_end+0xfc000bd4>
			if ((x < previewBlock.width*2 &&  y < previewBlock.height*2) && previewBlock.data[y/2][x/2] != ' ') VGADrawColorBox(x+givenState->gameX-10, y+givenState->gameY, givenState->nextColor);
			else VGADrawColorBox(x+givenState->gameX-10, y+givenState->gameY, givenState->boardColor);
  		}
  	}

    if (TetrisCheckCollision(givenState)) {
 c000d00:	e13ffd17 	ldw	r4,-12(fp)
 c000d04:	c0007f40 	call	c0007f4 <TetrisCheckCollision>
 c000d08:	10001c26 	beq	r2,zero,c000d7c <TetrisCreateBlock+0x3c4>
        givenState->dead = 1;
 c000d0c:	e0bffd17 	ldw	r2,-12(fp)
 c000d10:	00c00044 	movi	r3,1
 c000d14:	10c00315 	stw	r3,12(r2)
		printf("[%d,%d] end game",givenState->gameX,givenState->gameY);
 c000d18:	e0bffd17 	ldw	r2,-12(fp)
 c000d1c:	10c01317 	ldw	r3,76(r2)
 c000d20:	e0bffd17 	ldw	r2,-12(fp)
 c000d24:	10801417 	ldw	r2,80(r2)
 c000d28:	100d883a 	mov	r6,r2
 c000d2c:	180b883a 	mov	r5,r3
 c000d30:	010300b4 	movhi	r4,3074
 c000d34:	21272a04 	addi	r4,r4,-25432
 c000d38:	c00663c0 	call	c00663c <printf>
		VGAwriteText(givenState->gameX-(strlen("GAME OVER")),(givenState->gameY+4+(givenState->boardHeight)),2,0,"GAME OVER");
 c000d3c:	e0bffd17 	ldw	r2,-12(fp)
 c000d40:	10801317 	ldw	r2,76(r2)
 c000d44:	113ffdc4 	addi	r4,r2,-9
 c000d48:	e0bffd17 	ldw	r2,-12(fp)
 c000d4c:	10801417 	ldw	r2,80(r2)
 c000d50:	10c00104 	addi	r3,r2,4
 c000d54:	e0bffd17 	ldw	r2,-12(fp)
 c000d58:	10800217 	ldw	r2,8(r2)
 c000d5c:	1887883a 	add	r3,r3,r2
 c000d60:	008300b4 	movhi	r2,3074
 c000d64:	10a72f04 	addi	r2,r2,-25412
 c000d68:	d8800015 	stw	r2,0(sp)
 c000d6c:	000f883a 	mov	r7,zero
 c000d70:	01800084 	movi	r6,2
 c000d74:	180b883a 	mov	r5,r3
 c000d78:	c0038b00 	call	c0038b0 <VGAwriteText>
    }
}
 c000d7c:	0001883a 	nop
 c000d80:	e6fffe04 	addi	sp,fp,-8
 c000d84:	dfc00317 	ldw	ra,12(sp)
 c000d88:	df000217 	ldw	fp,8(sp)
 c000d8c:	dc400117 	ldw	r17,4(sp)
 c000d90:	dc000017 	ldw	r16,0(sp)
 c000d94:	dec00404 	addi	sp,sp,16
 c000d98:	f800283a 	ret

0c000d9c <TetrisPrintBlock>:

void TetrisPrintBlock(TetrisGameState* givenState) {
 c000d9c:	defff004 	addi	sp,sp,-64
 c000da0:	dfc00f15 	stw	ra,60(sp)
 c000da4:	df000e15 	stw	fp,56(sp)
 c000da8:	df000e04 	addi	fp,sp,56
 c000dac:	e13fff15 	stw	r4,-4(fp)
    TetrisBlock activeBlock = givenState->activeBlock;
 c000db0:	e0bfff17 	ldw	r2,-4(fp)
 c000db4:	10c00517 	ldw	r3,20(r2)
 c000db8:	e0fff415 	stw	r3,-48(fp)
 c000dbc:	10c00617 	ldw	r3,24(r2)
 c000dc0:	e0fff515 	stw	r3,-44(fp)
 c000dc4:	10c00717 	ldw	r3,28(r2)
 c000dc8:	e0fff615 	stw	r3,-40(fp)
 c000dcc:	10c00817 	ldw	r3,32(r2)
 c000dd0:	e0fff715 	stw	r3,-36(fp)
 c000dd4:	10c00917 	ldw	r3,36(r2)
 c000dd8:	e0fff815 	stw	r3,-32(fp)
 c000ddc:	10c00a17 	ldw	r3,40(r2)
 c000de0:	e0fff915 	stw	r3,-28(fp)
 c000de4:	10c00b17 	ldw	r3,44(r2)
 c000de8:	e0fffa15 	stw	r3,-24(fp)
 c000dec:	10c00c17 	ldw	r3,48(r2)
 c000df0:	e0fffb15 	stw	r3,-20(fp)
 c000df4:	10c00d17 	ldw	r3,52(r2)
 c000df8:	e0fffc15 	stw	r3,-16(fp)
 c000dfc:	10c00e17 	ldw	r3,56(r2)
 c000e00:	e0fffd15 	stw	r3,-12(fp)
 c000e04:	10800f17 	ldw	r2,60(r2)
 c000e08:	e0bffe15 	stw	r2,-8(fp)

    int x, y;

    for (x = 0; x < activeBlock.width; x++) {
 c000e0c:	e03ff215 	stw	zero,-56(fp)
 c000e10:	00002d06 	br	c000ec8 <TetrisPrintBlock+0x12c>
        for (y = 0; y < activeBlock.height; y++) {
 c000e14:	e03ff315 	stw	zero,-52(fp)
 c000e18:	00002506 	br	c000eb0 <TetrisPrintBlock+0x114>
            if (activeBlock.data[y][x] != ' ') {
 c000e1c:	e0bff317 	ldw	r2,-52(fp)
 c000e20:	01400144 	movi	r5,5
 c000e24:	1009883a 	mov	r4,r2
 c000e28:	c005b900 	call	c005b90 <__mulsi3>
 c000e2c:	e13ff204 	addi	r4,fp,-56
 c000e30:	2087883a 	add	r3,r4,r2
 c000e34:	e0bff217 	ldw	r2,-56(fp)
 c000e38:	1885883a 	add	r2,r3,r2
 c000e3c:	10800504 	addi	r2,r2,20
 c000e40:	10800003 	ldbu	r2,0(r2)
 c000e44:	10803fcc 	andi	r2,r2,255
 c000e48:	1080201c 	xori	r2,r2,128
 c000e4c:	10bfe004 	addi	r2,r2,-128
 c000e50:	10800820 	cmpeqi	r2,r2,32
 c000e54:	1000131e 	bne	r2,zero,c000ea4 <TetrisPrintBlock+0x108>
				givenState->board[givenState->activeBlockX + x][givenState->activeBlockY + y] = activeBlock.color;
 c000e58:	e0bfff17 	ldw	r2,-4(fp)
 c000e5c:	10c00017 	ldw	r3,0(r2)
 c000e60:	e0bfff17 	ldw	r2,-4(fp)
 c000e64:	11001017 	ldw	r4,64(r2)
 c000e68:	e0bff217 	ldw	r2,-56(fp)
 c000e6c:	2085883a 	add	r2,r4,r2
 c000e70:	1085883a 	add	r2,r2,r2
 c000e74:	1085883a 	add	r2,r2,r2
 c000e78:	1885883a 	add	r2,r3,r2
 c000e7c:	10c00017 	ldw	r3,0(r2)
 c000e80:	e0bfff17 	ldw	r2,-4(fp)
 c000e84:	11001117 	ldw	r4,68(r2)
 c000e88:	e0bff317 	ldw	r2,-52(fp)
 c000e8c:	2085883a 	add	r2,r4,r2
 c000e90:	1085883a 	add	r2,r2,r2
 c000e94:	1085883a 	add	r2,r2,r2
 c000e98:	1885883a 	add	r2,r3,r2
 c000e9c:	e0fffe17 	ldw	r3,-8(fp)
 c000ea0:	10c00015 	stw	r3,0(r2)
    TetrisBlock activeBlock = givenState->activeBlock;

    int x, y;

    for (x = 0; x < activeBlock.width; x++) {
        for (y = 0; y < activeBlock.height; y++) {
 c000ea4:	e0bff317 	ldw	r2,-52(fp)
 c000ea8:	10800044 	addi	r2,r2,1
 c000eac:	e0bff315 	stw	r2,-52(fp)
 c000eb0:	e0bff617 	ldw	r2,-40(fp)
 c000eb4:	e0fff317 	ldw	r3,-52(fp)
 c000eb8:	18bfd816 	blt	r3,r2,c000e1c <__alt_data_end+0xfc000e1c>
void TetrisPrintBlock(TetrisGameState* givenState) {
    TetrisBlock activeBlock = givenState->activeBlock;

    int x, y;

    for (x = 0; x < activeBlock.width; x++) {
 c000ebc:	e0bff217 	ldw	r2,-56(fp)
 c000ec0:	10800044 	addi	r2,r2,1
 c000ec4:	e0bff215 	stw	r2,-56(fp)
 c000ec8:	e0bff517 	ldw	r2,-44(fp)
 c000ecc:	e0fff217 	ldw	r3,-56(fp)
 c000ed0:	18bfd016 	blt	r3,r2,c000e14 <__alt_data_end+0xfc000e14>
            if (activeBlock.data[y][x] != ' ') {
				givenState->board[givenState->activeBlockX + x][givenState->activeBlockY + y] = activeBlock.color;
            }
        }
    }
}
 c000ed4:	0001883a 	nop
 c000ed8:	e037883a 	mov	sp,fp
 c000edc:	dfc00117 	ldw	ra,4(sp)
 c000ee0:	df000017 	ldw	fp,0(sp)
 c000ee4:	dec00204 	addi	sp,sp,8
 c000ee8:	f800283a 	ret

0c000eec <TetrisRotateBlock>:

void TetrisRotateBlock(TetrisGameState* givenState) {
 c000eec:	deffe404 	addi	sp,sp,-112
 c000ef0:	dfc01b15 	stw	ra,108(sp)
 c000ef4:	df001a15 	stw	fp,104(sp)
 c000ef8:	dc001915 	stw	r16,100(sp)
 c000efc:	df001a04 	addi	fp,sp,104
 c000f00:	e13ffe15 	stw	r4,-8(fp)
    TetrisBlock b = givenState->activeBlock;
 c000f04:	e0bffe17 	ldw	r2,-8(fp)
 c000f08:	10c00517 	ldw	r3,20(r2)
 c000f0c:	e0ffe815 	stw	r3,-96(fp)
 c000f10:	10c00617 	ldw	r3,24(r2)
 c000f14:	e0ffe915 	stw	r3,-92(fp)
 c000f18:	10c00717 	ldw	r3,28(r2)
 c000f1c:	e0ffea15 	stw	r3,-88(fp)
 c000f20:	10c00817 	ldw	r3,32(r2)
 c000f24:	e0ffeb15 	stw	r3,-84(fp)
 c000f28:	10c00917 	ldw	r3,36(r2)
 c000f2c:	e0ffec15 	stw	r3,-80(fp)
 c000f30:	10c00a17 	ldw	r3,40(r2)
 c000f34:	e0ffed15 	stw	r3,-76(fp)
 c000f38:	10c00b17 	ldw	r3,44(r2)
 c000f3c:	e0ffee15 	stw	r3,-72(fp)
 c000f40:	10c00c17 	ldw	r3,48(r2)
 c000f44:	e0ffef15 	stw	r3,-68(fp)
 c000f48:	10c00d17 	ldw	r3,52(r2)
 c000f4c:	e0fff015 	stw	r3,-64(fp)
 c000f50:	10c00e17 	ldw	r3,56(r2)
 c000f54:	e0fff115 	stw	r3,-60(fp)
 c000f58:	10800f17 	ldw	r2,60(r2)
 c000f5c:	e0bff215 	stw	r2,-56(fp)
    TetrisBlock s = b;
 c000f60:	e0bfe817 	ldw	r2,-96(fp)
 c000f64:	e0bff315 	stw	r2,-52(fp)
 c000f68:	e0bfe917 	ldw	r2,-92(fp)
 c000f6c:	e0bff415 	stw	r2,-48(fp)
 c000f70:	e0bfea17 	ldw	r2,-88(fp)
 c000f74:	e0bff515 	stw	r2,-44(fp)
 c000f78:	e0bfeb17 	ldw	r2,-84(fp)
 c000f7c:	e0bff615 	stw	r2,-40(fp)
 c000f80:	e0bfec17 	ldw	r2,-80(fp)
 c000f84:	e0bff715 	stw	r2,-36(fp)
 c000f88:	e0bfed17 	ldw	r2,-76(fp)
 c000f8c:	e0bff815 	stw	r2,-32(fp)
 c000f90:	e0bfee17 	ldw	r2,-72(fp)
 c000f94:	e0bff915 	stw	r2,-28(fp)
 c000f98:	e0bfef17 	ldw	r2,-68(fp)
 c000f9c:	e0bffa15 	stw	r2,-24(fp)
 c000fa0:	e0bff017 	ldw	r2,-64(fp)
 c000fa4:	e0bffb15 	stw	r2,-20(fp)
 c000fa8:	e0bff117 	ldw	r2,-60(fp)
 c000fac:	e0bffc15 	stw	r2,-16(fp)
 c000fb0:	e0bff217 	ldw	r2,-56(fp)
 c000fb4:	e0bffd15 	stw	r2,-12(fp)

    int x, y;

    b.width = s.height;
 c000fb8:	e0bff517 	ldw	r2,-44(fp)
 c000fbc:	e0bfe915 	stw	r2,-92(fp)
    b.height = s.width;
 c000fc0:	e0bff417 	ldw	r2,-48(fp)
 c000fc4:	e0bfea15 	stw	r2,-88(fp)

    for (x = 0; x < s.width; x++) {
 c000fc8:	e03fe615 	stw	zero,-104(fp)
 c000fcc:	00002206 	br	c001058 <TetrisRotateBlock+0x16c>
        for (y = 0; y < s.height; y++) {
 c000fd0:	e03fe715 	stw	zero,-100(fp)
 c000fd4:	00001a06 	br	c001040 <TetrisRotateBlock+0x154>
            b.data[x][y] = s.data[s.height - y - 1][x];
 c000fd8:	e0fff517 	ldw	r3,-44(fp)
 c000fdc:	e0bfe717 	ldw	r2,-100(fp)
 c000fe0:	1885c83a 	sub	r2,r3,r2
 c000fe4:	10bfffc4 	addi	r2,r2,-1
 c000fe8:	01400144 	movi	r5,5
 c000fec:	1009883a 	mov	r4,r2
 c000ff0:	c005b900 	call	c005b90 <__mulsi3>
 c000ff4:	e13fe604 	addi	r4,fp,-104
 c000ff8:	2087883a 	add	r3,r4,r2
 c000ffc:	e0bfe617 	ldw	r2,-104(fp)
 c001000:	1885883a 	add	r2,r3,r2
 c001004:	10801004 	addi	r2,r2,64
 c001008:	14000003 	ldbu	r16,0(r2)
 c00100c:	e0bfe617 	ldw	r2,-104(fp)
 c001010:	01400144 	movi	r5,5
 c001014:	1009883a 	mov	r4,r2
 c001018:	c005b900 	call	c005b90 <__mulsi3>
 c00101c:	e13fe604 	addi	r4,fp,-104
 c001020:	2087883a 	add	r3,r4,r2
 c001024:	e0bfe717 	ldw	r2,-100(fp)
 c001028:	1885883a 	add	r2,r3,r2
 c00102c:	10800504 	addi	r2,r2,20
 c001030:	14000005 	stb	r16,0(r2)

    b.width = s.height;
    b.height = s.width;

    for (x = 0; x < s.width; x++) {
        for (y = 0; y < s.height; y++) {
 c001034:	e0bfe717 	ldw	r2,-100(fp)
 c001038:	10800044 	addi	r2,r2,1
 c00103c:	e0bfe715 	stw	r2,-100(fp)
 c001040:	e0bff517 	ldw	r2,-44(fp)
 c001044:	e0ffe717 	ldw	r3,-100(fp)
 c001048:	18bfe316 	blt	r3,r2,c000fd8 <__alt_data_end+0xfc000fd8>
    int x, y;

    b.width = s.height;
    b.height = s.width;

    for (x = 0; x < s.width; x++) {
 c00104c:	e0bfe617 	ldw	r2,-104(fp)
 c001050:	10800044 	addi	r2,r2,1
 c001054:	e0bfe615 	stw	r2,-104(fp)
 c001058:	e0bff417 	ldw	r2,-48(fp)
 c00105c:	e0ffe617 	ldw	r3,-104(fp)
 c001060:	18bfdb16 	blt	r3,r2,c000fd0 <__alt_data_end+0xfc000fd0>
        for (y = 0; y < s.height; y++) {
            b.data[x][y] = s.data[s.height - y - 1][x];
        }
    }

    x = givenState->activeBlockX;
 c001064:	e0bffe17 	ldw	r2,-8(fp)
 c001068:	10801017 	ldw	r2,64(r2)
 c00106c:	e0bfe615 	stw	r2,-104(fp)
    y = givenState->activeBlockY;
 c001070:	e0bffe17 	ldw	r2,-8(fp)
 c001074:	10801117 	ldw	r2,68(r2)
 c001078:	e0bfe715 	stw	r2,-100(fp)

    givenState->activeBlockX -= (b.width - s.width) / 2;
 c00107c:	e0bffe17 	ldw	r2,-8(fp)
 c001080:	10c01017 	ldw	r3,64(r2)
 c001084:	e13fe917 	ldw	r4,-92(fp)
 c001088:	e0bff417 	ldw	r2,-48(fp)
 c00108c:	2085c83a 	sub	r2,r4,r2
 c001090:	1008d7fa 	srli	r4,r2,31
 c001094:	2085883a 	add	r2,r4,r2
 c001098:	1005d07a 	srai	r2,r2,1
 c00109c:	1887c83a 	sub	r3,r3,r2
 c0010a0:	e0bffe17 	ldw	r2,-8(fp)
 c0010a4:	10c01015 	stw	r3,64(r2)
    givenState->activeBlockY -= (b.height - s.height) / 2;
 c0010a8:	e0bffe17 	ldw	r2,-8(fp)
 c0010ac:	10c01117 	ldw	r3,68(r2)
 c0010b0:	e13fea17 	ldw	r4,-88(fp)
 c0010b4:	e0bff517 	ldw	r2,-44(fp)
 c0010b8:	2085c83a 	sub	r2,r4,r2
 c0010bc:	1008d7fa 	srli	r4,r2,31
 c0010c0:	2085883a 	add	r2,r4,r2
 c0010c4:	1005d07a 	srai	r2,r2,1
 c0010c8:	1887c83a 	sub	r3,r3,r2
 c0010cc:	e0bffe17 	ldw	r2,-8(fp)
 c0010d0:	10c01115 	stw	r3,68(r2)
    givenState->activeBlock = b;
 c0010d4:	e0bffe17 	ldw	r2,-8(fp)
 c0010d8:	e0ffe817 	ldw	r3,-96(fp)
 c0010dc:	10c00515 	stw	r3,20(r2)
 c0010e0:	e0ffe917 	ldw	r3,-92(fp)
 c0010e4:	10c00615 	stw	r3,24(r2)
 c0010e8:	e0ffea17 	ldw	r3,-88(fp)
 c0010ec:	10c00715 	stw	r3,28(r2)
 c0010f0:	e0ffeb17 	ldw	r3,-84(fp)
 c0010f4:	10c00815 	stw	r3,32(r2)
 c0010f8:	e0ffec17 	ldw	r3,-80(fp)
 c0010fc:	10c00915 	stw	r3,36(r2)
 c001100:	e0ffed17 	ldw	r3,-76(fp)
 c001104:	10c00a15 	stw	r3,40(r2)
 c001108:	e0ffee17 	ldw	r3,-72(fp)
 c00110c:	10c00b15 	stw	r3,44(r2)
 c001110:	e0ffef17 	ldw	r3,-68(fp)
 c001114:	10c00c15 	stw	r3,48(r2)
 c001118:	e0fff017 	ldw	r3,-64(fp)
 c00111c:	10c00d15 	stw	r3,52(r2)
 c001120:	e0fff117 	ldw	r3,-60(fp)
 c001124:	10c00e15 	stw	r3,56(r2)
 c001128:	e0fff217 	ldw	r3,-56(fp)
 c00112c:	10c00f15 	stw	r3,60(r2)

    if (TetrisCheckCollision(givenState)) {
 c001130:	e13ffe17 	ldw	r4,-8(fp)
 c001134:	c0007f40 	call	c0007f4 <TetrisCheckCollision>
 c001138:	10001d26 	beq	r2,zero,c0011b0 <TetrisRotateBlock+0x2c4>
        givenState->activeBlock = s;
 c00113c:	e0bffe17 	ldw	r2,-8(fp)
 c001140:	e0fff317 	ldw	r3,-52(fp)
 c001144:	10c00515 	stw	r3,20(r2)
 c001148:	e0fff417 	ldw	r3,-48(fp)
 c00114c:	10c00615 	stw	r3,24(r2)
 c001150:	e0fff517 	ldw	r3,-44(fp)
 c001154:	10c00715 	stw	r3,28(r2)
 c001158:	e0fff617 	ldw	r3,-40(fp)
 c00115c:	10c00815 	stw	r3,32(r2)
 c001160:	e0fff717 	ldw	r3,-36(fp)
 c001164:	10c00915 	stw	r3,36(r2)
 c001168:	e0fff817 	ldw	r3,-32(fp)
 c00116c:	10c00a15 	stw	r3,40(r2)
 c001170:	e0fff917 	ldw	r3,-28(fp)
 c001174:	10c00b15 	stw	r3,44(r2)
 c001178:	e0fffa17 	ldw	r3,-24(fp)
 c00117c:	10c00c15 	stw	r3,48(r2)
 c001180:	e0fffb17 	ldw	r3,-20(fp)
 c001184:	10c00d15 	stw	r3,52(r2)
 c001188:	e0fffc17 	ldw	r3,-16(fp)
 c00118c:	10c00e15 	stw	r3,56(r2)
 c001190:	e0fffd17 	ldw	r3,-12(fp)
 c001194:	10c00f15 	stw	r3,60(r2)
        givenState->activeBlockX = x;
 c001198:	e0bffe17 	ldw	r2,-8(fp)
 c00119c:	e0ffe617 	ldw	r3,-104(fp)
 c0011a0:	10c01015 	stw	r3,64(r2)
        givenState->activeBlockY = y;
 c0011a4:	e0bffe17 	ldw	r2,-8(fp)
 c0011a8:	e0ffe717 	ldw	r3,-100(fp)
 c0011ac:	10c01115 	stw	r3,68(r2)
    }
}
 c0011b0:	0001883a 	nop
 c0011b4:	e6ffff04 	addi	sp,fp,-4
 c0011b8:	dfc00217 	ldw	ra,8(sp)
 c0011bc:	df000117 	ldw	fp,4(sp)
 c0011c0:	dc000017 	ldw	r16,0(sp)
 c0011c4:	dec00304 	addi	sp,sp,12
 c0011c8:	f800283a 	ret

0c0011cc <TetrisFallBlocks>:

void TetrisFallBlocks(TetrisGameState* givenState) {
 c0011cc:	defffd04 	addi	sp,sp,-12
 c0011d0:	dfc00215 	stw	ra,8(sp)
 c0011d4:	df000115 	stw	fp,4(sp)
 c0011d8:	df000104 	addi	fp,sp,4
 c0011dc:	e13fff15 	stw	r4,-4(fp)
	++givenState->activeBlockY;
 c0011e0:	e0bfff17 	ldw	r2,-4(fp)
 c0011e4:	10801117 	ldw	r2,68(r2)
 c0011e8:	10c00044 	addi	r3,r2,1
 c0011ec:	e0bfff17 	ldw	r2,-4(fp)
 c0011f0:	10c01115 	stw	r3,68(r2)

	if (TetrisCheckCollision(givenState)) {
 c0011f4:	e13fff17 	ldw	r4,-4(fp)
 c0011f8:	c0007f40 	call	c0007f4 <TetrisCheckCollision>
 c0011fc:	10000926 	beq	r2,zero,c001224 <TetrisFallBlocks+0x58>
		--givenState->activeBlockY;
 c001200:	e0bfff17 	ldw	r2,-4(fp)
 c001204:	10801117 	ldw	r2,68(r2)
 c001208:	10ffffc4 	addi	r3,r2,-1
 c00120c:	e0bfff17 	ldw	r2,-4(fp)
 c001210:	10c01115 	stw	r3,68(r2)
		TetrisPrintBlock(givenState);
 c001214:	e13fff17 	ldw	r4,-4(fp)
 c001218:	c000d9c0 	call	c000d9c <TetrisPrintBlock>
		TetrisCreateBlock(givenState);
 c00121c:	e13fff17 	ldw	r4,-4(fp)
 c001220:	c0009b80 	call	c0009b8 <TetrisCreateBlock>
	}
}
 c001224:	0001883a 	nop
 c001228:	e037883a 	mov	sp,fp
 c00122c:	dfc00117 	ldw	ra,4(sp)
 c001230:	df000017 	ldw	fp,0(sp)
 c001234:	dec00204 	addi	sp,sp,8
 c001238:	f800283a 	ret

0c00123c <TetrisClearLine>:

void TetrisClearLine(TetrisGameState* givenState, int l) {
 c00123c:	defffb04 	addi	sp,sp,-20
 c001240:	df000415 	stw	fp,16(sp)
 c001244:	df000404 	addi	fp,sp,16
 c001248:	e13ffe15 	stw	r4,-8(fp)
 c00124c:	e17fff15 	stw	r5,-4(fp)
    int x, y;

    for (y = l; y > 4; y--) {
 c001250:	e0bfff17 	ldw	r2,-4(fp)
 c001254:	e0bffd15 	stw	r2,-12(fp)
 c001258:	00002706 	br	c0012f8 <TetrisClearLine+0xbc>
        for (x = 0; x < givenState->boardWidth; x++) {
 c00125c:	e03ffc15 	stw	zero,-16(fp)
 c001260:	00001e06 	br	c0012dc <TetrisClearLine+0xa0>
            givenState->board[x][y] = givenState->board[x][y - 1];
 c001264:	e0bffe17 	ldw	r2,-8(fp)
 c001268:	10c00017 	ldw	r3,0(r2)
 c00126c:	e0bffc17 	ldw	r2,-16(fp)
 c001270:	1085883a 	add	r2,r2,r2
 c001274:	1085883a 	add	r2,r2,r2
 c001278:	1885883a 	add	r2,r3,r2
 c00127c:	10c00017 	ldw	r3,0(r2)
 c001280:	e0bffd17 	ldw	r2,-12(fp)
 c001284:	1085883a 	add	r2,r2,r2
 c001288:	1085883a 	add	r2,r2,r2
 c00128c:	1887883a 	add	r3,r3,r2
 c001290:	e0bffe17 	ldw	r2,-8(fp)
 c001294:	11000017 	ldw	r4,0(r2)
 c001298:	e0bffc17 	ldw	r2,-16(fp)
 c00129c:	1085883a 	add	r2,r2,r2
 c0012a0:	1085883a 	add	r2,r2,r2
 c0012a4:	2085883a 	add	r2,r4,r2
 c0012a8:	11000017 	ldw	r4,0(r2)
 c0012ac:	e17ffd17 	ldw	r5,-12(fp)
 c0012b0:	00900034 	movhi	r2,16384
 c0012b4:	10bfffc4 	addi	r2,r2,-1
 c0012b8:	2885883a 	add	r2,r5,r2
 c0012bc:	1085883a 	add	r2,r2,r2
 c0012c0:	1085883a 	add	r2,r2,r2
 c0012c4:	2085883a 	add	r2,r4,r2
 c0012c8:	10800017 	ldw	r2,0(r2)
 c0012cc:	18800015 	stw	r2,0(r3)

void TetrisClearLine(TetrisGameState* givenState, int l) {
    int x, y;

    for (y = l; y > 4; y--) {
        for (x = 0; x < givenState->boardWidth; x++) {
 c0012d0:	e0bffc17 	ldw	r2,-16(fp)
 c0012d4:	10800044 	addi	r2,r2,1
 c0012d8:	e0bffc15 	stw	r2,-16(fp)
 c0012dc:	e0bffe17 	ldw	r2,-8(fp)
 c0012e0:	10800117 	ldw	r2,4(r2)
 c0012e4:	e0fffc17 	ldw	r3,-16(fp)
 c0012e8:	18bfde16 	blt	r3,r2,c001264 <__alt_data_end+0xfc001264>
}

void TetrisClearLine(TetrisGameState* givenState, int l) {
    int x, y;

    for (y = l; y > 4; y--) {
 c0012ec:	e0bffd17 	ldw	r2,-12(fp)
 c0012f0:	10bfffc4 	addi	r2,r2,-1
 c0012f4:	e0bffd15 	stw	r2,-12(fp)
 c0012f8:	e0bffd17 	ldw	r2,-12(fp)
 c0012fc:	10800148 	cmpgei	r2,r2,5
 c001300:	103fd61e 	bne	r2,zero,c00125c <__alt_data_end+0xfc00125c>
        for (x = 0; x < givenState->boardWidth; x++) {
            givenState->board[x][y] = givenState->board[x][y - 1];
        }
    }

    for (x = 0; x < givenState->boardWidth; x++) {
 c001304:	e03ffc15 	stw	zero,-16(fp)
 c001308:	00000d06 	br	c001340 <TetrisClearLine+0x104>
        givenState->board[x][0] = givenState->boardColor;
 c00130c:	e0bffe17 	ldw	r2,-8(fp)
 c001310:	10c00017 	ldw	r3,0(r2)
 c001314:	e0bffc17 	ldw	r2,-16(fp)
 c001318:	1085883a 	add	r2,r2,r2
 c00131c:	1085883a 	add	r2,r2,r2
 c001320:	1885883a 	add	r2,r3,r2
 c001324:	10800017 	ldw	r2,0(r2)
 c001328:	e0fffe17 	ldw	r3,-8(fp)
 c00132c:	18c01517 	ldw	r3,84(r3)
 c001330:	10c00015 	stw	r3,0(r2)
        for (x = 0; x < givenState->boardWidth; x++) {
            givenState->board[x][y] = givenState->board[x][y - 1];
        }
    }

    for (x = 0; x < givenState->boardWidth; x++) {
 c001334:	e0bffc17 	ldw	r2,-16(fp)
 c001338:	10800044 	addi	r2,r2,1
 c00133c:	e0bffc15 	stw	r2,-16(fp)
 c001340:	e0bffe17 	ldw	r2,-8(fp)
 c001344:	10800117 	ldw	r2,4(r2)
 c001348:	e0fffc17 	ldw	r3,-16(fp)
 c00134c:	18bfef16 	blt	r3,r2,c00130c <__alt_data_end+0xfc00130c>
        givenState->board[x][0] = givenState->boardColor;
    }
}
 c001350:	0001883a 	nop
 c001354:	e037883a 	mov	sp,fp
 c001358:	df000017 	ldw	fp,0(sp)
 c00135c:	dec00104 	addi	sp,sp,4
 c001360:	f800283a 	ret

0c001364 <TetrisCheckLineComplete>:

void TetrisCheckLineComplete(TetrisGameState* givenState) {
 c001364:	deffe404 	addi	sp,sp,-112
 c001368:	dfc01b15 	stw	ra,108(sp)
 c00136c:	df001a15 	stw	fp,104(sp)
 c001370:	df001a04 	addi	fp,sp,104
 c001374:	e13fff15 	stw	r4,-4(fp)
    int x, y, l;

    for (y = givenState->boardHeight - 1; y >= 0; y--) {
 c001378:	e0bfff17 	ldw	r2,-4(fp)
 c00137c:	10800217 	ldw	r2,8(r2)
 c001380:	10bfffc4 	addi	r2,r2,-1
 c001384:	e0bfe815 	stw	r2,-96(fp)
 c001388:	00006306 	br	c001518 <TetrisCheckLineComplete+0x1b4>
        l = 1;
 c00138c:	00800044 	movi	r2,1
 c001390:	e0bfe915 	stw	r2,-92(fp)

        for (x = 0; x < givenState->boardWidth && l; x++) {
 c001394:	e03fe715 	stw	zero,-100(fp)
 c001398:	00001306 	br	c0013e8 <TetrisCheckLineComplete+0x84>
            if (givenState->board[x][y] == givenState->boardColor) {
 c00139c:	e0bfff17 	ldw	r2,-4(fp)
 c0013a0:	10c00017 	ldw	r3,0(r2)
 c0013a4:	e0bfe717 	ldw	r2,-100(fp)
 c0013a8:	1085883a 	add	r2,r2,r2
 c0013ac:	1085883a 	add	r2,r2,r2
 c0013b0:	1885883a 	add	r2,r3,r2
 c0013b4:	10c00017 	ldw	r3,0(r2)
 c0013b8:	e0bfe817 	ldw	r2,-96(fp)
 c0013bc:	1085883a 	add	r2,r2,r2
 c0013c0:	1085883a 	add	r2,r2,r2
 c0013c4:	1885883a 	add	r2,r3,r2
 c0013c8:	10c00017 	ldw	r3,0(r2)
 c0013cc:	e0bfff17 	ldw	r2,-4(fp)
 c0013d0:	10801517 	ldw	r2,84(r2)
 c0013d4:	1880011e 	bne	r3,r2,c0013dc <TetrisCheckLineComplete+0x78>
                l = 0;
 c0013d8:	e03fe915 	stw	zero,-92(fp)
    int x, y, l;

    for (y = givenState->boardHeight - 1; y >= 0; y--) {
        l = 1;

        for (x = 0; x < givenState->boardWidth && l; x++) {
 c0013dc:	e0bfe717 	ldw	r2,-100(fp)
 c0013e0:	10800044 	addi	r2,r2,1
 c0013e4:	e0bfe715 	stw	r2,-100(fp)
 c0013e8:	e0bfff17 	ldw	r2,-4(fp)
 c0013ec:	10800117 	ldw	r2,4(r2)
 c0013f0:	e0ffe717 	ldw	r3,-100(fp)
 c0013f4:	1880020e 	bge	r3,r2,c001400 <TetrisCheckLineComplete+0x9c>
 c0013f8:	e0bfe917 	ldw	r2,-92(fp)
 c0013fc:	103fe71e 	bne	r2,zero,c00139c <__alt_data_end+0xfc00139c>
            if (givenState->board[x][y] == givenState->boardColor) {
                l = 0;
            }
        }

        if (l) {
 c001400:	e0bfe917 	ldw	r2,-92(fp)
 c001404:	10004126 	beq	r2,zero,c00150c <TetrisCheckLineComplete+0x1a8>
            ++(givenState->completedLines);
 c001408:	e0bfff17 	ldw	r2,-4(fp)
 c00140c:	10800417 	ldw	r2,16(r2)
 c001410:	10c00044 	addi	r3,r2,1
 c001414:	e0bfff17 	ldw	r2,-4(fp)
 c001418:	10c00415 	stw	r3,16(r2)
            TetrisClearLine(givenState, y);
 c00141c:	e17fe817 	ldw	r5,-96(fp)
 c001420:	e13fff17 	ldw	r4,-4(fp)
 c001424:	c00123c0 	call	c00123c <TetrisClearLine>
            int holder = (givenState->completedLines);
 c001428:	e0bfff17 	ldw	r2,-4(fp)
 c00142c:	10800417 	ldw	r2,16(r2)
 c001430:	e0bfea15 	stw	r2,-88(fp)
            if (givenState->difficulty == 0) holder = holder*50;
 c001434:	e0bfff17 	ldw	r2,-4(fp)
 c001438:	10801817 	ldw	r2,96(r2)
 c00143c:	1000051e 	bne	r2,zero,c001454 <TetrisCheckLineComplete+0xf0>
 c001440:	01400c84 	movi	r5,50
 c001444:	e13fea17 	ldw	r4,-88(fp)
 c001448:	c005b900 	call	c005b90 <__mulsi3>
 c00144c:	e0bfea15 	stw	r2,-88(fp)
 c001450:	00000d06 	br	c001488 <TetrisCheckLineComplete+0x124>
            else if (givenState->difficulty == 1) holder = holder*100;
 c001454:	e0bfff17 	ldw	r2,-4(fp)
 c001458:	10801817 	ldw	r2,96(r2)
 c00145c:	10800058 	cmpnei	r2,r2,1
 c001460:	1000051e 	bne	r2,zero,c001478 <TetrisCheckLineComplete+0x114>
 c001464:	01401904 	movi	r5,100
 c001468:	e13fea17 	ldw	r4,-88(fp)
 c00146c:	c005b900 	call	c005b90 <__mulsi3>
 c001470:	e0bfea15 	stw	r2,-88(fp)
 c001474:	00000406 	br	c001488 <TetrisCheckLineComplete+0x124>
            else holder = holder*200;
 c001478:	01403204 	movi	r5,200
 c00147c:	e13fea17 	ldw	r4,-88(fp)
 c001480:	c005b900 	call	c005b90 <__mulsi3>
 c001484:	e0bfea15 	stw	r2,-88(fp)
            printf("%d line(s) completed at %d\n", givenState->completedLines, holder);
 c001488:	e0bfff17 	ldw	r2,-4(fp)
 c00148c:	10800417 	ldw	r2,16(r2)
 c001490:	e1bfea17 	ldw	r6,-88(fp)
 c001494:	100b883a 	mov	r5,r2
 c001498:	010300b4 	movhi	r4,3074
 c00149c:	21273204 	addi	r4,r4,-25400
 c0014a0:	c00663c0 	call	c00663c <printf>
            char showScore[80];
        	sprintf(showScore, "%d", holder);
 c0014a4:	e0bfeb04 	addi	r2,fp,-84
 c0014a8:	e1bfea17 	ldw	r6,-88(fp)
 c0014ac:	014300b4 	movhi	r5,3074
 c0014b0:	29673904 	addi	r5,r5,-25372
 c0014b4:	1009883a 	mov	r4,r2
 c0014b8:	c0068940 	call	c006894 <sprintf>
            VGAwriteText(givenState->gameX-10, givenState->gameY+12, 14, givenState->boardColor, showScore);
 c0014bc:	e0bfff17 	ldw	r2,-4(fp)
 c0014c0:	10801317 	ldw	r2,76(r2)
 c0014c4:	10fffd84 	addi	r3,r2,-10
 c0014c8:	e0bfff17 	ldw	r2,-4(fp)
 c0014cc:	10801417 	ldw	r2,80(r2)
 c0014d0:	11000304 	addi	r4,r2,12
 c0014d4:	e0bfff17 	ldw	r2,-4(fp)
 c0014d8:	11401517 	ldw	r5,84(r2)
 c0014dc:	e0bfeb04 	addi	r2,fp,-84
 c0014e0:	d8800015 	stw	r2,0(sp)
 c0014e4:	280f883a 	mov	r7,r5
 c0014e8:	01800384 	movi	r6,14
 c0014ec:	200b883a 	mov	r5,r4
 c0014f0:	1809883a 	mov	r4,r3
 c0014f4:	c0038b00 	call	c0038b0 <VGAwriteText>
            printf("a");
 c0014f8:	01001844 	movi	r4,97
 c0014fc:	c0066800 	call	c006680 <putchar>
            y++;
 c001500:	e0bfe817 	ldw	r2,-96(fp)
 c001504:	10800044 	addi	r2,r2,1
 c001508:	e0bfe815 	stw	r2,-96(fp)
}

void TetrisCheckLineComplete(TetrisGameState* givenState) {
    int x, y, l;

    for (y = givenState->boardHeight - 1; y >= 0; y--) {
 c00150c:	e0bfe817 	ldw	r2,-96(fp)
 c001510:	10bfffc4 	addi	r2,r2,-1
 c001514:	e0bfe815 	stw	r2,-96(fp)
 c001518:	e0bfe817 	ldw	r2,-96(fp)
 c00151c:	103f9b0e 	bge	r2,zero,c00138c <__alt_data_end+0xfc00138c>
            VGAwriteText(givenState->gameX-10, givenState->gameY+12, 14, givenState->boardColor, showScore);
            printf("a");
            y++;
        }
    }
}
 c001520:	0001883a 	nop
 c001524:	e037883a 	mov	sp,fp
 c001528:	dfc00117 	ldw	ra,4(sp)
 c00152c:	df000017 	ldw	fp,0(sp)
 c001530:	dec00204 	addi	sp,sp,8
 c001534:	f800283a 	ret

0c001538 <TetrisInputLeft>:

void TetrisInputLeft(TetrisGameState* givenState) {
 c001538:	defffd04 	addi	sp,sp,-12
 c00153c:	dfc00215 	stw	ra,8(sp)
 c001540:	df000115 	stw	fp,4(sp)
 c001544:	df000104 	addi	fp,sp,4
 c001548:	e13fff15 	stw	r4,-4(fp)
    --givenState->activeBlockX;
 c00154c:	e0bfff17 	ldw	r2,-4(fp)
 c001550:	10801017 	ldw	r2,64(r2)
 c001554:	10ffffc4 	addi	r3,r2,-1
 c001558:	e0bfff17 	ldw	r2,-4(fp)
 c00155c:	10c01015 	stw	r3,64(r2)
    if (TetrisCheckCollision(givenState)) ++givenState->activeBlockX;
 c001560:	e13fff17 	ldw	r4,-4(fp)
 c001564:	c0007f40 	call	c0007f4 <TetrisCheckCollision>
 c001568:	10000526 	beq	r2,zero,c001580 <TetrisInputLeft+0x48>
 c00156c:	e0bfff17 	ldw	r2,-4(fp)
 c001570:	10801017 	ldw	r2,64(r2)
 c001574:	10c00044 	addi	r3,r2,1
 c001578:	e0bfff17 	ldw	r2,-4(fp)
 c00157c:	10c01015 	stw	r3,64(r2)
}
 c001580:	0001883a 	nop
 c001584:	e037883a 	mov	sp,fp
 c001588:	dfc00117 	ldw	ra,4(sp)
 c00158c:	df000017 	ldw	fp,0(sp)
 c001590:	dec00204 	addi	sp,sp,8
 c001594:	f800283a 	ret

0c001598 <TetrisInputRight>:

void TetrisInputRight(TetrisGameState* givenState) {
 c001598:	defffd04 	addi	sp,sp,-12
 c00159c:	dfc00215 	stw	ra,8(sp)
 c0015a0:	df000115 	stw	fp,4(sp)
 c0015a4:	df000104 	addi	fp,sp,4
 c0015a8:	e13fff15 	stw	r4,-4(fp)
    ++givenState->activeBlockX;
 c0015ac:	e0bfff17 	ldw	r2,-4(fp)
 c0015b0:	10801017 	ldw	r2,64(r2)
 c0015b4:	10c00044 	addi	r3,r2,1
 c0015b8:	e0bfff17 	ldw	r2,-4(fp)
 c0015bc:	10c01015 	stw	r3,64(r2)
    if (TetrisCheckCollision(givenState)) --givenState->activeBlockX;
 c0015c0:	e13fff17 	ldw	r4,-4(fp)
 c0015c4:	c0007f40 	call	c0007f4 <TetrisCheckCollision>
 c0015c8:	10000526 	beq	r2,zero,c0015e0 <TetrisInputRight+0x48>
 c0015cc:	e0bfff17 	ldw	r2,-4(fp)
 c0015d0:	10801017 	ldw	r2,64(r2)
 c0015d4:	10ffffc4 	addi	r3,r2,-1
 c0015d8:	e0bfff17 	ldw	r2,-4(fp)
 c0015dc:	10c01015 	stw	r3,64(r2)
}
 c0015e0:	0001883a 	nop
 c0015e4:	e037883a 	mov	sp,fp
 c0015e8:	dfc00117 	ldw	ra,4(sp)
 c0015ec:	df000017 	ldw	fp,0(sp)
 c0015f0:	dec00204 	addi	sp,sp,8
 c0015f4:	f800283a 	ret

0c0015f8 <TetrisPrintBoard>:

void TetrisPrintBoard(TetrisGameState* givenState) {
 c0015f8:	defff804 	addi	sp,sp,-32
 c0015fc:	dfc00715 	stw	ra,28(sp)
 c001600:	df000615 	stw	fp,24(sp)
 c001604:	dc400515 	stw	r17,20(sp)
 c001608:	dc000415 	stw	r16,16(sp)
 c00160c:	df000604 	addi	fp,sp,24
 c001610:	e13ffd15 	stw	r4,-12(fp)
    int x, y;
    //printf("drawing start (%d, %d)", givenState->gameX, givenState->gameY);
	if (givenState->pause) {
 c001614:	e0bffd17 	ldw	r2,-12(fp)
 c001618:	10801217 	ldw	r2,72(r2)
 c00161c:	10001026 	beq	r2,zero,c001660 <TetrisPrintBoard+0x68>
		VGAwriteText(givenState->gameX-(strlen("PAUSE GAME")),(givenState->gameY+(givenState->boardHeight)),0,2,"PAUSE GAME");
 c001620:	e0bffd17 	ldw	r2,-12(fp)
 c001624:	10801317 	ldw	r2,76(r2)
 c001628:	113ffd84 	addi	r4,r2,-10
 c00162c:	e0bffd17 	ldw	r2,-12(fp)
 c001630:	10c01417 	ldw	r3,80(r2)
 c001634:	e0bffd17 	ldw	r2,-12(fp)
 c001638:	10800217 	ldw	r2,8(r2)
 c00163c:	1887883a 	add	r3,r3,r2
 c001640:	008300b4 	movhi	r2,3074
 c001644:	10a73a04 	addi	r2,r2,-25368
 c001648:	d8800015 	stw	r2,0(sp)
 c00164c:	01c00084 	movi	r7,2
 c001650:	000d883a 	mov	r6,zero
 c001654:	180b883a 	mov	r5,r3
 c001658:	c0038b00 	call	c0038b0 <VGAwriteText>
				} else {
					VGADrawColorBox(givenState->gameX+x,givenState->gameY-8+y,givenState->board[x/2][y/2]);}
			}
		}
	}
}
 c00165c:	00009506 	br	c0018b4 <TetrisPrintBoard+0x2bc>
    int x, y;
    //printf("drawing start (%d, %d)", givenState->gameX, givenState->gameY);
	if (givenState->pause) {
		VGAwriteText(givenState->gameX-(strlen("PAUSE GAME")),(givenState->gameY+(givenState->boardHeight)),0,2,"PAUSE GAME");
	} else {
		VGAwriteText(givenState->gameX-(strlen("PAUSE GAME")),(givenState->gameY+(givenState->boardHeight)),0,0,"PAUSE GAME");
 c001660:	e0bffd17 	ldw	r2,-12(fp)
 c001664:	10801317 	ldw	r2,76(r2)
 c001668:	113ffd84 	addi	r4,r2,-10
 c00166c:	e0bffd17 	ldw	r2,-12(fp)
 c001670:	10c01417 	ldw	r3,80(r2)
 c001674:	e0bffd17 	ldw	r2,-12(fp)
 c001678:	10800217 	ldw	r2,8(r2)
 c00167c:	1887883a 	add	r3,r3,r2
 c001680:	008300b4 	movhi	r2,3074
 c001684:	10a73a04 	addi	r2,r2,-25368
 c001688:	d8800015 	stw	r2,0(sp)
 c00168c:	000f883a 	mov	r7,zero
 c001690:	000d883a 	mov	r6,zero
 c001694:	180b883a 	mov	r5,r3
 c001698:	c0038b00 	call	c0038b0 <VGAwriteText>
		for (y = 8; y < (givenState->boardHeight)*2; y++) {
 c00169c:	00800204 	movi	r2,8
 c0016a0:	e0bffc15 	stw	r2,-16(fp)
 c0016a4:	00007d06 	br	c00189c <TetrisPrintBoard+0x2a4>
			for (x = 0; x < (givenState->boardWidth)*2; x++) {
 c0016a8:	e03ffb15 	stw	zero,-20(fp)
 c0016ac:	00007206 	br	c001878 <TetrisPrintBoard+0x280>
				if (x/2 >= givenState->activeBlockX &&                              //
 c0016b0:	e0bffb17 	ldw	r2,-20(fp)
 c0016b4:	1006d7fa 	srli	r3,r2,31
 c0016b8:	1885883a 	add	r2,r3,r2
 c0016bc:	1005d07a 	srai	r2,r2,1
 c0016c0:	1007883a 	mov	r3,r2
 c0016c4:	e0bffd17 	ldw	r2,-12(fp)
 c0016c8:	10801017 	ldw	r2,64(r2)
 c0016cc:	18804916 	blt	r3,r2,c0017f4 <TetrisPrintBoard+0x1fc>
					y/2 >= givenState->activeBlockY &&                              //
 c0016d0:	e0bffc17 	ldw	r2,-16(fp)
 c0016d4:	1006d7fa 	srli	r3,r2,31
 c0016d8:	1885883a 	add	r2,r3,r2
 c0016dc:	1005d07a 	srai	r2,r2,1
 c0016e0:	1007883a 	mov	r3,r2
 c0016e4:	e0bffd17 	ldw	r2,-12(fp)
 c0016e8:	10801117 	ldw	r2,68(r2)
		VGAwriteText(givenState->gameX-(strlen("PAUSE GAME")),(givenState->gameY+(givenState->boardHeight)),0,2,"PAUSE GAME");
	} else {
		VGAwriteText(givenState->gameX-(strlen("PAUSE GAME")),(givenState->gameY+(givenState->boardHeight)),0,0,"PAUSE GAME");
		for (y = 8; y < (givenState->boardHeight)*2; y++) {
			for (x = 0; x < (givenState->boardWidth)*2; x++) {
				if (x/2 >= givenState->activeBlockX &&                              //
 c0016ec:	18804116 	blt	r3,r2,c0017f4 <TetrisPrintBoard+0x1fc>
					y/2 >= givenState->activeBlockY &&                              //
					x/2 < (givenState->activeBlockX + givenState->activeBlock.width) &&  //
 c0016f0:	e0bffb17 	ldw	r2,-20(fp)
 c0016f4:	1006d7fa 	srli	r3,r2,31
 c0016f8:	1885883a 	add	r2,r3,r2
 c0016fc:	1005d07a 	srai	r2,r2,1
 c001700:	1009883a 	mov	r4,r2
 c001704:	e0bffd17 	ldw	r2,-12(fp)
 c001708:	10c01017 	ldw	r3,64(r2)
 c00170c:	e0bffd17 	ldw	r2,-12(fp)
 c001710:	10800617 	ldw	r2,24(r2)
 c001714:	1885883a 	add	r2,r3,r2
	} else {
		VGAwriteText(givenState->gameX-(strlen("PAUSE GAME")),(givenState->gameY+(givenState->boardHeight)),0,0,"PAUSE GAME");
		for (y = 8; y < (givenState->boardHeight)*2; y++) {
			for (x = 0; x < (givenState->boardWidth)*2; x++) {
				if (x/2 >= givenState->activeBlockX &&                              //
					y/2 >= givenState->activeBlockY &&                              //
 c001718:	2080360e 	bge	r4,r2,c0017f4 <TetrisPrintBoard+0x1fc>
					x/2 < (givenState->activeBlockX + givenState->activeBlock.width) &&  //
					y/2 < (givenState->activeBlockY + givenState->activeBlock.height) && //
 c00171c:	e0bffc17 	ldw	r2,-16(fp)
 c001720:	1006d7fa 	srli	r3,r2,31
 c001724:	1885883a 	add	r2,r3,r2
 c001728:	1005d07a 	srai	r2,r2,1
 c00172c:	1009883a 	mov	r4,r2
 c001730:	e0bffd17 	ldw	r2,-12(fp)
 c001734:	10c01117 	ldw	r3,68(r2)
 c001738:	e0bffd17 	ldw	r2,-12(fp)
 c00173c:	10800717 	ldw	r2,28(r2)
 c001740:	1885883a 	add	r2,r3,r2
		VGAwriteText(givenState->gameX-(strlen("PAUSE GAME")),(givenState->gameY+(givenState->boardHeight)),0,0,"PAUSE GAME");
		for (y = 8; y < (givenState->boardHeight)*2; y++) {
			for (x = 0; x < (givenState->boardWidth)*2; x++) {
				if (x/2 >= givenState->activeBlockX &&                              //
					y/2 >= givenState->activeBlockY &&                              //
					x/2 < (givenState->activeBlockX + givenState->activeBlock.width) &&  //
 c001744:	20802b0e 	bge	r4,r2,c0017f4 <TetrisPrintBoard+0x1fc>
					y/2 < (givenState->activeBlockY + givenState->activeBlock.height) && //
					givenState->activeBlock.data[y/2 - givenState->activeBlockY]
 c001748:	e0bffc17 	ldw	r2,-16(fp)
 c00174c:	1006d7fa 	srli	r3,r2,31
 c001750:	1885883a 	add	r2,r3,r2
 c001754:	1005d07a 	srai	r2,r2,1
 c001758:	1007883a 	mov	r3,r2
 c00175c:	e0bffd17 	ldw	r2,-12(fp)
 c001760:	10801117 	ldw	r2,68(r2)
 c001764:	1889c83a 	sub	r4,r3,r2
										   [x/2 - givenState->activeBlockX] != ' ') {
 c001768:	e0bffb17 	ldw	r2,-20(fp)
 c00176c:	1006d7fa 	srli	r3,r2,31
 c001770:	1885883a 	add	r2,r3,r2
 c001774:	1005d07a 	srai	r2,r2,1
 c001778:	1007883a 	mov	r3,r2
 c00177c:	e0bffd17 	ldw	r2,-12(fp)
 c001780:	10801017 	ldw	r2,64(r2)
 c001784:	18a1c83a 	sub	r16,r3,r2
 c001788:	e47ffd17 	ldw	r17,-12(fp)
 c00178c:	01400144 	movi	r5,5
 c001790:	c005b900 	call	c005b90 <__mulsi3>
 c001794:	8885883a 	add	r2,r17,r2
 c001798:	1405883a 	add	r2,r2,r16
 c00179c:	10800804 	addi	r2,r2,32
 c0017a0:	10800003 	ldbu	r2,0(r2)
		for (y = 8; y < (givenState->boardHeight)*2; y++) {
			for (x = 0; x < (givenState->boardWidth)*2; x++) {
				if (x/2 >= givenState->activeBlockX &&                              //
					y/2 >= givenState->activeBlockY &&                              //
					x/2 < (givenState->activeBlockX + givenState->activeBlock.width) &&  //
					y/2 < (givenState->activeBlockY + givenState->activeBlock.height) && //
 c0017a4:	10803fcc 	andi	r2,r2,255
 c0017a8:	1080201c 	xori	r2,r2,128
 c0017ac:	10bfe004 	addi	r2,r2,-128
 c0017b0:	10800820 	cmpeqi	r2,r2,32
 c0017b4:	10000f1e 	bne	r2,zero,c0017f4 <TetrisPrintBoard+0x1fc>
					givenState->activeBlock.data[y/2 - givenState->activeBlockY]
										   [x/2 - givenState->activeBlockX] != ' ') {
					VGADrawColorBox(givenState->gameX+x,givenState->gameY-8+y, givenState->activeBlock.color);
 c0017b8:	e0bffd17 	ldw	r2,-12(fp)
 c0017bc:	10c01317 	ldw	r3,76(r2)
 c0017c0:	e0bffb17 	ldw	r2,-20(fp)
 c0017c4:	1889883a 	add	r4,r3,r2
 c0017c8:	e0bffd17 	ldw	r2,-12(fp)
 c0017cc:	10801417 	ldw	r2,80(r2)
 c0017d0:	10fffe04 	addi	r3,r2,-8
 c0017d4:	e0bffc17 	ldw	r2,-16(fp)
 c0017d8:	1887883a 	add	r3,r3,r2
 c0017dc:	e0bffd17 	ldw	r2,-12(fp)
 c0017e0:	10800f17 	ldw	r2,60(r2)
 c0017e4:	100d883a 	mov	r6,r2
 c0017e8:	180b883a 	mov	r5,r3
 c0017ec:	c0038440 	call	c003844 <VGADrawColorBox>
				if (x/2 >= givenState->activeBlockX &&                              //
					y/2 >= givenState->activeBlockY &&                              //
					x/2 < (givenState->activeBlockX + givenState->activeBlock.width) &&  //
					y/2 < (givenState->activeBlockY + givenState->activeBlock.height) && //
					givenState->activeBlock.data[y/2 - givenState->activeBlockY]
										   [x/2 - givenState->activeBlockX] != ' ') {
 c0017f0:	00001e06 	br	c00186c <TetrisPrintBoard+0x274>
					VGADrawColorBox(givenState->gameX+x,givenState->gameY-8+y, givenState->activeBlock.color);
				} else {
					VGADrawColorBox(givenState->gameX+x,givenState->gameY-8+y,givenState->board[x/2][y/2]);}
 c0017f4:	e0bffd17 	ldw	r2,-12(fp)
 c0017f8:	10c01317 	ldw	r3,76(r2)
 c0017fc:	e0bffb17 	ldw	r2,-20(fp)
 c001800:	188f883a 	add	r7,r3,r2
 c001804:	e0bffd17 	ldw	r2,-12(fp)
 c001808:	10801417 	ldw	r2,80(r2)
 c00180c:	10fffe04 	addi	r3,r2,-8
 c001810:	e0bffc17 	ldw	r2,-16(fp)
 c001814:	188b883a 	add	r5,r3,r2
 c001818:	e0bffd17 	ldw	r2,-12(fp)
 c00181c:	10c00017 	ldw	r3,0(r2)
 c001820:	e0bffb17 	ldw	r2,-20(fp)
 c001824:	1008d7fa 	srli	r4,r2,31
 c001828:	2085883a 	add	r2,r4,r2
 c00182c:	1005d07a 	srai	r2,r2,1
 c001830:	1085883a 	add	r2,r2,r2
 c001834:	1085883a 	add	r2,r2,r2
 c001838:	1885883a 	add	r2,r3,r2
 c00183c:	10c00017 	ldw	r3,0(r2)
 c001840:	e0bffc17 	ldw	r2,-16(fp)
 c001844:	1008d7fa 	srli	r4,r2,31
 c001848:	2085883a 	add	r2,r4,r2
 c00184c:	1005d07a 	srai	r2,r2,1
 c001850:	1085883a 	add	r2,r2,r2
 c001854:	1085883a 	add	r2,r2,r2
 c001858:	1885883a 	add	r2,r3,r2
 c00185c:	10800017 	ldw	r2,0(r2)
 c001860:	100d883a 	mov	r6,r2
 c001864:	3809883a 	mov	r4,r7
 c001868:	c0038440 	call	c003844 <VGADrawColorBox>
	if (givenState->pause) {
		VGAwriteText(givenState->gameX-(strlen("PAUSE GAME")),(givenState->gameY+(givenState->boardHeight)),0,2,"PAUSE GAME");
	} else {
		VGAwriteText(givenState->gameX-(strlen("PAUSE GAME")),(givenState->gameY+(givenState->boardHeight)),0,0,"PAUSE GAME");
		for (y = 8; y < (givenState->boardHeight)*2; y++) {
			for (x = 0; x < (givenState->boardWidth)*2; x++) {
 c00186c:	e0bffb17 	ldw	r2,-20(fp)
 c001870:	10800044 	addi	r2,r2,1
 c001874:	e0bffb15 	stw	r2,-20(fp)
 c001878:	e0bffd17 	ldw	r2,-12(fp)
 c00187c:	10800117 	ldw	r2,4(r2)
 c001880:	1085883a 	add	r2,r2,r2
 c001884:	1007883a 	mov	r3,r2
 c001888:	e0bffb17 	ldw	r2,-20(fp)
 c00188c:	10ff8816 	blt	r2,r3,c0016b0 <__alt_data_end+0xfc0016b0>
    //printf("drawing start (%d, %d)", givenState->gameX, givenState->gameY);
	if (givenState->pause) {
		VGAwriteText(givenState->gameX-(strlen("PAUSE GAME")),(givenState->gameY+(givenState->boardHeight)),0,2,"PAUSE GAME");
	} else {
		VGAwriteText(givenState->gameX-(strlen("PAUSE GAME")),(givenState->gameY+(givenState->boardHeight)),0,0,"PAUSE GAME");
		for (y = 8; y < (givenState->boardHeight)*2; y++) {
 c001890:	e0bffc17 	ldw	r2,-16(fp)
 c001894:	10800044 	addi	r2,r2,1
 c001898:	e0bffc15 	stw	r2,-16(fp)
 c00189c:	e0bffd17 	ldw	r2,-12(fp)
 c0018a0:	10800217 	ldw	r2,8(r2)
 c0018a4:	1085883a 	add	r2,r2,r2
 c0018a8:	1007883a 	mov	r3,r2
 c0018ac:	e0bffc17 	ldw	r2,-16(fp)
 c0018b0:	10ff7d16 	blt	r2,r3,c0016a8 <__alt_data_end+0xfc0016a8>
				} else {
					VGADrawColorBox(givenState->gameX+x,givenState->gameY-8+y,givenState->board[x/2][y/2]);}
			}
		}
	}
}
 c0018b4:	0001883a 	nop
 c0018b8:	e6fffe04 	addi	sp,fp,-8
 c0018bc:	dfc00317 	ldw	ra,12(sp)
 c0018c0:	df000217 	ldw	fp,8(sp)
 c0018c4:	dc400117 	ldw	r17,4(sp)
 c0018c8:	dc000017 	ldw	r16,0(sp)
 c0018cc:	dec00404 	addi	sp,sp,16
 c0018d0:	f800283a 	ret

0c0018d4 <TetrisPause>:

void TetrisPause(TetrisGameState* givenState) {
 c0018d4:	defffe04 	addi	sp,sp,-8
 c0018d8:	df000115 	stw	fp,4(sp)
 c0018dc:	df000104 	addi	fp,sp,4
 c0018e0:	e13fff15 	stw	r4,-4(fp)
	givenState->pause = !givenState->pause;
 c0018e4:	e0bfff17 	ldw	r2,-4(fp)
 c0018e8:	10801217 	ldw	r2,72(r2)
 c0018ec:	1005003a 	cmpeq	r2,r2,zero
 c0018f0:	10c03fcc 	andi	r3,r2,255
 c0018f4:	e0bfff17 	ldw	r2,-4(fp)
 c0018f8:	10c01215 	stw	r3,72(r2)
}
 c0018fc:	0001883a 	nop
 c001900:	e037883a 	mov	sp,fp
 c001904:	df000017 	ldw	fp,0(sp)
 c001908:	dec00104 	addi	sp,sp,4
 c00190c:	f800283a 	ret

0c001910 <GetDriverandReport>:

static BYTE addr = 1; 				//hard-wired USB address
const char* const devclasses[] = { " Uninitialized", " HID Keyboard", " HID Mouse", " Mass storage" };


BYTE GetDriverandReport() {
 c001910:	defff604 	addi	sp,sp,-40
 c001914:	dfc00915 	stw	ra,36(sp)
 c001918:	df000815 	stw	fp,32(sp)
 c00191c:	df000804 	addi	fp,sp,32
	BYTE i;
	BYTE rcode;
	BYTE device = 0xFF;
 c001920:	00bfffc4 	movi	r2,-1
 c001924:	e0bffd45 	stb	r2,-11(fp)
	BYTE tmpbyte;

	DEV_RECORD* tpl_ptr;
	printf("Reached USB_STATE_RUNNING (0x40)\n");
 c001928:	010300b4 	movhi	r4,3074
 c00192c:	21275004 	addi	r4,r4,-25280
 c001930:	c0067580 	call	c006758 <puts>
	for (i = 1; i < USB_NUMDEVICES; i++) {
 c001934:	00800044 	movi	r2,1
 c001938:	e0bffd05 	stb	r2,-12(fp)
 c00193c:	00001f06 	br	c0019bc <GetDriverandReport+0xac>
		tpl_ptr = GetDevtable(i);
 c001940:	e0bffd03 	ldbu	r2,-12(fp)
 c001944:	1009883a 	mov	r4,r2
 c001948:	c0059200 	call	c005920 <GetDevtable>
 c00194c:	e0bffe15 	stw	r2,-8(fp)
		if (tpl_ptr->epinfo != NULL) {
 c001950:	e0bffe17 	ldw	r2,-8(fp)
 c001954:	10800017 	ldw	r2,0(r2)
 c001958:	10001526 	beq	r2,zero,c0019b0 <GetDriverandReport+0xa0>
			printf("Device: %d", i);
 c00195c:	e0bffd03 	ldbu	r2,-12(fp)
 c001960:	100b883a 	mov	r5,r2
 c001964:	010300b4 	movhi	r4,3074
 c001968:	21275904 	addi	r4,r4,-25244
 c00196c:	c00663c0 	call	c00663c <printf>
			printf("%s \n", devclasses[tpl_ptr->devclass]);
 c001970:	e0bffe17 	ldw	r2,-8(fp)
 c001974:	10800103 	ldbu	r2,4(r2)
 c001978:	10c03fcc 	andi	r3,r2,255
 c00197c:	008300b4 	movhi	r2,3074
 c001980:	10a74c04 	addi	r2,r2,-25296
 c001984:	18c7883a 	add	r3,r3,r3
 c001988:	18c7883a 	add	r3,r3,r3
 c00198c:	10c5883a 	add	r2,r2,r3
 c001990:	10800017 	ldw	r2,0(r2)
 c001994:	100b883a 	mov	r5,r2
 c001998:	010300b4 	movhi	r4,3074
 c00199c:	21275c04 	addi	r4,r4,-25232
 c0019a0:	c00663c0 	call	c00663c <printf>
			device = tpl_ptr->devclass;
 c0019a4:	e0bffe17 	ldw	r2,-8(fp)
 c0019a8:	10800103 	ldbu	r2,4(r2)
 c0019ac:	e0bffd45 	stb	r2,-11(fp)
	BYTE device = 0xFF;
	BYTE tmpbyte;

	DEV_RECORD* tpl_ptr;
	printf("Reached USB_STATE_RUNNING (0x40)\n");
	for (i = 1; i < USB_NUMDEVICES; i++) {
 c0019b0:	e0bffd03 	ldbu	r2,-12(fp)
 c0019b4:	10800044 	addi	r2,r2,1
 c0019b8:	e0bffd05 	stb	r2,-12(fp)
 c0019bc:	e0bffd03 	ldbu	r2,-12(fp)
 c0019c0:	10800230 	cmpltui	r2,r2,8
 c0019c4:	103fde1e 	bne	r2,zero,c001940 <__alt_data_end+0xfc001940>
			printf("%s \n", devclasses[tpl_ptr->devclass]);
			device = tpl_ptr->devclass;
		}
	}
	//Query rate and protocol
	rcode = XferGetIdle(addr, 0, hid_device.interface, 0, &tmpbyte);
 c0019c8:	d0a00403 	ldbu	r2,-32752(gp)
 c0019cc:	11003fcc 	andi	r4,r2,255
 c0019d0:	d0a7ad43 	ldbu	r2,-24907(gp)
 c0019d4:	10803fcc 	andi	r2,r2,255
 c0019d8:	e0ffff44 	addi	r3,fp,-3
 c0019dc:	d8c00415 	stw	r3,16(sp)
 c0019e0:	00c00044 	movi	r3,1
 c0019e4:	d8c00315 	stw	r3,12(sp)
 c0019e8:	d8800215 	stw	r2,8(sp)
 c0019ec:	d8000115 	stw	zero,4(sp)
 c0019f0:	d8000015 	stw	zero,0(sp)
 c0019f4:	01c00084 	movi	r7,2
 c0019f8:	01802844 	movi	r6,161
 c0019fc:	000b883a 	mov	r5,zero
 c001a00:	c004b440 	call	c004b44 <XferCtrlReq>
 c001a04:	e0bfff05 	stb	r2,-4(fp)
	if (rcode) {   //error handling
 c001a08:	e0bfff03 	ldbu	r2,-4(fp)
 c001a0c:	10000926 	beq	r2,zero,c001a34 <GetDriverandReport+0x124>
		printf("GetIdle Error. Error code: ");
 c001a10:	010300b4 	movhi	r4,3074
 c001a14:	21275e04 	addi	r4,r4,-25224
 c001a18:	c00663c0 	call	c00663c <printf>
		printf("%x \n", rcode);
 c001a1c:	e0bfff03 	ldbu	r2,-4(fp)
 c001a20:	100b883a 	mov	r5,r2
 c001a24:	010300b4 	movhi	r4,3074
 c001a28:	21276504 	addi	r4,r4,-25196
 c001a2c:	c00663c0 	call	c00663c <printf>
 c001a30:	00000906 	br	c001a58 <GetDriverandReport+0x148>
	} else {
		printf("Update rate: ");
 c001a34:	010300b4 	movhi	r4,3074
 c001a38:	21276704 	addi	r4,r4,-25188
 c001a3c:	c00663c0 	call	c00663c <printf>
		printf("%x \n", tmpbyte);
 c001a40:	e0bfff43 	ldbu	r2,-3(fp)
 c001a44:	10803fcc 	andi	r2,r2,255
 c001a48:	100b883a 	mov	r5,r2
 c001a4c:	010300b4 	movhi	r4,3074
 c001a50:	21276504 	addi	r4,r4,-25196
 c001a54:	c00663c0 	call	c00663c <printf>
	}
	printf("Protocol: ");
 c001a58:	010300b4 	movhi	r4,3074
 c001a5c:	21276b04 	addi	r4,r4,-25172
 c001a60:	c00663c0 	call	c00663c <printf>
	rcode = XferGetProto(addr, 0, hid_device.interface, &tmpbyte);
 c001a64:	d0a00403 	ldbu	r2,-32752(gp)
 c001a68:	11003fcc 	andi	r4,r2,255
 c001a6c:	d0a7ad43 	ldbu	r2,-24907(gp)
 c001a70:	10803fcc 	andi	r2,r2,255
 c001a74:	e0ffff44 	addi	r3,fp,-3
 c001a78:	d8c00415 	stw	r3,16(sp)
 c001a7c:	00c00044 	movi	r3,1
 c001a80:	d8c00315 	stw	r3,12(sp)
 c001a84:	d8800215 	stw	r2,8(sp)
 c001a88:	d8000115 	stw	zero,4(sp)
 c001a8c:	d8000015 	stw	zero,0(sp)
 c001a90:	01c000c4 	movi	r7,3
 c001a94:	01802844 	movi	r6,161
 c001a98:	000b883a 	mov	r5,zero
 c001a9c:	c004b440 	call	c004b44 <XferCtrlReq>
 c001aa0:	e0bfff05 	stb	r2,-4(fp)
	if (rcode) {   //error handling
 c001aa4:	e0bfff03 	ldbu	r2,-4(fp)
 c001aa8:	10000926 	beq	r2,zero,c001ad0 <GetDriverandReport+0x1c0>
		printf("GetProto Error. Error code ");
 c001aac:	010300b4 	movhi	r4,3074
 c001ab0:	21276e04 	addi	r4,r4,-25160
 c001ab4:	c00663c0 	call	c00663c <printf>
		printf("%x \n", rcode);
 c001ab8:	e0bfff03 	ldbu	r2,-4(fp)
 c001abc:	100b883a 	mov	r5,r2
 c001ac0:	010300b4 	movhi	r4,3074
 c001ac4:	21276504 	addi	r4,r4,-25196
 c001ac8:	c00663c0 	call	c00663c <printf>
 c001acc:	00000606 	br	c001ae8 <GetDriverandReport+0x1d8>
	} else {
		printf("%d \n", tmpbyte);
 c001ad0:	e0bfff43 	ldbu	r2,-3(fp)
 c001ad4:	10803fcc 	andi	r2,r2,255
 c001ad8:	100b883a 	mov	r5,r2
 c001adc:	010300b4 	movhi	r4,3074
 c001ae0:	21277504 	addi	r4,r4,-25132
 c001ae4:	c00663c0 	call	c00663c <printf>
	}
	return device;
 c001ae8:	e0bffd43 	ldbu	r2,-11(fp)
}
 c001aec:	e037883a 	mov	sp,fp
 c001af0:	dfc00117 	ldw	ra,4(sp)
 c001af4:	df000017 	ldw	fp,0(sp)
 c001af8:	dec00204 	addi	sp,sp,8
 c001afc:	f800283a 	ret

0c001b00 <setLED>:

void setLED(int LED) {
 c001b00:	defffe04 	addi	sp,sp,-8
 c001b04:	df000115 	stw	fp,4(sp)
 c001b08:	df000104 	addi	fp,sp,4
 c001b0c:	e13fff15 	stw	r4,-4(fp)
	IOWR_ALTERA_AVALON_PIO_DATA(LEDS_PIO_BASE,
 c001b10:	00806804 	movi	r2,416
 c001b14:	10c00037 	ldwio	r3,0(r2)
 c001b18:	01000044 	movi	r4,1
 c001b1c:	e0bfff17 	ldw	r2,-4(fp)
 c001b20:	2084983a 	sll	r2,r4,r2
 c001b24:	1886b03a 	or	r3,r3,r2
 c001b28:	00806804 	movi	r2,416
 c001b2c:	10c00035 	stwio	r3,0(r2)
			(IORD_ALTERA_AVALON_PIO_DATA(LEDS_PIO_BASE) | (0x001 << LED)));
}
 c001b30:	0001883a 	nop
 c001b34:	e037883a 	mov	sp,fp
 c001b38:	df000017 	ldw	fp,0(sp)
 c001b3c:	dec00104 	addi	sp,sp,4
 c001b40:	f800283a 	ret

0c001b44 <clearLED>:

void clearLED(int LED) {
 c001b44:	defffe04 	addi	sp,sp,-8
 c001b48:	df000115 	stw	fp,4(sp)
 c001b4c:	df000104 	addi	fp,sp,4
 c001b50:	e13fff15 	stw	r4,-4(fp)
	IOWR_ALTERA_AVALON_PIO_DATA(LEDS_PIO_BASE,
 c001b54:	00806804 	movi	r2,416
 c001b58:	10c00037 	ldwio	r3,0(r2)
 c001b5c:	01000044 	movi	r4,1
 c001b60:	e0bfff17 	ldw	r2,-4(fp)
 c001b64:	2084983a 	sll	r2,r4,r2
 c001b68:	0084303a 	nor	r2,zero,r2
 c001b6c:	1886703a 	and	r3,r3,r2
 c001b70:	00806804 	movi	r2,416
 c001b74:	10c00035 	stwio	r3,0(r2)
			(IORD_ALTERA_AVALON_PIO_DATA(LEDS_PIO_BASE) & ~(0x001 << LED)));

}
 c001b78:	0001883a 	nop
 c001b7c:	e037883a 	mov	sp,fp
 c001b80:	df000017 	ldw	fp,0(sp)
 c001b84:	dec00104 	addi	sp,sp,4
 c001b88:	f800283a 	ret

0c001b8c <printSignedHex0>:

void printSignedHex0(signed char value) {
 c001b8c:	defffc04 	addi	sp,sp,-16
 c001b90:	dfc00315 	stw	ra,12(sp)
 c001b94:	df000215 	stw	fp,8(sp)
 c001b98:	df000204 	addi	fp,sp,8
 c001b9c:	2005883a 	mov	r2,r4
 c001ba0:	e0bfff05 	stb	r2,-4(fp)
	BYTE tens = 0;
 c001ba4:	e03ffe05 	stb	zero,-8(fp)
	BYTE ones = 0;
 c001ba8:	e03ffe45 	stb	zero,-7(fp)
	WORD pio_val = IORD_ALTERA_AVALON_PIO_DATA(HEX_DIGITS_PIO_BASE);
 c001bac:	00805404 	movi	r2,336
 c001bb0:	10800037 	ldwio	r2,0(r2)
 c001bb4:	e0bffe8d 	sth	r2,-6(fp)
	if (value < 0) {
 c001bb8:	e0bfff07 	ldb	r2,-4(fp)
 c001bbc:	1000060e 	bge	r2,zero,c001bd8 <printSignedHex0+0x4c>
		setLED(11);
 c001bc0:	010002c4 	movi	r4,11
 c001bc4:	c001b000 	call	c001b00 <setLED>
		value = -value;
 c001bc8:	e0bfff03 	ldbu	r2,-4(fp)
 c001bcc:	0085c83a 	sub	r2,zero,r2
 c001bd0:	e0bfff05 	stb	r2,-4(fp)
 c001bd4:	00000206 	br	c001be0 <printSignedHex0+0x54>
	} else {
		clearLED(11);
 c001bd8:	010002c4 	movi	r4,11
 c001bdc:	c001b440 	call	c001b44 <clearLED>
	}
	//handled hundreds
	if (value / 100)
 c001be0:	e0bfff03 	ldbu	r2,-4(fp)
 c001be4:	108018c4 	addi	r2,r2,99
 c001be8:	10803fcc 	andi	r2,r2,255
 c001bec:	108031f0 	cmpltui	r2,r2,199
 c001bf0:	1000031e 	bne	r2,zero,c001c00 <printSignedHex0+0x74>
		setLED(13);
 c001bf4:	01000344 	movi	r4,13
 c001bf8:	c001b000 	call	c001b00 <setLED>
 c001bfc:	00000206 	br	c001c08 <printSignedHex0+0x7c>
	else
		clearLED(13);
 c001c00:	01000344 	movi	r4,13
 c001c04:	c001b440 	call	c001b44 <clearLED>

	value = value % 100;
 c001c08:	e0bfff07 	ldb	r2,-4(fp)
 c001c0c:	01401904 	movi	r5,100
 c001c10:	1009883a 	mov	r4,r2
 c001c14:	c005a600 	call	c005a60 <__modsi3>
 c001c18:	e0bfff05 	stb	r2,-4(fp)
	tens = value / 10;
 c001c1c:	e0bfff07 	ldb	r2,-4(fp)
 c001c20:	01400284 	movi	r5,10
 c001c24:	1009883a 	mov	r4,r2
 c001c28:	c0059dc0 	call	c0059dc <__divsi3>
 c001c2c:	e0bffe05 	stb	r2,-8(fp)
	ones = value % 10;
 c001c30:	e0bfff07 	ldb	r2,-4(fp)
 c001c34:	01400284 	movi	r5,10
 c001c38:	1009883a 	mov	r4,r2
 c001c3c:	c005a600 	call	c005a60 <__modsi3>
 c001c40:	e0bffe45 	stb	r2,-7(fp)

	pio_val &= 0x00FF;
 c001c44:	e0bffe8b 	ldhu	r2,-6(fp)
 c001c48:	10803fcc 	andi	r2,r2,255
 c001c4c:	e0bffe8d 	sth	r2,-6(fp)
	pio_val |= (tens << 12);
 c001c50:	e0bffe03 	ldbu	r2,-8(fp)
 c001c54:	1004933a 	slli	r2,r2,12
 c001c58:	1007883a 	mov	r3,r2
 c001c5c:	e0bffe8b 	ldhu	r2,-6(fp)
 c001c60:	1884b03a 	or	r2,r3,r2
 c001c64:	e0bffe8d 	sth	r2,-6(fp)
	pio_val |= (ones << 8);
 c001c68:	e0bffe43 	ldbu	r2,-7(fp)
 c001c6c:	1004923a 	slli	r2,r2,8
 c001c70:	1007883a 	mov	r3,r2
 c001c74:	e0bffe8b 	ldhu	r2,-6(fp)
 c001c78:	1884b03a 	or	r2,r3,r2
 c001c7c:	e0bffe8d 	sth	r2,-6(fp)

	IOWR_ALTERA_AVALON_PIO_DATA(HEX_DIGITS_PIO_BASE, pio_val);
 c001c80:	e0fffe8b 	ldhu	r3,-6(fp)
 c001c84:	00805404 	movi	r2,336
 c001c88:	10c00035 	stwio	r3,0(r2)
}
 c001c8c:	0001883a 	nop
 c001c90:	e037883a 	mov	sp,fp
 c001c94:	dfc00117 	ldw	ra,4(sp)
 c001c98:	df000017 	ldw	fp,0(sp)
 c001c9c:	dec00204 	addi	sp,sp,8
 c001ca0:	f800283a 	ret

0c001ca4 <printSignedHex1>:

void printSignedHex1(signed char value) {
 c001ca4:	defffb04 	addi	sp,sp,-20
 c001ca8:	dfc00415 	stw	ra,16(sp)
 c001cac:	df000315 	stw	fp,12(sp)
 c001cb0:	df000304 	addi	fp,sp,12
 c001cb4:	2005883a 	mov	r2,r4
 c001cb8:	e0bfff05 	stb	r2,-4(fp)
	BYTE tens = 0;
 c001cbc:	e03ffd05 	stb	zero,-12(fp)
	BYTE ones = 0;
 c001cc0:	e03ffd45 	stb	zero,-11(fp)
	DWORD pio_val = IORD_ALTERA_AVALON_PIO_DATA(HEX_DIGITS_PIO_BASE);
 c001cc4:	00805404 	movi	r2,336
 c001cc8:	10800037 	ldwio	r2,0(r2)
 c001ccc:	e0bffe15 	stw	r2,-8(fp)
	if (value < 0) {
 c001cd0:	e0bfff07 	ldb	r2,-4(fp)
 c001cd4:	1000060e 	bge	r2,zero,c001cf0 <printSignedHex1+0x4c>
		setLED(10);
 c001cd8:	01000284 	movi	r4,10
 c001cdc:	c001b000 	call	c001b00 <setLED>
		value = -value;
 c001ce0:	e0bfff03 	ldbu	r2,-4(fp)
 c001ce4:	0085c83a 	sub	r2,zero,r2
 c001ce8:	e0bfff05 	stb	r2,-4(fp)
 c001cec:	00000206 	br	c001cf8 <printSignedHex1+0x54>
	} else {
		clearLED(10);
 c001cf0:	01000284 	movi	r4,10
 c001cf4:	c001b440 	call	c001b44 <clearLED>
	}
	//handled hundreds
	if (value / 100)
 c001cf8:	e0bfff03 	ldbu	r2,-4(fp)
 c001cfc:	108018c4 	addi	r2,r2,99
 c001d00:	10803fcc 	andi	r2,r2,255
 c001d04:	108031f0 	cmpltui	r2,r2,199
 c001d08:	1000031e 	bne	r2,zero,c001d18 <printSignedHex1+0x74>
		setLED(12);
 c001d0c:	01000304 	movi	r4,12
 c001d10:	c001b000 	call	c001b00 <setLED>
 c001d14:	00000206 	br	c001d20 <printSignedHex1+0x7c>
	else
		clearLED(12);
 c001d18:	01000304 	movi	r4,12
 c001d1c:	c001b440 	call	c001b44 <clearLED>

	value = value % 100;
 c001d20:	e0bfff07 	ldb	r2,-4(fp)
 c001d24:	01401904 	movi	r5,100
 c001d28:	1009883a 	mov	r4,r2
 c001d2c:	c005a600 	call	c005a60 <__modsi3>
 c001d30:	e0bfff05 	stb	r2,-4(fp)
	tens = value / 10;
 c001d34:	e0bfff07 	ldb	r2,-4(fp)
 c001d38:	01400284 	movi	r5,10
 c001d3c:	1009883a 	mov	r4,r2
 c001d40:	c0059dc0 	call	c0059dc <__divsi3>
 c001d44:	e0bffd05 	stb	r2,-12(fp)
	ones = value % 10;
 c001d48:	e0bfff07 	ldb	r2,-4(fp)
 c001d4c:	01400284 	movi	r5,10
 c001d50:	1009883a 	mov	r4,r2
 c001d54:	c005a600 	call	c005a60 <__modsi3>
 c001d58:	e0bffd45 	stb	r2,-11(fp)
	tens = value / 10;
 c001d5c:	e0bfff07 	ldb	r2,-4(fp)
 c001d60:	01400284 	movi	r5,10
 c001d64:	1009883a 	mov	r4,r2
 c001d68:	c0059dc0 	call	c0059dc <__divsi3>
 c001d6c:	e0bffd05 	stb	r2,-12(fp)
	ones = value % 10;
 c001d70:	e0bfff07 	ldb	r2,-4(fp)
 c001d74:	01400284 	movi	r5,10
 c001d78:	1009883a 	mov	r4,r2
 c001d7c:	c005a600 	call	c005a60 <__modsi3>
 c001d80:	e0bffd45 	stb	r2,-11(fp)

	pio_val &= 0xFF00;
 c001d84:	e0bffe17 	ldw	r2,-8(fp)
 c001d88:	10bfc00c 	andi	r2,r2,65280
 c001d8c:	e0bffe15 	stw	r2,-8(fp)
	pio_val |= (tens << 4);
 c001d90:	e0bffd03 	ldbu	r2,-12(fp)
 c001d94:	1004913a 	slli	r2,r2,4
 c001d98:	1007883a 	mov	r3,r2
 c001d9c:	e0bffe17 	ldw	r2,-8(fp)
 c001da0:	10c4b03a 	or	r2,r2,r3
 c001da4:	e0bffe15 	stw	r2,-8(fp)
	pio_val |= (ones << 0);
 c001da8:	e0bffd43 	ldbu	r2,-11(fp)
 c001dac:	e0fffe17 	ldw	r3,-8(fp)
 c001db0:	1884b03a 	or	r2,r3,r2
 c001db4:	e0bffe15 	stw	r2,-8(fp)

	IOWR_ALTERA_AVALON_PIO_DATA(HEX_DIGITS_PIO_BASE, pio_val);
 c001db8:	e0fffe17 	ldw	r3,-8(fp)
 c001dbc:	00805404 	movi	r2,336
 c001dc0:	10c00035 	stwio	r3,0(r2)
}
 c001dc4:	0001883a 	nop
 c001dc8:	e037883a 	mov	sp,fp
 c001dcc:	dfc00117 	ldw	ra,4(sp)
 c001dd0:	df000017 	ldw	fp,0(sp)
 c001dd4:	dec00204 	addi	sp,sp,8
 c001dd8:	f800283a 	ret

0c001ddc <setKeycode>:

void setKeycode(WORD keycode) {
 c001ddc:	defffe04 	addi	sp,sp,-8
 c001de0:	df000115 	stw	fp,4(sp)
 c001de4:	df000104 	addi	fp,sp,4
 c001de8:	2005883a 	mov	r2,r4
 c001dec:	e0bfff0d 	sth	r2,-4(fp)
	IOWR_ALTERA_AVALON_PIO_DATA(0x00000160, keycode);
 c001df0:	e0ffff0b 	ldhu	r3,-4(fp)
 c001df4:	00805804 	movi	r2,352
 c001df8:	10c00035 	stwio	r3,0(r2)
}
 c001dfc:	0001883a 	nop
 c001e00:	e037883a 	mov	sp,fp
 c001e04:	df000017 	ldw	fp,0(sp)
 c001e08:	dec00104 	addi	sp,sp,4
 c001e0c:	f800283a 	ret

0c001e10 <TetrisPopulate>:
TetrisGameState TetrisPopulate(int x, int y, int boardcolor, int width, int height, int difficult) {
 c001e10:	deffc404 	addi	sp,sp,-240
 c001e14:	dfc03b15 	stw	ra,236(sp)
 c001e18:	df003a15 	stw	fp,232(sp)
 c001e1c:	df003a04 	addi	fp,sp,232
 c001e20:	e13ffc15 	stw	r4,-16(fp)
 c001e24:	e17ffd15 	stw	r5,-12(fp)
 c001e28:	e1bffe15 	stw	r6,-8(fp)
 c001e2c:	e1ffff15 	stw	r7,-4(fp)
	TetrisGameState state; //new game
	state.boardColor = boardcolor; //set board color
 c001e30:	e0bfff17 	ldw	r2,-4(fp)
 c001e34:	e0bfe015 	stw	r2,-128(fp)
	state.nextBlock = rand() % tetrisBlockCount; //intize first block
 c001e38:	c0067840 	call	c006784 <rand>
 c001e3c:	1007883a 	mov	r3,r2
 c001e40:	008001c4 	movi	r2,7
 c001e44:	100b883a 	mov	r5,r2
 c001e48:	1809883a 	mov	r4,r3
 c001e4c:	c005a600 	call	c005a60 <__modsi3>
 c001e50:	e0bfe115 	stw	r2,-124(fp)
	int color = (rand() % 15)+1;
 c001e54:	c0067840 	call	c006784 <rand>
 c001e58:	014003c4 	movi	r5,15
 c001e5c:	1009883a 	mov	r4,r2
 c001e60:	c005a600 	call	c005a60 <__modsi3>
 c001e64:	10800044 	addi	r2,r2,1
 c001e68:	e0bfc815 	stw	r2,-224(fp)
	if (color == boardcolor || color == nextColor) color = (rand() % 15)+1;
 c001e6c:	e0ffc817 	ldw	r3,-224(fp)
 c001e70:	e0bfff17 	ldw	r2,-4(fp)
 c001e74:	18800326 	beq	r3,r2,c001e84 <TetrisPopulate+0x74>
 c001e78:	d0a7aa17 	ldw	r2,-24920(gp)
 c001e7c:	e0ffc817 	ldw	r3,-224(fp)
 c001e80:	1880061e 	bne	r3,r2,c001e9c <TetrisPopulate+0x8c>
 c001e84:	c0067840 	call	c006784 <rand>
 c001e88:	014003c4 	movi	r5,15
 c001e8c:	1009883a 	mov	r4,r2
 c001e90:	c005a600 	call	c005a60 <__modsi3>
 c001e94:	10800044 	addi	r2,r2,1
 c001e98:	e0bfc815 	stw	r2,-224(fp)
	state.nextColor = color; //initize first color
 c001e9c:	e0bfc817 	ldw	r2,-224(fp)
 c001ea0:	e0bfe215 	stw	r2,-120(fp)
	TetrisInitialize(&state, width, height, x, y,difficult);
 c001ea4:	e0ffcb04 	addi	r3,fp,-212
 c001ea8:	e0800417 	ldw	r2,16(fp)
 c001eac:	d8800115 	stw	r2,4(sp)
 c001eb0:	e0bffe17 	ldw	r2,-8(fp)
 c001eb4:	d8800015 	stw	r2,0(sp)
 c001eb8:	e1fffd17 	ldw	r7,-12(fp)
 c001ebc:	e1800317 	ldw	r6,12(fp)
 c001ec0:	e1400217 	ldw	r5,8(fp)
 c001ec4:	1809883a 	mov	r4,r3
 c001ec8:	c0005a40 	call	c0005a4 <TetrisInitialize>
	TetrisCreateBlock(&state);
 c001ecc:	e0bfcb04 	addi	r2,fp,-212
 c001ed0:	1009883a 	mov	r4,r2
 c001ed4:	c0009b80 	call	c0009b8 <TetrisCreateBlock>
	VGAwriteText(x+width-(strlen("TETRIS")/2),y-2,2,0,"TETRIS");
 c001ed8:	e0fffd17 	ldw	r3,-12(fp)
 c001edc:	e0800217 	ldw	r2,8(fp)
 c001ee0:	1885883a 	add	r2,r3,r2
 c001ee4:	10ffff44 	addi	r3,r2,-3
 c001ee8:	e0bffe17 	ldw	r2,-8(fp)
 c001eec:	113fff84 	addi	r4,r2,-2
 c001ef0:	008300b4 	movhi	r2,3074
 c001ef4:	10a77704 	addi	r2,r2,-25124
 c001ef8:	d8800015 	stw	r2,0(sp)
 c001efc:	000f883a 	mov	r7,zero
 c001f00:	01800084 	movi	r6,2
 c001f04:	200b883a 	mov	r5,r4
 c001f08:	1809883a 	mov	r4,r3
 c001f0c:	c0038b00 	call	c0038b0 <VGAwriteText>
    for (int i = 0; i < 9; i++) {
 c001f10:	e03fc915 	stw	zero,-220(fp)
 c001f14:	00001606 	br	c001f70 <TetrisPopulate+0x160>
    	for (int j = 0; j < 6; j++) {
 c001f18:	e03fca15 	stw	zero,-216(fp)
 c001f1c:	00000e06 	br	c001f58 <TetrisPopulate+0x148>
    		VGADrawColorBox(x-10+i,y+10+j,boardcolor);
 c001f20:	e0bffd17 	ldw	r2,-12(fp)
 c001f24:	10fffd84 	addi	r3,r2,-10
 c001f28:	e0bfc917 	ldw	r2,-220(fp)
 c001f2c:	1889883a 	add	r4,r3,r2
 c001f30:	e0bffe17 	ldw	r2,-8(fp)
 c001f34:	10c00284 	addi	r3,r2,10
 c001f38:	e0bfca17 	ldw	r2,-216(fp)
 c001f3c:	1885883a 	add	r2,r3,r2
 c001f40:	e1bfff17 	ldw	r6,-4(fp)
 c001f44:	100b883a 	mov	r5,r2
 c001f48:	c0038440 	call	c003844 <VGADrawColorBox>
	state.nextColor = color; //initize first color
	TetrisInitialize(&state, width, height, x, y,difficult);
	TetrisCreateBlock(&state);
	VGAwriteText(x+width-(strlen("TETRIS")/2),y-2,2,0,"TETRIS");
    for (int i = 0; i < 9; i++) {
    	for (int j = 0; j < 6; j++) {
 c001f4c:	e0bfca17 	ldw	r2,-216(fp)
 c001f50:	10800044 	addi	r2,r2,1
 c001f54:	e0bfca15 	stw	r2,-216(fp)
 c001f58:	e0bfca17 	ldw	r2,-216(fp)
 c001f5c:	10800190 	cmplti	r2,r2,6
 c001f60:	103fef1e 	bne	r2,zero,c001f20 <__alt_data_end+0xfc001f20>
	if (color == boardcolor || color == nextColor) color = (rand() % 15)+1;
	state.nextColor = color; //initize first color
	TetrisInitialize(&state, width, height, x, y,difficult);
	TetrisCreateBlock(&state);
	VGAwriteText(x+width-(strlen("TETRIS")/2),y-2,2,0,"TETRIS");
    for (int i = 0; i < 9; i++) {
 c001f64:	e0bfc917 	ldw	r2,-220(fp)
 c001f68:	10800044 	addi	r2,r2,1
 c001f6c:	e0bfc915 	stw	r2,-220(fp)
 c001f70:	e0bfc917 	ldw	r2,-220(fp)
 c001f74:	10800250 	cmplti	r2,r2,9
 c001f78:	103fe71e 	bne	r2,zero,c001f18 <__alt_data_end+0xfc001f18>
    	for (int j = 0; j < 6; j++) {
    		VGADrawColorBox(x-10+i,y+10+j,boardcolor);
    	}
    }
    VGAwriteText(x-10, y+10, 14, boardcolor, "SCORE:");
 c001f7c:	e0bffd17 	ldw	r2,-12(fp)
 c001f80:	10fffd84 	addi	r3,r2,-10
 c001f84:	e0bffe17 	ldw	r2,-8(fp)
 c001f88:	11000284 	addi	r4,r2,10
 c001f8c:	008300b4 	movhi	r2,3074
 c001f90:	10a77904 	addi	r2,r2,-25116
 c001f94:	d8800015 	stw	r2,0(sp)
 c001f98:	e1ffff17 	ldw	r7,-4(fp)
 c001f9c:	01800384 	movi	r6,14
 c001fa0:	200b883a 	mov	r5,r4
 c001fa4:	1809883a 	mov	r4,r3
 c001fa8:	c0038b00 	call	c0038b0 <VGAwriteText>
    VGAwriteText(x-10, y+12, 14, boardcolor, "0");
 c001fac:	e0bffd17 	ldw	r2,-12(fp)
 c001fb0:	10fffd84 	addi	r3,r2,-10
 c001fb4:	e0bffe17 	ldw	r2,-8(fp)
 c001fb8:	11000304 	addi	r4,r2,12
 c001fbc:	008300b4 	movhi	r2,3074
 c001fc0:	10a72904 	addi	r2,r2,-25436
 c001fc4:	d8800015 	stw	r2,0(sp)
 c001fc8:	e1ffff17 	ldw	r7,-4(fp)
 c001fcc:	01800384 	movi	r6,14
 c001fd0:	200b883a 	mov	r5,r4
 c001fd4:	1809883a 	mov	r4,r3
 c001fd8:	c0038b00 	call	c0038b0 <VGAwriteText>
    return state;
 c001fdc:	e0bffc17 	ldw	r2,-16(fp)
 c001fe0:	1009883a 	mov	r4,r2
 c001fe4:	e0bfcb04 	addi	r2,fp,-212
 c001fe8:	00c03104 	movi	r3,196
 c001fec:	180d883a 	mov	r6,r3
 c001ff0:	100b883a 	mov	r5,r2
 c001ff4:	c0064c40 	call	c0064c4 <memcpy>
}
 c001ff8:	e0bffc17 	ldw	r2,-16(fp)
 c001ffc:	e037883a 	mov	sp,fp
 c002000:	dfc00117 	ldw	ra,4(sp)
 c002004:	df000017 	ldw	fp,0(sp)
 c002008:	dec00204 	addi	sp,sp,8
 c00200c:	f800283a 	ret

0c002010 <gameMenu>:

void gameMenu() {
 c002010:	defffb04 	addi	sp,sp,-20
 c002014:	dfc00415 	stw	ra,16(sp)
 c002018:	df000315 	stw	fp,12(sp)
 c00201c:	df000304 	addi	fp,sp,12
	for (int i = 0; i < 13; i++) {
 c002020:	e03ffe15 	stw	zero,-8(fp)
 c002024:	00001306 	br	c002074 <gameMenu+0x64>
		for (int j = 0; j < 8; j++) {
 c002028:	e03fff15 	stw	zero,-4(fp)
 c00202c:	00000b06 	br	c00205c <gameMenu+0x4c>
    		VGADrawColorBox(33+i,24+j,1);
 c002030:	e0bffe17 	ldw	r2,-8(fp)
 c002034:	10c00844 	addi	r3,r2,33
 c002038:	e0bfff17 	ldw	r2,-4(fp)
 c00203c:	10800604 	addi	r2,r2,24
 c002040:	01800044 	movi	r6,1
 c002044:	100b883a 	mov	r5,r2
 c002048:	1809883a 	mov	r4,r3
 c00204c:	c0038440 	call	c003844 <VGADrawColorBox>
    return state;
}

void gameMenu() {
	for (int i = 0; i < 13; i++) {
		for (int j = 0; j < 8; j++) {
 c002050:	e0bfff17 	ldw	r2,-4(fp)
 c002054:	10800044 	addi	r2,r2,1
 c002058:	e0bfff15 	stw	r2,-4(fp)
 c00205c:	e0bfff17 	ldw	r2,-4(fp)
 c002060:	10800210 	cmplti	r2,r2,8
 c002064:	103ff21e 	bne	r2,zero,c002030 <__alt_data_end+0xfc002030>
    VGAwriteText(x-10, y+12, 14, boardcolor, "0");
    return state;
}

void gameMenu() {
	for (int i = 0; i < 13; i++) {
 c002068:	e0bffe17 	ldw	r2,-8(fp)
 c00206c:	10800044 	addi	r2,r2,1
 c002070:	e0bffe15 	stw	r2,-8(fp)
 c002074:	e0bffe17 	ldw	r2,-8(fp)
 c002078:	10800350 	cmplti	r2,r2,13
 c00207c:	103fea1e 	bne	r2,zero,c002028 <__alt_data_end+0xfc002028>
		for (int j = 0; j < 8; j++) {
    		VGADrawColorBox(33+i,24+j,1);
		}
	}
    VGAwriteText(34, 25, 14, 1, " 1 PLAYER");
 c002080:	008300b4 	movhi	r2,3074
 c002084:	10a77b04 	addi	r2,r2,-25108
 c002088:	d8800015 	stw	r2,0(sp)
 c00208c:	01c00044 	movi	r7,1
 c002090:	01800384 	movi	r6,14
 c002094:	01400644 	movi	r5,25
 c002098:	01000884 	movi	r4,34
 c00209c:	c0038b00 	call	c0038b0 <VGAwriteText>
    VGAwriteText(34, 27, 14, 1, " 2 PLAYERS");
 c0020a0:	008300b4 	movhi	r2,3074
 c0020a4:	10a77e04 	addi	r2,r2,-25096
 c0020a8:	d8800015 	stw	r2,0(sp)
 c0020ac:	01c00044 	movi	r7,1
 c0020b0:	01800384 	movi	r6,14
 c0020b4:	014006c4 	movi	r5,27
 c0020b8:	01000884 	movi	r4,34
 c0020bc:	c0038b00 	call	c0038b0 <VGAwriteText>
    VGAwriteText(34, 29, 14, 1, "PRESS ENTER");
 c0020c0:	008300b4 	movhi	r2,3074
 c0020c4:	10a78104 	addi	r2,r2,-25084
 c0020c8:	d8800015 	stw	r2,0(sp)
 c0020cc:	01c00044 	movi	r7,1
 c0020d0:	01800384 	movi	r6,14
 c0020d4:	01400744 	movi	r5,29
 c0020d8:	01000884 	movi	r4,34
 c0020dc:	c0038b00 	call	c0038b0 <VGAwriteText>
    VGAwriteText(34, 31, 14, 1, "  TO PLAY ");
 c0020e0:	008300b4 	movhi	r2,3074
 c0020e4:	10a78404 	addi	r2,r2,-25072
 c0020e8:	d8800015 	stw	r2,0(sp)
 c0020ec:	01c00044 	movi	r7,1
 c0020f0:	01800384 	movi	r6,14
 c0020f4:	014007c4 	movi	r5,31
 c0020f8:	01000884 	movi	r4,34
 c0020fc:	c0038b00 	call	c0038b0 <VGAwriteText>
	VGAwriteText(34, 25, 14, 1, ">");
 c002100:	008300b4 	movhi	r2,3074
 c002104:	10a78704 	addi	r2,r2,-25060
 c002108:	d8800015 	stw	r2,0(sp)
 c00210c:	01c00044 	movi	r7,1
 c002110:	01800384 	movi	r6,14
 c002114:	01400644 	movi	r5,25
 c002118:	01000884 	movi	r4,34
 c00211c:	c0038b00 	call	c0038b0 <VGAwriteText>

	VGAwriteText(10,46, 14, 1, "Instructions: W to rotate; AD L/R; ESC to pause; ENTER to restart");
 c002120:	008300b4 	movhi	r2,3074
 c002124:	10a78804 	addi	r2,r2,-25056
 c002128:	d8800015 	stw	r2,0(sp)
 c00212c:	01c00044 	movi	r7,1
 c002130:	01800384 	movi	r6,14
 c002134:	01400b84 	movi	r5,46
 c002138:	01000284 	movi	r4,10
 c00213c:	c0038b00 	call	c0038b0 <VGAwriteText>
}
 c002140:	0001883a 	nop
 c002144:	e037883a 	mov	sp,fp
 c002148:	dfc00117 	ldw	ra,4(sp)
 c00214c:	df000017 	ldw	fp,0(sp)
 c002150:	dec00204 	addi	sp,sp,8
 c002154:	f800283a 	ret

0c002158 <moveMenu>:

int moveMenu(int given) {
 c002158:	defffb04 	addi	sp,sp,-20
 c00215c:	dfc00415 	stw	ra,16(sp)
 c002160:	df000315 	stw	fp,12(sp)
 c002164:	df000304 	addi	fp,sp,12
 c002168:	e13fff15 	stw	r4,-4(fp)
	int toReturn;
	if (given == 0) {
 c00216c:	e0bfff17 	ldw	r2,-4(fp)
 c002170:	1000291e 	bne	r2,zero,c002218 <moveMenu+0xc0>
		if (arrowPos == 27) {
 c002174:	d0a00117 	ldw	r2,-32764(gp)
 c002178:	108006d8 	cmpnei	r2,r2,27
 c00217c:	1000131e 	bne	r2,zero,c0021cc <moveMenu+0x74>
			VGAwriteText(34, 25, 14, 1, ">");
 c002180:	008300b4 	movhi	r2,3074
 c002184:	10a78704 	addi	r2,r2,-25060
 c002188:	d8800015 	stw	r2,0(sp)
 c00218c:	01c00044 	movi	r7,1
 c002190:	01800384 	movi	r6,14
 c002194:	01400644 	movi	r5,25
 c002198:	01000884 	movi	r4,34
 c00219c:	c0038b00 	call	c0038b0 <VGAwriteText>
			VGAwriteText(34, 27, 1, 1, " ");
 c0021a0:	008300b4 	movhi	r2,3074
 c0021a4:	10a79904 	addi	r2,r2,-24988
 c0021a8:	d8800015 	stw	r2,0(sp)
 c0021ac:	01c00044 	movi	r7,1
 c0021b0:	01800044 	movi	r6,1
 c0021b4:	014006c4 	movi	r5,27
 c0021b8:	01000884 	movi	r4,34
 c0021bc:	c0038b00 	call	c0038b0 <VGAwriteText>
			toReturn = 25;
 c0021c0:	00800644 	movi	r2,25
 c0021c4:	e0bffe15 	stw	r2,-8(fp)
 c0021c8:	00009a06 	br	c002434 <moveMenu+0x2dc>
		} else {
			VGAwriteText(34, 27, 14, 1, ">");
 c0021cc:	008300b4 	movhi	r2,3074
 c0021d0:	10a78704 	addi	r2,r2,-25060
 c0021d4:	d8800015 	stw	r2,0(sp)
 c0021d8:	01c00044 	movi	r7,1
 c0021dc:	01800384 	movi	r6,14
 c0021e0:	014006c4 	movi	r5,27
 c0021e4:	01000884 	movi	r4,34
 c0021e8:	c0038b00 	call	c0038b0 <VGAwriteText>
			VGAwriteText(34, 25, 1, 1, " ");
 c0021ec:	008300b4 	movhi	r2,3074
 c0021f0:	10a79904 	addi	r2,r2,-24988
 c0021f4:	d8800015 	stw	r2,0(sp)
 c0021f8:	01c00044 	movi	r7,1
 c0021fc:	01800044 	movi	r6,1
 c002200:	01400644 	movi	r5,25
 c002204:	01000884 	movi	r4,34
 c002208:	c0038b00 	call	c0038b0 <VGAwriteText>
			toReturn = 27;
 c00220c:	008006c4 	movi	r2,27
 c002210:	e0bffe15 	stw	r2,-8(fp)
 c002214:	00008706 	br	c002434 <moveMenu+0x2dc>
		}
	} else if (given == 1) {
 c002218:	e0bfff17 	ldw	r2,-4(fp)
 c00221c:	10800058 	cmpnei	r2,r2,1
 c002220:	1000411e 	bne	r2,zero,c002328 <moveMenu+0x1d0>
		printf("di1:%d",difficultyPos1);
 c002224:	d0a7a417 	ldw	r2,-24944(gp)
 c002228:	100b883a 	mov	r5,r2
 c00222c:	010300b4 	movhi	r4,3074
 c002230:	21279a04 	addi	r4,r4,-24984
 c002234:	c00663c0 	call	c00663c <printf>
		if (difficultyPos1 == 0 || (difficultyPos1 >= 16 && difficultyPos1 < 20)) {
 c002238:	d0a7a417 	ldw	r2,-24944(gp)
 c00223c:	10000626 	beq	r2,zero,c002258 <moveMenu+0x100>
 c002240:	d0a7a417 	ldw	r2,-24944(gp)
 c002244:	10800410 	cmplti	r2,r2,16
 c002248:	10001d1e 	bne	r2,zero,c0022c0 <moveMenu+0x168>
 c00224c:	d0a7a417 	ldw	r2,-24944(gp)
 c002250:	10800508 	cmpgei	r2,r2,20
 c002254:	10001a1e 	bne	r2,zero,c0022c0 <moveMenu+0x168>
			if (difficultyPos1 == 0) difficultyPos1 = 16;
 c002258:	d0a7a417 	ldw	r2,-24944(gp)
 c00225c:	1000021e 	bne	r2,zero,c002268 <moveMenu+0x110>
 c002260:	00800404 	movi	r2,16
 c002264:	d0a7a415 	stw	r2,-24944(gp)
			VGAwriteText(34, difficultyPos1, 1, 1, " ");
 c002268:	d0e7a417 	ldw	r3,-24944(gp)
 c00226c:	008300b4 	movhi	r2,3074
 c002270:	10a79904 	addi	r2,r2,-24988
 c002274:	d8800015 	stw	r2,0(sp)
 c002278:	01c00044 	movi	r7,1
 c00227c:	01800044 	movi	r6,1
 c002280:	180b883a 	mov	r5,r3
 c002284:	01000884 	movi	r4,34
 c002288:	c0038b00 	call	c0038b0 <VGAwriteText>
			difficultyPos1 = difficultyPos1+2;
 c00228c:	d0a7a417 	ldw	r2,-24944(gp)
 c002290:	10800084 	addi	r2,r2,2
 c002294:	d0a7a415 	stw	r2,-24944(gp)
			VGAwriteText(34, difficultyPos1, 14, 1, ">");
 c002298:	d0e7a417 	ldw	r3,-24944(gp)
 c00229c:	008300b4 	movhi	r2,3074
 c0022a0:	10a78704 	addi	r2,r2,-25060
 c0022a4:	d8800015 	stw	r2,0(sp)
 c0022a8:	01c00044 	movi	r7,1
 c0022ac:	01800384 	movi	r6,14
 c0022b0:	180b883a 	mov	r5,r3
 c0022b4:	01000884 	movi	r4,34
 c0022b8:	c0038b00 	call	c0038b0 <VGAwriteText>
			VGAwriteText(34, 25, 1, 1, " ");
			toReturn = 27;
		}
	} else if (given == 1) {
		printf("di1:%d",difficultyPos1);
		if (difficultyPos1 == 0 || (difficultyPos1 >= 16 && difficultyPos1 < 20)) {
 c0022bc:	00001706 	br	c00231c <moveMenu+0x1c4>
			if (difficultyPos1 == 0) difficultyPos1 = 16;
			VGAwriteText(34, difficultyPos1, 1, 1, " ");
			difficultyPos1 = difficultyPos1+2;
			VGAwriteText(34, difficultyPos1, 14, 1, ">");
		} else if (difficultyPos1 == 20) {
 c0022c0:	d0a7a417 	ldw	r2,-24944(gp)
 c0022c4:	10800518 	cmpnei	r2,r2,20
 c0022c8:	1000141e 	bne	r2,zero,c00231c <moveMenu+0x1c4>
			VGAwriteText(34, difficultyPos1, 1, 1, " ");
 c0022cc:	d0e7a417 	ldw	r3,-24944(gp)
 c0022d0:	008300b4 	movhi	r2,3074
 c0022d4:	10a79904 	addi	r2,r2,-24988
 c0022d8:	d8800015 	stw	r2,0(sp)
 c0022dc:	01c00044 	movi	r7,1
 c0022e0:	01800044 	movi	r6,1
 c0022e4:	180b883a 	mov	r5,r3
 c0022e8:	01000884 	movi	r4,34
 c0022ec:	c0038b00 	call	c0038b0 <VGAwriteText>
			difficultyPos1 = 16;
 c0022f0:	00800404 	movi	r2,16
 c0022f4:	d0a7a415 	stw	r2,-24944(gp)
			VGAwriteText(34, difficultyPos1, 14, 1, ">");
 c0022f8:	d0e7a417 	ldw	r3,-24944(gp)
 c0022fc:	008300b4 	movhi	r2,3074
 c002300:	10a78704 	addi	r2,r2,-25060
 c002304:	d8800015 	stw	r2,0(sp)
 c002308:	01c00044 	movi	r7,1
 c00230c:	01800384 	movi	r6,14
 c002310:	180b883a 	mov	r5,r3
 c002314:	01000884 	movi	r4,34
 c002318:	c0038b00 	call	c0038b0 <VGAwriteText>
		}
		toReturn = difficultyPos1;
 c00231c:	d0a7a417 	ldw	r2,-24944(gp)
 c002320:	e0bffe15 	stw	r2,-8(fp)
 c002324:	00004306 	br	c002434 <moveMenu+0x2dc>
	} else if (given == 2) {
 c002328:	e0bfff17 	ldw	r2,-4(fp)
 c00232c:	10800098 	cmpnei	r2,r2,2
 c002330:	1000401e 	bne	r2,zero,c002434 <moveMenu+0x2dc>
		printf("di2:%d",difficultyPos2);
 c002334:	d0a7a517 	ldw	r2,-24940(gp)
 c002338:	100b883a 	mov	r5,r2
 c00233c:	010300b4 	movhi	r4,3074
 c002340:	21279c04 	addi	r4,r4,-24976
 c002344:	c00663c0 	call	c00663c <printf>
		if (difficultyPos2 == 0 || (difficultyPos2 >= 36 && difficultyPos2 < 40)) {
 c002348:	d0a7a517 	ldw	r2,-24940(gp)
 c00234c:	10000626 	beq	r2,zero,c002368 <moveMenu+0x210>
 c002350:	d0a7a517 	ldw	r2,-24940(gp)
 c002354:	10800910 	cmplti	r2,r2,36
 c002358:	10001d1e 	bne	r2,zero,c0023d0 <moveMenu+0x278>
 c00235c:	d0a7a517 	ldw	r2,-24940(gp)
 c002360:	10800a08 	cmpgei	r2,r2,40
 c002364:	10001a1e 	bne	r2,zero,c0023d0 <moveMenu+0x278>
			if (difficultyPos2 == 0) difficultyPos2 = 36;
 c002368:	d0a7a517 	ldw	r2,-24940(gp)
 c00236c:	1000021e 	bne	r2,zero,c002378 <moveMenu+0x220>
 c002370:	00800904 	movi	r2,36
 c002374:	d0a7a515 	stw	r2,-24940(gp)
			VGAwriteText(34, difficultyPos2, 1, 1, " ");
 c002378:	d0e7a517 	ldw	r3,-24940(gp)
 c00237c:	008300b4 	movhi	r2,3074
 c002380:	10a79904 	addi	r2,r2,-24988
 c002384:	d8800015 	stw	r2,0(sp)
 c002388:	01c00044 	movi	r7,1
 c00238c:	01800044 	movi	r6,1
 c002390:	180b883a 	mov	r5,r3
 c002394:	01000884 	movi	r4,34
 c002398:	c0038b00 	call	c0038b0 <VGAwriteText>
			difficultyPos2 = difficultyPos2+2;
 c00239c:	d0a7a517 	ldw	r2,-24940(gp)
 c0023a0:	10800084 	addi	r2,r2,2
 c0023a4:	d0a7a515 	stw	r2,-24940(gp)
			VGAwriteText(34, difficultyPos2, 14, 1, ">");
 c0023a8:	d0e7a517 	ldw	r3,-24940(gp)
 c0023ac:	008300b4 	movhi	r2,3074
 c0023b0:	10a78704 	addi	r2,r2,-25060
 c0023b4:	d8800015 	stw	r2,0(sp)
 c0023b8:	01c00044 	movi	r7,1
 c0023bc:	01800384 	movi	r6,14
 c0023c0:	180b883a 	mov	r5,r3
 c0023c4:	01000884 	movi	r4,34
 c0023c8:	c0038b00 	call	c0038b0 <VGAwriteText>
			VGAwriteText(34, difficultyPos1, 14, 1, ">");
		}
		toReturn = difficultyPos1;
	} else if (given == 2) {
		printf("di2:%d",difficultyPos2);
		if (difficultyPos2 == 0 || (difficultyPos2 >= 36 && difficultyPos2 < 40)) {
 c0023cc:	00001706 	br	c00242c <moveMenu+0x2d4>
			if (difficultyPos2 == 0) difficultyPos2 = 36;
			VGAwriteText(34, difficultyPos2, 1, 1, " ");
			difficultyPos2 = difficultyPos2+2;
			VGAwriteText(34, difficultyPos2, 14, 1, ">");
		} else if (difficultyPos2 == 40) {
 c0023d0:	d0a7a517 	ldw	r2,-24940(gp)
 c0023d4:	10800a18 	cmpnei	r2,r2,40
 c0023d8:	1000141e 	bne	r2,zero,c00242c <moveMenu+0x2d4>
			VGAwriteText(34, difficultyPos2, 1, 1, " ");
 c0023dc:	d0e7a517 	ldw	r3,-24940(gp)
 c0023e0:	008300b4 	movhi	r2,3074
 c0023e4:	10a79904 	addi	r2,r2,-24988
 c0023e8:	d8800015 	stw	r2,0(sp)
 c0023ec:	01c00044 	movi	r7,1
 c0023f0:	01800044 	movi	r6,1
 c0023f4:	180b883a 	mov	r5,r3
 c0023f8:	01000884 	movi	r4,34
 c0023fc:	c0038b00 	call	c0038b0 <VGAwriteText>
			difficultyPos2 = 36;
 c002400:	00800904 	movi	r2,36
 c002404:	d0a7a515 	stw	r2,-24940(gp)
			VGAwriteText(34, difficultyPos2, 14, 1, ">");
 c002408:	d0e7a517 	ldw	r3,-24940(gp)
 c00240c:	008300b4 	movhi	r2,3074
 c002410:	10a78704 	addi	r2,r2,-25060
 c002414:	d8800015 	stw	r2,0(sp)
 c002418:	01c00044 	movi	r7,1
 c00241c:	01800384 	movi	r6,14
 c002420:	180b883a 	mov	r5,r3
 c002424:	01000884 	movi	r4,34
 c002428:	c0038b00 	call	c0038b0 <VGAwriteText>
		}
		toReturn = difficultyPos2;
 c00242c:	d0a7a517 	ldw	r2,-24940(gp)
 c002430:	e0bffe15 	stw	r2,-8(fp)
	}
	return toReturn;
 c002434:	e0bffe17 	ldw	r2,-8(fp)
}
 c002438:	e037883a 	mov	sp,fp
 c00243c:	dfc00117 	ldw	ra,4(sp)
 c002440:	df000017 	ldw	fp,0(sp)
 c002444:	dec00204 	addi	sp,sp,8
 c002448:	f800283a 	ret

0c00244c <clearMenu>:

void clearMenu() {
 c00244c:	defffc04 	addi	sp,sp,-16
 c002450:	dfc00315 	stw	ra,12(sp)
 c002454:	df000215 	stw	fp,8(sp)
 c002458:	df000204 	addi	fp,sp,8
	for (int i = 0; i < 14; i++) {
 c00245c:	e03ffe15 	stw	zero,-8(fp)
 c002460:	00001306 	br	c0024b0 <clearMenu+0x64>
		for (int j = 0; j < 28; j++) {
 c002464:	e03fff15 	stw	zero,-4(fp)
 c002468:	00000b06 	br	c002498 <clearMenu+0x4c>
    		VGADrawColorBox(32+i,14+j,0);
 c00246c:	e0bffe17 	ldw	r2,-8(fp)
 c002470:	10c00804 	addi	r3,r2,32
 c002474:	e0bfff17 	ldw	r2,-4(fp)
 c002478:	10800384 	addi	r2,r2,14
 c00247c:	000d883a 	mov	r6,zero
 c002480:	100b883a 	mov	r5,r2
 c002484:	1809883a 	mov	r4,r3
 c002488:	c0038440 	call	c003844 <VGADrawColorBox>
	return toReturn;
}

void clearMenu() {
	for (int i = 0; i < 14; i++) {
		for (int j = 0; j < 28; j++) {
 c00248c:	e0bfff17 	ldw	r2,-4(fp)
 c002490:	10800044 	addi	r2,r2,1
 c002494:	e0bfff15 	stw	r2,-4(fp)
 c002498:	e0bfff17 	ldw	r2,-4(fp)
 c00249c:	10800710 	cmplti	r2,r2,28
 c0024a0:	103ff21e 	bne	r2,zero,c00246c <__alt_data_end+0xfc00246c>
	}
	return toReturn;
}

void clearMenu() {
	for (int i = 0; i < 14; i++) {
 c0024a4:	e0bffe17 	ldw	r2,-8(fp)
 c0024a8:	10800044 	addi	r2,r2,1
 c0024ac:	e0bffe15 	stw	r2,-8(fp)
 c0024b0:	e0bffe17 	ldw	r2,-8(fp)
 c0024b4:	10800390 	cmplti	r2,r2,14
 c0024b8:	103fea1e 	bne	r2,zero,c002464 <__alt_data_end+0xfc002464>
		for (int j = 0; j < 28; j++) {
    		VGADrawColorBox(32+i,14+j,0);
		}
	}
}
 c0024bc:	0001883a 	nop
 c0024c0:	e037883a 	mov	sp,fp
 c0024c4:	dfc00117 	ldw	ra,4(sp)
 c0024c8:	df000017 	ldw	fp,0(sp)
 c0024cc:	dec00204 	addi	sp,sp,8
 c0024d0:	f800283a 	ret

0c0024d4 <difficultyMenu>:

void difficultyMenu(int player) {
 c0024d4:	defff704 	addi	sp,sp,-36
 c0024d8:	dfc00815 	stw	ra,32(sp)
 c0024dc:	df000715 	stw	fp,28(sp)
 c0024e0:	df000704 	addi	fp,sp,28
 c0024e4:	e13fff15 	stw	r4,-4(fp)
	printf("arrowAt: %d, dP1:%d,dP2:%d;dif1:%d,dif2:%d\n",arrowPos, difficultyPos1, difficultyPos2,difficulty1,difficulty2);
 c0024e8:	d1200117 	ldw	r4,-32764(gp)
 c0024ec:	d167a417 	ldw	r5,-24944(gp)
 c0024f0:	d1a7a517 	ldw	r6,-24940(gp)
 c0024f4:	d0a7a617 	ldw	r2,-24936(gp)
 c0024f8:	d0e7a717 	ldw	r3,-24932(gp)
 c0024fc:	d8c00115 	stw	r3,4(sp)
 c002500:	d8800015 	stw	r2,0(sp)
 c002504:	300f883a 	mov	r7,r6
 c002508:	280d883a 	mov	r6,r5
 c00250c:	200b883a 	mov	r5,r4
 c002510:	010300b4 	movhi	r4,3074
 c002514:	21279e04 	addi	r4,r4,-24968
 c002518:	c00663c0 	call	c00663c <printf>
	difficultyPos1 = 16;
 c00251c:	00800404 	movi	r2,16
 c002520:	d0a7a415 	stw	r2,-24944(gp)
	for (int i = 0; i < 13; i++) {
 c002524:	e03ffb15 	stw	zero,-20(fp)
 c002528:	00001306 	br	c002578 <difficultyMenu+0xa4>
		for (int j = 0; j < 8; j++) {
 c00252c:	e03ffc15 	stw	zero,-16(fp)
 c002530:	00000b06 	br	c002560 <difficultyMenu+0x8c>
			VGADrawColorBox(33+i,14+j,1);
 c002534:	e0bffb17 	ldw	r2,-20(fp)
 c002538:	10c00844 	addi	r3,r2,33
 c00253c:	e0bffc17 	ldw	r2,-16(fp)
 c002540:	10800384 	addi	r2,r2,14
 c002544:	01800044 	movi	r6,1
 c002548:	100b883a 	mov	r5,r2
 c00254c:	1809883a 	mov	r4,r3
 c002550:	c0038440 	call	c003844 <VGADrawColorBox>

void difficultyMenu(int player) {
	printf("arrowAt: %d, dP1:%d,dP2:%d;dif1:%d,dif2:%d\n",arrowPos, difficultyPos1, difficultyPos2,difficulty1,difficulty2);
	difficultyPos1 = 16;
	for (int i = 0; i < 13; i++) {
		for (int j = 0; j < 8; j++) {
 c002554:	e0bffc17 	ldw	r2,-16(fp)
 c002558:	10800044 	addi	r2,r2,1
 c00255c:	e0bffc15 	stw	r2,-16(fp)
 c002560:	e0bffc17 	ldw	r2,-16(fp)
 c002564:	10800210 	cmplti	r2,r2,8
 c002568:	103ff21e 	bne	r2,zero,c002534 <__alt_data_end+0xfc002534>
}

void difficultyMenu(int player) {
	printf("arrowAt: %d, dP1:%d,dP2:%d;dif1:%d,dif2:%d\n",arrowPos, difficultyPos1, difficultyPos2,difficulty1,difficulty2);
	difficultyPos1 = 16;
	for (int i = 0; i < 13; i++) {
 c00256c:	e0bffb17 	ldw	r2,-20(fp)
 c002570:	10800044 	addi	r2,r2,1
 c002574:	e0bffb15 	stw	r2,-20(fp)
 c002578:	e0bffb17 	ldw	r2,-20(fp)
 c00257c:	10800350 	cmplti	r2,r2,13
 c002580:	103fea1e 	bne	r2,zero,c00252c <__alt_data_end+0xfc00252c>
		for (int j = 0; j < 8; j++) {
			VGADrawColorBox(33+i,14+j,1);
		}
	}
	VGAwriteText(34, 14, 14, 1, " PLAYER 1 ");
 c002584:	008300b4 	movhi	r2,3074
 c002588:	10a7a904 	addi	r2,r2,-24924
 c00258c:	d8800015 	stw	r2,0(sp)
 c002590:	01c00044 	movi	r7,1
 c002594:	01800384 	movi	r6,14
 c002598:	01400384 	movi	r5,14
 c00259c:	01000884 	movi	r4,34
 c0025a0:	c0038b00 	call	c0038b0 <VGAwriteText>
	VGAwriteText(34, 16, 14, 1, "    EASY  ");
 c0025a4:	008300b4 	movhi	r2,3074
 c0025a8:	10a7ac04 	addi	r2,r2,-24912
 c0025ac:	d8800015 	stw	r2,0(sp)
 c0025b0:	01c00044 	movi	r7,1
 c0025b4:	01800384 	movi	r6,14
 c0025b8:	01400404 	movi	r5,16
 c0025bc:	01000884 	movi	r4,34
 c0025c0:	c0038b00 	call	c0038b0 <VGAwriteText>
	VGAwriteText(34, 18, 14, 1, "    HARD  ");
 c0025c4:	008300b4 	movhi	r2,3074
 c0025c8:	10a7af04 	addi	r2,r2,-24900
 c0025cc:	d8800015 	stw	r2,0(sp)
 c0025d0:	01c00044 	movi	r7,1
 c0025d4:	01800384 	movi	r6,14
 c0025d8:	01400484 	movi	r5,18
 c0025dc:	01000884 	movi	r4,34
 c0025e0:	c0038b00 	call	c0038b0 <VGAwriteText>
	VGAwriteText(34, 20, 14, 1, " DIFFICULT");
 c0025e4:	008300b4 	movhi	r2,3074
 c0025e8:	10a7b204 	addi	r2,r2,-24888
 c0025ec:	d8800015 	stw	r2,0(sp)
 c0025f0:	01c00044 	movi	r7,1
 c0025f4:	01800384 	movi	r6,14
 c0025f8:	01400504 	movi	r5,20
 c0025fc:	01000884 	movi	r4,34
 c002600:	c0038b00 	call	c0038b0 <VGAwriteText>
	VGAwriteText(34, 16, 14, 1, ">");
 c002604:	008300b4 	movhi	r2,3074
 c002608:	10a78704 	addi	r2,r2,-25060
 c00260c:	d8800015 	stw	r2,0(sp)
 c002610:	01c00044 	movi	r7,1
 c002614:	01800384 	movi	r6,14
 c002618:	01400404 	movi	r5,16
 c00261c:	01000884 	movi	r4,34
 c002620:	c0038b00 	call	c0038b0 <VGAwriteText>
	if (player == 2) {
 c002624:	e0bfff17 	ldw	r2,-4(fp)
 c002628:	10800098 	cmpnei	r2,r2,2
 c00262c:	1000421e 	bne	r2,zero,c002738 <difficultyMenu+0x264>
		difficultyPos2 = 36;
 c002630:	00800904 	movi	r2,36
 c002634:	d0a7a515 	stw	r2,-24940(gp)
		for (int i = 0; i < 13; i++) {
 c002638:	e03ffd15 	stw	zero,-12(fp)
 c00263c:	00001306 	br	c00268c <difficultyMenu+0x1b8>
			for (int j = 0; j < 8; j++) {
 c002640:	e03ffe15 	stw	zero,-8(fp)
 c002644:	00000b06 	br	c002674 <difficultyMenu+0x1a0>
				VGADrawColorBox(33+i,34+j,1);
 c002648:	e0bffd17 	ldw	r2,-12(fp)
 c00264c:	10c00844 	addi	r3,r2,33
 c002650:	e0bffe17 	ldw	r2,-8(fp)
 c002654:	10800884 	addi	r2,r2,34
 c002658:	01800044 	movi	r6,1
 c00265c:	100b883a 	mov	r5,r2
 c002660:	1809883a 	mov	r4,r3
 c002664:	c0038440 	call	c003844 <VGADrawColorBox>
	VGAwriteText(34, 20, 14, 1, " DIFFICULT");
	VGAwriteText(34, 16, 14, 1, ">");
	if (player == 2) {
		difficultyPos2 = 36;
		for (int i = 0; i < 13; i++) {
			for (int j = 0; j < 8; j++) {
 c002668:	e0bffe17 	ldw	r2,-8(fp)
 c00266c:	10800044 	addi	r2,r2,1
 c002670:	e0bffe15 	stw	r2,-8(fp)
 c002674:	e0bffe17 	ldw	r2,-8(fp)
 c002678:	10800210 	cmplti	r2,r2,8
 c00267c:	103ff21e 	bne	r2,zero,c002648 <__alt_data_end+0xfc002648>
	VGAwriteText(34, 18, 14, 1, "    HARD  ");
	VGAwriteText(34, 20, 14, 1, " DIFFICULT");
	VGAwriteText(34, 16, 14, 1, ">");
	if (player == 2) {
		difficultyPos2 = 36;
		for (int i = 0; i < 13; i++) {
 c002680:	e0bffd17 	ldw	r2,-12(fp)
 c002684:	10800044 	addi	r2,r2,1
 c002688:	e0bffd15 	stw	r2,-12(fp)
 c00268c:	e0bffd17 	ldw	r2,-12(fp)
 c002690:	10800350 	cmplti	r2,r2,13
 c002694:	103fea1e 	bne	r2,zero,c002640 <__alt_data_end+0xfc002640>
			for (int j = 0; j < 8; j++) {
				VGADrawColorBox(33+i,34+j,1);
			}
		}
		VGAwriteText(34, 34, 14, 1, " PLAYER 2 ");
 c002698:	008300b4 	movhi	r2,3074
 c00269c:	10a7b504 	addi	r2,r2,-24876
 c0026a0:	d8800015 	stw	r2,0(sp)
 c0026a4:	01c00044 	movi	r7,1
 c0026a8:	01800384 	movi	r6,14
 c0026ac:	01400884 	movi	r5,34
 c0026b0:	01000884 	movi	r4,34
 c0026b4:	c0038b00 	call	c0038b0 <VGAwriteText>
		VGAwriteText(34, 36, 14, 1, "    EASY  ");
 c0026b8:	008300b4 	movhi	r2,3074
 c0026bc:	10a7ac04 	addi	r2,r2,-24912
 c0026c0:	d8800015 	stw	r2,0(sp)
 c0026c4:	01c00044 	movi	r7,1
 c0026c8:	01800384 	movi	r6,14
 c0026cc:	01400904 	movi	r5,36
 c0026d0:	01000884 	movi	r4,34
 c0026d4:	c0038b00 	call	c0038b0 <VGAwriteText>
		VGAwriteText(34, 38, 14, 1, "    HARD  ");
 c0026d8:	008300b4 	movhi	r2,3074
 c0026dc:	10a7af04 	addi	r2,r2,-24900
 c0026e0:	d8800015 	stw	r2,0(sp)
 c0026e4:	01c00044 	movi	r7,1
 c0026e8:	01800384 	movi	r6,14
 c0026ec:	01400984 	movi	r5,38
 c0026f0:	01000884 	movi	r4,34
 c0026f4:	c0038b00 	call	c0038b0 <VGAwriteText>
		VGAwriteText(34, 40, 14, 1, " DIFFICULT");
 c0026f8:	008300b4 	movhi	r2,3074
 c0026fc:	10a7b204 	addi	r2,r2,-24888
 c002700:	d8800015 	stw	r2,0(sp)
 c002704:	01c00044 	movi	r7,1
 c002708:	01800384 	movi	r6,14
 c00270c:	01400a04 	movi	r5,40
 c002710:	01000884 	movi	r4,34
 c002714:	c0038b00 	call	c0038b0 <VGAwriteText>
		VGAwriteText(34, 36, 14, 1, ">");
 c002718:	008300b4 	movhi	r2,3074
 c00271c:	10a78704 	addi	r2,r2,-25060
 c002720:	d8800015 	stw	r2,0(sp)
 c002724:	01c00044 	movi	r7,1
 c002728:	01800384 	movi	r6,14
 c00272c:	01400904 	movi	r5,36
 c002730:	01000884 	movi	r4,34
 c002734:	c0038b00 	call	c0038b0 <VGAwriteText>
	}
}
 c002738:	0001883a 	nop
 c00273c:	e037883a 	mov	sp,fp
 c002740:	dfc00117 	ldw	ra,4(sp)
 c002744:	df000017 	ldw	fp,0(sp)
 c002748:	dec00204 	addi	sp,sp,8
 c00274c:	f800283a 	ret

0c002750 <keyInput>:

void keyInput(int x, int y, int boardcolor, int width, int height) {
 c002750:	deffbe04 	addi	sp,sp,-264
 c002754:	dfc04115 	stw	ra,260(sp)
 c002758:	df004015 	stw	fp,256(sp)
 c00275c:	dc003f15 	stw	r16,252(sp)
 c002760:	df004004 	addi	fp,sp,256
 c002764:	e13fca15 	stw	r4,-216(fp)
 c002768:	e17fcb15 	stw	r5,-212(fp)
 c00276c:	e1bfcc15 	stw	r6,-208(fp)
 c002770:	e1ffcd15 	stw	r7,-204(fp)
	srand(time(NULL));
 c002774:	0009883a 	mov	r4,zero
 c002778:	c008c540 	call	c008c54 <time>
 c00277c:	1009883a 	mov	r4,r2
 c002780:	c00676c0 	call	c00676c <srand>
	gameMenu();
 c002784:	c0020100 	call	c002010 <gameMenu>

	BYTE rcode;
	BOOT_MOUSE_REPORT buf;		//USB mouse report
	BOOT_KBD_REPORT kbdbuf;

	BYTE runningdebugflag = 0;//flag to dump out a bunch of information when we first get to USB_STATE_RUNNING
 c002788:	e03fc305 	stb	zero,-244(fp)
	BYTE errorflag = 0; //flag once we get an error device so we don't keep dumping out state info
 c00278c:	e03fc345 	stb	zero,-243(fp)
	BYTE device;
	WORD keycode;

	printf("initializing MAX3421E...\n");
 c002790:	010300b4 	movhi	r4,3074
 c002794:	2127b804 	addi	r4,r4,-24864
 c002798:	c0067580 	call	c006758 <puts>
	MAX3421E_init();
 c00279c:	c00494c0 	call	c00494c <MAX3421E_init>
	printf("initializing USB...\n");
 c0027a0:	010300b4 	movhi	r4,3074
 c0027a4:	2127bf04 	addi	r4,r4,-24836
 c0027a8:	c0067580 	call	c006758 <puts>
	USB_init();
 c0027ac:	c0050f80 	call	c0050f8 <USB_init>

	long counter;
	while (1) {
		srand(time(NULL));
 c0027b0:	0009883a 	mov	r4,zero
 c0027b4:	c008c540 	call	c008c54 <time>
 c0027b8:	1009883a 	mov	r4,r2
 c0027bc:	c00676c0 	call	c00676c <srand>
		//printf(".");
		MAX3421E_Task();
 c0027c0:	c0049e00 	call	c0049e0 <MAX3421E_Task>
		USB_Task();
 c0027c4:	c0051900 	call	c005190 <USB_Task>
		//usleep (500000);
		if (GetUsbTaskState() == USB_STATE_RUNNING) {
 c0027c8:	c0059000 	call	c005900 <GetUsbTaskState>
 c0027cc:	10803fcc 	andi	r2,r2,255
 c0027d0:	10801018 	cmpnei	r2,r2,64
 c0027d4:	1002381e 	bne	r2,zero,c0030b8 <keyInput+0x968>
			if (!runningdebugflag) {
 c0027d8:	e0bfc303 	ldbu	r2,-244(fp)
 c0027dc:	1000071e 	bne	r2,zero,c0027fc <keyInput+0xac>
				runningdebugflag = 1;
 c0027e0:	00800044 	movi	r2,1
 c0027e4:	e0bfc305 	stb	r2,-244(fp)
				setLED(9);
 c0027e8:	01000244 	movi	r4,9
 c0027ec:	c001b000 	call	c001b00 <setLED>
				device = GetDriverandReport();
 c0027f0:	c0019100 	call	c001910 <GetDriverandReport>
 c0027f4:	e0bfc385 	stb	r2,-242(fp)
 c0027f8:	003fed06 	br	c0027b0 <__alt_data_end+0xfc0027b0>
			} else if (device == 1) {
 c0027fc:	e0bfc383 	ldbu	r2,-242(fp)
 c002800:	10800058 	cmpnei	r2,r2,1
 c002804:	103fea1e 	bne	r2,zero,c0027b0 <__alt_data_end+0xfc0027b0>
				//run keyboard debug polling
				rcode = kbdPoll(&kbdbuf);
 c002808:	e0bfc744 	addi	r2,fp,-227
 c00280c:	1009883a 	mov	r4,r2
 c002810:	c0042400 	call	c004240 <kbdPoll>
 c002814:	e0bfc505 	stb	r2,-236(fp)
				if (rcode == hrNAK) {
 c002818:	e0bfc503 	ldbu	r2,-236(fp)
 c00281c:	10800118 	cmpnei	r2,r2,4
 c002820:	10024526 	beq	r2,zero,c003138 <keyInput+0x9e8>
					continue; //NAK means no new data
				} else if (rcode) {
 c002824:	e0bfc503 	ldbu	r2,-236(fp)
 c002828:	10000926 	beq	r2,zero,c002850 <keyInput+0x100>
					printf("Rcode: ");
 c00282c:	010300b4 	movhi	r4,3074
 c002830:	2127c404 	addi	r4,r4,-24816
 c002834:	c00663c0 	call	c00663c <printf>
					printf("%x \n", rcode);
 c002838:	e0bfc503 	ldbu	r2,-236(fp)
 c00283c:	100b883a 	mov	r5,r2
 c002840:	010300b4 	movhi	r4,3074
 c002844:	21276504 	addi	r4,r4,-25196
 c002848:	c00663c0 	call	c00663c <printf>
					continue;
 c00284c:	00023b06 	br	c00313c <keyInput+0x9ec>
				}
				if (players != 0) {
 c002850:	d0a7a317 	ldw	r2,-24948(gp)
 c002854:	10002a26 	beq	r2,zero,c002900 <keyInput+0x1b0>
					if (timer != 0) {
 c002858:	d0a00217 	ldw	r2,-32760(gp)
 c00285c:	10002826 	beq	r2,zero,c002900 <keyInput+0x1b0>
						if(!state1.dead) {
 c002860:	008300b4 	movhi	r2,3074
 c002864:	10b85404 	addi	r2,r2,-7856
 c002868:	10800317 	ldw	r2,12(r2)
 c00286c:	1000101e 	bne	r2,zero,c0028b0 <keyInput+0x160>
					   if(!state1.pause) {
 c002870:	008300b4 	movhi	r2,3074
 c002874:	10b85404 	addi	r2,r2,-7856
 c002878:	10801217 	ldw	r2,72(r2)
 c00287c:	1000061e 	bne	r2,zero,c002898 <keyInput+0x148>
							TetrisFallBlocks(&state1);
 c002880:	010300b4 	movhi	r4,3074
 c002884:	21385404 	addi	r4,r4,-7856
 c002888:	c0011cc0 	call	c0011cc <TetrisFallBlocks>
							//printf("%ul \n",time(NULL));
							reset = 1;
 c00288c:	00800044 	movi	r2,1
 c002890:	d0a00315 	stw	r2,-32756(gp)
							reset = 0;
 c002894:	d0200315 	stw	zero,-32756(gp)
					  }
						TetrisPrintBoard(&state1);
 c002898:	010300b4 	movhi	r4,3074
 c00289c:	21385404 	addi	r4,r4,-7856
 c0028a0:	c0015f80 	call	c0015f8 <TetrisPrintBoard>
						TetrisCheckLineComplete(&state1);
 c0028a4:	010300b4 	movhi	r4,3074
 c0028a8:	21385404 	addi	r4,r4,-7856
 c0028ac:	c0013640 	call	c001364 <TetrisCheckLineComplete>
					}
						if(!state2.dead) {
 c0028b0:	008300b4 	movhi	r2,3074
 c0028b4:	10b88504 	addi	r2,r2,-7660
 c0028b8:	10800317 	ldw	r2,12(r2)
 c0028bc:	1000101e 	bne	r2,zero,c002900 <keyInput+0x1b0>
						if(!state2.pause) {
 c0028c0:	008300b4 	movhi	r2,3074
 c0028c4:	10b88504 	addi	r2,r2,-7660
 c0028c8:	10801217 	ldw	r2,72(r2)
 c0028cc:	1000061e 	bne	r2,zero,c0028e8 <keyInput+0x198>
							TetrisFallBlocks(&state2);
 c0028d0:	010300b4 	movhi	r4,3074
 c0028d4:	21388504 	addi	r4,r4,-7660
 c0028d8:	c0011cc0 	call	c0011cc <TetrisFallBlocks>
							//printf("%ul \n",time(NULL));
							reset = 1;
 c0028dc:	00800044 	movi	r2,1
 c0028e0:	d0a00315 	stw	r2,-32756(gp)
							reset = 0;
 c0028e4:	d0200315 	stw	zero,-32756(gp)
						  }
							TetrisPrintBoard(&state2);
 c0028e8:	010300b4 	movhi	r4,3074
 c0028ec:	21388504 	addi	r4,r4,-7660
 c0028f0:	c0015f80 	call	c0015f8 <TetrisPrintBoard>
							TetrisCheckLineComplete(&state2);
 c0028f4:	010300b4 	movhi	r4,3074
 c0028f8:	21388504 	addi	r4,r4,-7660
 c0028fc:	c0013640 	call	c001364 <TetrisCheckLineComplete>
						}

					}
				}

				for (int i = 0; i < 6; i++) {
 c002900:	e03fc415 	stw	zero,-240(fp)
 c002904:	0001d806 	br	c003068 <keyInput+0x918>
					if (kbdbuf.keycode[i] != 0) {
 c002908:	e0ffc7c4 	addi	r3,fp,-225
 c00290c:	e0bfc417 	ldw	r2,-240(fp)
 c002910:	1885883a 	add	r2,r3,r2
 c002914:	10800003 	ldbu	r2,0(r2)
 c002918:	10803fcc 	andi	r2,r2,255
 c00291c:	1001cf26 	beq	r2,zero,c00305c <keyInput+0x90c>
						//printf("%x - ", kbdbuf.keycode[i]);
						if (kbdbuf.keycode[i] == 26) { //W
 c002920:	e0ffc7c4 	addi	r3,fp,-225
 c002924:	e0bfc417 	ldw	r2,-240(fp)
 c002928:	1885883a 	add	r2,r3,r2
 c00292c:	10800003 	ldbu	r2,0(r2)
 c002930:	10803fcc 	andi	r2,r2,255
 c002934:	10800698 	cmpnei	r2,r2,26
 c002938:	1000101e 	bne	r2,zero,c00297c <keyInput+0x22c>
							if (players == 0) arrowPos = moveMenu(0);
 c00293c:	d0a7a317 	ldw	r2,-24948(gp)
 c002940:	1000041e 	bne	r2,zero,c002954 <keyInput+0x204>
 c002944:	0009883a 	mov	r4,zero
 c002948:	c0021580 	call	c002158 <moveMenu>
 c00294c:	d0a00115 	stw	r2,-32764(gp)
 c002950:	0001c206 	br	c00305c <keyInput+0x90c>
							else if (difficulty1 > 0) TetrisRotateBlock(&state1);
 c002954:	d0a7a617 	ldw	r2,-24936(gp)
 c002958:	0080040e 	bge	zero,r2,c00296c <keyInput+0x21c>
 c00295c:	010300b4 	movhi	r4,3074
 c002960:	21385404 	addi	r4,r4,-7856
 c002964:	c000eec0 	call	c000eec <TetrisRotateBlock>
 c002968:	0001bc06 	br	c00305c <keyInput+0x90c>
							else difficultyPos1 = moveMenu(1);
 c00296c:	01000044 	movi	r4,1
 c002970:	c0021580 	call	c002158 <moveMenu>
 c002974:	d0a7a415 	stw	r2,-24944(gp)
 c002978:	0001b806 	br	c00305c <keyInput+0x90c>
						} else if (kbdbuf.keycode[i] == 82){//up
 c00297c:	e0ffc7c4 	addi	r3,fp,-225
 c002980:	e0bfc417 	ldw	r2,-240(fp)
 c002984:	1885883a 	add	r2,r3,r2
 c002988:	10800003 	ldbu	r2,0(r2)
 c00298c:	10803fcc 	andi	r2,r2,255
 c002990:	10801498 	cmpnei	r2,r2,82
 c002994:	1000121e 	bne	r2,zero,c0029e0 <keyInput+0x290>
							if (players == 2 ) {
 c002998:	d0a7a317 	ldw	r2,-24948(gp)
 c00299c:	10800098 	cmpnei	r2,r2,2
 c0029a0:	1001ae1e 	bne	r2,zero,c00305c <keyInput+0x90c>
								TetrisRotateBlock(&state2);
 c0029a4:	010300b4 	movhi	r4,3074
 c0029a8:	21388504 	addi	r4,r4,-7660
 c0029ac:	c000eec0 	call	c000eec <TetrisRotateBlock>
								if (difficulty1 > 0 && difficulty2 > 0 ) TetrisRotateBlock(&state2);
 c0029b0:	d0a7a617 	ldw	r2,-24936(gp)
 c0029b4:	0080060e 	bge	zero,r2,c0029d0 <keyInput+0x280>
 c0029b8:	d0a7a717 	ldw	r2,-24932(gp)
 c0029bc:	0080040e 	bge	zero,r2,c0029d0 <keyInput+0x280>
 c0029c0:	010300b4 	movhi	r4,3074
 c0029c4:	21388504 	addi	r4,r4,-7660
 c0029c8:	c000eec0 	call	c000eec <TetrisRotateBlock>
 c0029cc:	0001a306 	br	c00305c <keyInput+0x90c>
								else difficultyPos2 = moveMenu(2);
 c0029d0:	01000084 	movi	r4,2
 c0029d4:	c0021580 	call	c002158 <moveMenu>
 c0029d8:	d0a7a515 	stw	r2,-24940(gp)
 c0029dc:	00019f06 	br	c00305c <keyInput+0x90c>
							}
						} else if (kbdbuf.keycode[i] == 4){ //A
 c0029e0:	e0ffc7c4 	addi	r3,fp,-225
 c0029e4:	e0bfc417 	ldw	r2,-240(fp)
 c0029e8:	1885883a 	add	r2,r3,r2
 c0029ec:	10800003 	ldbu	r2,0(r2)
 c0029f0:	10803fcc 	andi	r2,r2,255
 c0029f4:	10800118 	cmpnei	r2,r2,4
 c0029f8:	1000061e 	bne	r2,zero,c002a14 <keyInput+0x2c4>
							if (players != 0) TetrisInputLeft(&state1);
 c0029fc:	d0a7a317 	ldw	r2,-24948(gp)
 c002a00:	10019626 	beq	r2,zero,c00305c <keyInput+0x90c>
 c002a04:	010300b4 	movhi	r4,3074
 c002a08:	21385404 	addi	r4,r4,-7856
 c002a0c:	c0015380 	call	c001538 <TetrisInputLeft>
 c002a10:	00019206 	br	c00305c <keyInput+0x90c>
						} else if (kbdbuf.keycode[i] == 80){//left
 c002a14:	e0ffc7c4 	addi	r3,fp,-225
 c002a18:	e0bfc417 	ldw	r2,-240(fp)
 c002a1c:	1885883a 	add	r2,r3,r2
 c002a20:	10800003 	ldbu	r2,0(r2)
 c002a24:	10803fcc 	andi	r2,r2,255
 c002a28:	10801418 	cmpnei	r2,r2,80
 c002a2c:	1000071e 	bne	r2,zero,c002a4c <keyInput+0x2fc>
							 if (players == 2 ) TetrisInputLeft(&state2);
 c002a30:	d0a7a317 	ldw	r2,-24948(gp)
 c002a34:	10800098 	cmpnei	r2,r2,2
 c002a38:	1001881e 	bne	r2,zero,c00305c <keyInput+0x90c>
 c002a3c:	010300b4 	movhi	r4,3074
 c002a40:	21388504 	addi	r4,r4,-7660
 c002a44:	c0015380 	call	c001538 <TetrisInputLeft>
 c002a48:	00018406 	br	c00305c <keyInput+0x90c>
						} else if (kbdbuf.keycode[i] == 22) { //S
 c002a4c:	e0ffc7c4 	addi	r3,fp,-225
 c002a50:	e0bfc417 	ldw	r2,-240(fp)
 c002a54:	1885883a 	add	r2,r3,r2
 c002a58:	10800003 	ldbu	r2,0(r2)
 c002a5c:	10803fcc 	andi	r2,r2,255
 c002a60:	10800598 	cmpnei	r2,r2,22
 c002a64:	1000061e 	bne	r2,zero,c002a80 <keyInput+0x330>
							if (players != 0) TetrisFallBlocks(&state1);
 c002a68:	d0a7a317 	ldw	r2,-24948(gp)
 c002a6c:	10017b26 	beq	r2,zero,c00305c <keyInput+0x90c>
 c002a70:	010300b4 	movhi	r4,3074
 c002a74:	21385404 	addi	r4,r4,-7856
 c002a78:	c0011cc0 	call	c0011cc <TetrisFallBlocks>
 c002a7c:	00017706 	br	c00305c <keyInput+0x90c>
						} else if ( kbdbuf.keycode[i] == 81){ //down
 c002a80:	e0ffc7c4 	addi	r3,fp,-225
 c002a84:	e0bfc417 	ldw	r2,-240(fp)
 c002a88:	1885883a 	add	r2,r3,r2
 c002a8c:	10800003 	ldbu	r2,0(r2)
 c002a90:	10803fcc 	andi	r2,r2,255
 c002a94:	10801458 	cmpnei	r2,r2,81
 c002a98:	1000071e 	bne	r2,zero,c002ab8 <keyInput+0x368>
							 if (players == 2 ) TetrisFallBlocks(&state2);
 c002a9c:	d0a7a317 	ldw	r2,-24948(gp)
 c002aa0:	10800098 	cmpnei	r2,r2,2
 c002aa4:	10016d1e 	bne	r2,zero,c00305c <keyInput+0x90c>
 c002aa8:	010300b4 	movhi	r4,3074
 c002aac:	21388504 	addi	r4,r4,-7660
 c002ab0:	c0011cc0 	call	c0011cc <TetrisFallBlocks>
 c002ab4:	00016906 	br	c00305c <keyInput+0x90c>
						} else if (kbdbuf.keycode[i] == 7) { //D
 c002ab8:	e0ffc7c4 	addi	r3,fp,-225
 c002abc:	e0bfc417 	ldw	r2,-240(fp)
 c002ac0:	1885883a 	add	r2,r3,r2
 c002ac4:	10800003 	ldbu	r2,0(r2)
 c002ac8:	10803fcc 	andi	r2,r2,255
 c002acc:	108001d8 	cmpnei	r2,r2,7
 c002ad0:	1000061e 	bne	r2,zero,c002aec <keyInput+0x39c>
							//printf("arrowAt: %d, dP1:%d,dP2:%d;dif1:%d,dif2:%d\n",arrowPos, difficultyPos1, difficultyPos2,difficulty1,difficulty2);
							if (players != 0) TetrisInputRight(&state1);
 c002ad4:	d0a7a317 	ldw	r2,-24948(gp)
 c002ad8:	10016026 	beq	r2,zero,c00305c <keyInput+0x90c>
 c002adc:	010300b4 	movhi	r4,3074
 c002ae0:	21385404 	addi	r4,r4,-7856
 c002ae4:	c0015980 	call	c001598 <TetrisInputRight>
 c002ae8:	00015c06 	br	c00305c <keyInput+0x90c>
						} else if ( kbdbuf.keycode[i] == 79){ //right
 c002aec:	e0ffc7c4 	addi	r3,fp,-225
 c002af0:	e0bfc417 	ldw	r2,-240(fp)
 c002af4:	1885883a 	add	r2,r3,r2
 c002af8:	10800003 	ldbu	r2,0(r2)
 c002afc:	10803fcc 	andi	r2,r2,255
 c002b00:	108013d8 	cmpnei	r2,r2,79
 c002b04:	1000071e 	bne	r2,zero,c002b24 <keyInput+0x3d4>
							 if (players == 2 ) TetrisInputRight(&state2);
 c002b08:	d0a7a317 	ldw	r2,-24948(gp)
 c002b0c:	10800098 	cmpnei	r2,r2,2
 c002b10:	1001521e 	bne	r2,zero,c00305c <keyInput+0x90c>
 c002b14:	010300b4 	movhi	r4,3074
 c002b18:	21388504 	addi	r4,r4,-7660
 c002b1c:	c0015980 	call	c001598 <TetrisInputRight>
 c002b20:	00014e06 	br	c00305c <keyInput+0x90c>
						} else if (kbdbuf.keycode[i] == 41) { //esc
 c002b24:	e0ffc7c4 	addi	r3,fp,-225
 c002b28:	e0bfc417 	ldw	r2,-240(fp)
 c002b2c:	1885883a 	add	r2,r3,r2
 c002b30:	10800003 	ldbu	r2,0(r2)
 c002b34:	10803fcc 	andi	r2,r2,255
 c002b38:	10800a58 	cmpnei	r2,r2,41
 c002b3c:	1000061e 	bne	r2,zero,c002b58 <keyInput+0x408>
							if (players != 0) TetrisPause(&state1);
 c002b40:	d0a7a317 	ldw	r2,-24948(gp)
 c002b44:	10014526 	beq	r2,zero,c00305c <keyInput+0x90c>
 c002b48:	010300b4 	movhi	r4,3074
 c002b4c:	21385404 	addi	r4,r4,-7856
 c002b50:	c0018d40 	call	c0018d4 <TetrisPause>
 c002b54:	00014106 	br	c00305c <keyInput+0x90c>
						} else if ( kbdbuf.keycode[i] == 83){//numlock
 c002b58:	e0ffc7c4 	addi	r3,fp,-225
 c002b5c:	e0bfc417 	ldw	r2,-240(fp)
 c002b60:	1885883a 	add	r2,r3,r2
 c002b64:	10800003 	ldbu	r2,0(r2)
 c002b68:	10803fcc 	andi	r2,r2,255
 c002b6c:	108014d8 	cmpnei	r2,r2,83
 c002b70:	1000071e 	bne	r2,zero,c002b90 <keyInput+0x440>
							 if (players == 2 ) TetrisPause(&state2);
 c002b74:	d0a7a317 	ldw	r2,-24948(gp)
 c002b78:	10800098 	cmpnei	r2,r2,2
 c002b7c:	1001371e 	bne	r2,zero,c00305c <keyInput+0x90c>
 c002b80:	010300b4 	movhi	r4,3074
 c002b84:	21388504 	addi	r4,r4,-7660
 c002b88:	c0018d40 	call	c0018d4 <TetrisPause>
 c002b8c:	00013306 	br	c00305c <keyInput+0x90c>
						} else if (kbdbuf.keycode[i] == 40 || kbdbuf.keycode[i] == 88) { //enter
 c002b90:	e0ffc7c4 	addi	r3,fp,-225
 c002b94:	e0bfc417 	ldw	r2,-240(fp)
 c002b98:	1885883a 	add	r2,r3,r2
 c002b9c:	10800003 	ldbu	r2,0(r2)
 c002ba0:	10803fcc 	andi	r2,r2,255
 c002ba4:	10800a20 	cmpeqi	r2,r2,40
 c002ba8:	1000071e 	bne	r2,zero,c002bc8 <keyInput+0x478>
 c002bac:	e0ffc7c4 	addi	r3,fp,-225
 c002bb0:	e0bfc417 	ldw	r2,-240(fp)
 c002bb4:	1885883a 	add	r2,r3,r2
 c002bb8:	10800003 	ldbu	r2,0(r2)
 c002bbc:	10803fcc 	andi	r2,r2,255
 c002bc0:	10801618 	cmpnei	r2,r2,88
 c002bc4:	1001251e 	bne	r2,zero,c00305c <keyInput+0x90c>
							//printf("arrowAt: %d, dP1:%d,dP2:%d;dif1:%d,dif2:%d\n",arrowPos, difficultyPos1, difficultyPos2,difficulty1,difficulty2);
							if (kbdbuf.keycode[i] == 40 && players != 0) {
 c002bc8:	e0ffc7c4 	addi	r3,fp,-225
 c002bcc:	e0bfc417 	ldw	r2,-240(fp)
 c002bd0:	1885883a 	add	r2,r3,r2
 c002bd4:	10800003 	ldbu	r2,0(r2)
 c002bd8:	10803fcc 	andi	r2,r2,255
 c002bdc:	10800a18 	cmpnei	r2,r2,40
 c002be0:	10001c1e 	bne	r2,zero,c002c54 <keyInput+0x504>
 c002be4:	d0a7a317 	ldw	r2,-24948(gp)
 c002be8:	10001a26 	beq	r2,zero,c002c54 <keyInput+0x504>
								if (state1.dead) {
 c002bec:	008300b4 	movhi	r2,3074
 c002bf0:	10b85404 	addi	r2,r2,-7856
 c002bf4:	10800317 	ldw	r2,12(r2)
 c002bf8:	10001626 	beq	r2,zero,c002c54 <keyInput+0x504>
									printf("rest1");
 c002bfc:	010300b4 	movhi	r4,3074
 c002c00:	2127c604 	addi	r4,r4,-24808
 c002c04:	c00663c0 	call	c00663c <printf>
									TetrisCleanup(&state1);
 c002c08:	010300b4 	movhi	r4,3074
 c002c0c:	21385404 	addi	r4,r4,-7856
 c002c10:	c0007500 	call	c000750 <TetrisCleanup>
									state1.dead = 0;
 c002c14:	008300b4 	movhi	r2,3074
 c002c18:	10b85404 	addi	r2,r2,-7856
 c002c1c:	10000315 	stw	zero,12(r2)
									VGAwriteText(x-(strlen("GAME OVER")),(y+8+(height)),0,0,"GAME OVER");
 c002c20:	e0bfca17 	ldw	r2,-216(fp)
 c002c24:	113ffdc4 	addi	r4,r2,-9
 c002c28:	e0bfcb17 	ldw	r2,-212(fp)
 c002c2c:	10c00204 	addi	r3,r2,8
 c002c30:	e0800217 	ldw	r2,8(fp)
 c002c34:	1887883a 	add	r3,r3,r2
 c002c38:	008300b4 	movhi	r2,3074
 c002c3c:	10a72f04 	addi	r2,r2,-25412
 c002c40:	d8800015 	stw	r2,0(sp)
 c002c44:	000f883a 	mov	r7,zero
 c002c48:	000d883a 	mov	r6,zero
 c002c4c:	180b883a 	mov	r5,r3
 c002c50:	c0038b00 	call	c0038b0 <VGAwriteText>
								}
							}
							if (kbdbuf.keycode[i] == 88 && players == 2 ) {
 c002c54:	e0ffc7c4 	addi	r3,fp,-225
 c002c58:	e0bfc417 	ldw	r2,-240(fp)
 c002c5c:	1885883a 	add	r2,r3,r2
 c002c60:	10800003 	ldbu	r2,0(r2)
 c002c64:	10803fcc 	andi	r2,r2,255
 c002c68:	10801618 	cmpnei	r2,r2,88
 c002c6c:	10001d1e 	bne	r2,zero,c002ce4 <keyInput+0x594>
 c002c70:	d0a7a317 	ldw	r2,-24948(gp)
 c002c74:	10800098 	cmpnei	r2,r2,2
 c002c78:	10001a1e 	bne	r2,zero,c002ce4 <keyInput+0x594>
								if (state2.dead) {
 c002c7c:	008300b4 	movhi	r2,3074
 c002c80:	10b88504 	addi	r2,r2,-7660
 c002c84:	10800317 	ldw	r2,12(r2)
 c002c88:	10001626 	beq	r2,zero,c002ce4 <keyInput+0x594>
									printf("rest2");
 c002c8c:	010300b4 	movhi	r4,3074
 c002c90:	2127c804 	addi	r4,r4,-24800
 c002c94:	c00663c0 	call	c00663c <printf>
									TetrisCleanup(&state2);
 c002c98:	010300b4 	movhi	r4,3074
 c002c9c:	21388504 	addi	r4,r4,-7660
 c002ca0:	c0007500 	call	c000750 <TetrisCleanup>
									state2.dead = 0;
 c002ca4:	008300b4 	movhi	r2,3074
 c002ca8:	10b88504 	addi	r2,r2,-7660
 c002cac:	10000315 	stw	zero,12(r2)
									VGAwriteText(x+44-(strlen("GAME OVER")),(y+8+(height)),0,0,"GAME OVER");
 c002cb0:	e0bfca17 	ldw	r2,-216(fp)
 c002cb4:	110008c4 	addi	r4,r2,35
 c002cb8:	e0bfcb17 	ldw	r2,-212(fp)
 c002cbc:	10c00204 	addi	r3,r2,8
 c002cc0:	e0800217 	ldw	r2,8(fp)
 c002cc4:	1887883a 	add	r3,r3,r2
 c002cc8:	008300b4 	movhi	r2,3074
 c002ccc:	10a72f04 	addi	r2,r2,-25412
 c002cd0:	d8800015 	stw	r2,0(sp)
 c002cd4:	000f883a 	mov	r7,zero
 c002cd8:	000d883a 	mov	r6,zero
 c002cdc:	180b883a 	mov	r5,r3
 c002ce0:	c0038b00 	call	c0038b0 <VGAwriteText>
								}
							}
							printf("%d ",kbdbuf.keycode[i]);
 c002ce4:	e0ffc7c4 	addi	r3,fp,-225
 c002ce8:	e0bfc417 	ldw	r2,-240(fp)
 c002cec:	1885883a 	add	r2,r3,r2
 c002cf0:	10800003 	ldbu	r2,0(r2)
 c002cf4:	10803fcc 	andi	r2,r2,255
 c002cf8:	100b883a 	mov	r5,r2
 c002cfc:	010300b4 	movhi	r4,3074
 c002d00:	2127ca04 	addi	r4,r4,-24792
 c002d04:	c00663c0 	call	c00663c <printf>
							if (players == 0) {
 c002d08:	d0a7a317 	ldw	r2,-24948(gp)
 c002d0c:	10000c1e 	bne	r2,zero,c002d40 <keyInput+0x5f0>
								if (arrowPos == 25) players = 1;
 c002d10:	d0a00117 	ldw	r2,-32764(gp)
 c002d14:	10800658 	cmpnei	r2,r2,25
 c002d18:	1000031e 	bne	r2,zero,c002d28 <keyInput+0x5d8>
 c002d1c:	00800044 	movi	r2,1
 c002d20:	d0a7a315 	stw	r2,-24948(gp)
 c002d24:	0000c006 	br	c003028 <keyInput+0x8d8>
								else if (arrowPos == 27) players = 2;
 c002d28:	d0a00117 	ldw	r2,-32764(gp)
 c002d2c:	108006d8 	cmpnei	r2,r2,27
 c002d30:	1000bd1e 	bne	r2,zero,c003028 <keyInput+0x8d8>
 c002d34:	00800084 	movi	r2,2
 c002d38:	d0a7a315 	stw	r2,-24948(gp)
 c002d3c:	0000ba06 	br	c003028 <keyInput+0x8d8>
							} else {
								if (players == 1) {
 c002d40:	d0a7a317 	ldw	r2,-24948(gp)
 c002d44:	10800058 	cmpnei	r2,r2,1
 c002d48:	1000391e 	bne	r2,zero,c002e30 <keyInput+0x6e0>
									if (difficultyPos1 != 0 && difficulty1 >= 0 && run1 == 0) {
 c002d4c:	d0a7a417 	ldw	r2,-24944(gp)
 c002d50:	10001b26 	beq	r2,zero,c002dc0 <keyInput+0x670>
 c002d54:	d0a7a617 	ldw	r2,-24936(gp)
 c002d58:	10001916 	blt	r2,zero,c002dc0 <keyInput+0x670>
 c002d5c:	d0a7a817 	ldw	r2,-24928(gp)
 c002d60:	1000171e 	bne	r2,zero,c002dc0 <keyInput+0x670>
										state1 = TetrisPopulate(x, y, boardcolor,width, height, difficulty1);
 c002d64:	d0a7a617 	ldw	r2,-24936(gp)
 c002d68:	040300b4 	movhi	r16,3074
 c002d6c:	84385404 	addi	r16,r16,-7856
 c002d70:	e0ffce04 	addi	r3,fp,-200
 c002d74:	d8800215 	stw	r2,8(sp)
 c002d78:	e0800217 	ldw	r2,8(fp)
 c002d7c:	d8800115 	stw	r2,4(sp)
 c002d80:	e0bfcd17 	ldw	r2,-204(fp)
 c002d84:	d8800015 	stw	r2,0(sp)
 c002d88:	e1ffcc17 	ldw	r7,-208(fp)
 c002d8c:	e1bfcb17 	ldw	r6,-212(fp)
 c002d90:	e17fca17 	ldw	r5,-216(fp)
 c002d94:	1809883a 	mov	r4,r3
 c002d98:	c001e100 	call	c001e10 <TetrisPopulate>
 c002d9c:	8009883a 	mov	r4,r16
 c002da0:	e0bfce04 	addi	r2,fp,-200
 c002da4:	00c03104 	movi	r3,196
 c002da8:	180d883a 	mov	r6,r3
 c002dac:	100b883a 	mov	r5,r2
 c002db0:	c0064c40 	call	c0064c4 <memcpy>
										run1=1;
 c002db4:	00800044 	movi	r2,1
 c002db8:	d0a7a815 	stw	r2,-24928(gp)
 c002dbc:	00009a06 	br	c003028 <keyInput+0x8d8>
									} else if (difficulty1 == 0) {
 c002dc0:	d0a7a617 	ldw	r2,-24936(gp)
 c002dc4:	1000081e 	bne	r2,zero,c002de8 <keyInput+0x698>
										printf("a \n");
 c002dc8:	010300b4 	movhi	r4,3074
 c002dcc:	2127cb04 	addi	r4,r4,-24788
 c002dd0:	c0067580 	call	c006758 <puts>
										difficultyMenu(1);
 c002dd4:	01000044 	movi	r4,1
 c002dd8:	c0024d40 	call	c0024d4 <difficultyMenu>
										difficulty1 = -1;
 c002ddc:	00bfffc4 	movi	r2,-1
 c002de0:	d0a7a615 	stw	r2,-24936(gp)
 c002de4:	00009006 	br	c003028 <keyInput+0x8d8>
									} else {
										if (difficultyPos1 == 16) difficulty1 = 1;
 c002de8:	d0a7a417 	ldw	r2,-24944(gp)
 c002dec:	10800418 	cmpnei	r2,r2,16
 c002df0:	1000031e 	bne	r2,zero,c002e00 <keyInput+0x6b0>
 c002df4:	00800044 	movi	r2,1
 c002df8:	d0a7a615 	stw	r2,-24936(gp)
 c002dfc:	00008a06 	br	c003028 <keyInput+0x8d8>
										else if (difficultyPos1 == 18) difficulty1 = 2;
 c002e00:	d0a7a417 	ldw	r2,-24944(gp)
 c002e04:	10800498 	cmpnei	r2,r2,18
 c002e08:	1000031e 	bne	r2,zero,c002e18 <keyInput+0x6c8>
 c002e0c:	00800084 	movi	r2,2
 c002e10:	d0a7a615 	stw	r2,-24936(gp)
 c002e14:	00008406 	br	c003028 <keyInput+0x8d8>
										else if (difficultyPos1 == 20) difficulty1 = 3;
 c002e18:	d0a7a417 	ldw	r2,-24944(gp)
 c002e1c:	10800518 	cmpnei	r2,r2,20
 c002e20:	1000811e 	bne	r2,zero,c003028 <keyInput+0x8d8>
 c002e24:	008000c4 	movi	r2,3
 c002e28:	d0a7a615 	stw	r2,-24936(gp)
 c002e2c:	00007e06 	br	c003028 <keyInput+0x8d8>
									}
								} else if (players == 2) {
 c002e30:	d0a7a317 	ldw	r2,-24948(gp)
 c002e34:	10800098 	cmpnei	r2,r2,2
 c002e38:	10007b1e 	bne	r2,zero,c003028 <keyInput+0x8d8>
									if (difficultyPos1 != 0 && difficulty1 >= 0 && difficultyPos2 != 0 && difficulty2 >= 0&& run1 == 0&& run2 == 0) {
 c002e3c:	d0a7a417 	ldw	r2,-24944(gp)
 c002e40:	10004926 	beq	r2,zero,c002f68 <keyInput+0x818>
 c002e44:	d0a7a617 	ldw	r2,-24936(gp)
 c002e48:	10004716 	blt	r2,zero,c002f68 <keyInput+0x818>
 c002e4c:	d0a7a517 	ldw	r2,-24940(gp)
 c002e50:	10004526 	beq	r2,zero,c002f68 <keyInput+0x818>
 c002e54:	d0a7a717 	ldw	r2,-24932(gp)
 c002e58:	10004316 	blt	r2,zero,c002f68 <keyInput+0x818>
 c002e5c:	d0a7a817 	ldw	r2,-24928(gp)
 c002e60:	1000411e 	bne	r2,zero,c002f68 <keyInput+0x818>
 c002e64:	d0a7a917 	ldw	r2,-24924(gp)
 c002e68:	10003f1e 	bne	r2,zero,c002f68 <keyInput+0x818>
										state1 = TetrisPopulate(x, y, boardcolor,width, height, difficulty1);
 c002e6c:	d0a7a617 	ldw	r2,-24936(gp)
 c002e70:	040300b4 	movhi	r16,3074
 c002e74:	84385404 	addi	r16,r16,-7856
 c002e78:	e0ffce04 	addi	r3,fp,-200
 c002e7c:	d8800215 	stw	r2,8(sp)
 c002e80:	e0800217 	ldw	r2,8(fp)
 c002e84:	d8800115 	stw	r2,4(sp)
 c002e88:	e0bfcd17 	ldw	r2,-204(fp)
 c002e8c:	d8800015 	stw	r2,0(sp)
 c002e90:	e1ffcc17 	ldw	r7,-208(fp)
 c002e94:	e1bfcb17 	ldw	r6,-212(fp)
 c002e98:	e17fca17 	ldw	r5,-216(fp)
 c002e9c:	1809883a 	mov	r4,r3
 c002ea0:	c001e100 	call	c001e10 <TetrisPopulate>
 c002ea4:	8009883a 	mov	r4,r16
 c002ea8:	e0bfce04 	addi	r2,fp,-200
 c002eac:	00c03104 	movi	r3,196
 c002eb0:	180d883a 	mov	r6,r3
 c002eb4:	100b883a 	mov	r5,r2
 c002eb8:	c0064c40 	call	c0064c4 <memcpy>
										state2 = TetrisPopulate(x+44, y, boardcolor,width, height, difficulty2);
 c002ebc:	e0bfca17 	ldw	r2,-216(fp)
 c002ec0:	11000b04 	addi	r4,r2,44
 c002ec4:	d0a7a717 	ldw	r2,-24932(gp)
 c002ec8:	040300b4 	movhi	r16,3074
 c002ecc:	84388504 	addi	r16,r16,-7660
 c002ed0:	e0ffce04 	addi	r3,fp,-200
 c002ed4:	d8800215 	stw	r2,8(sp)
 c002ed8:	e0800217 	ldw	r2,8(fp)
 c002edc:	d8800115 	stw	r2,4(sp)
 c002ee0:	e0bfcd17 	ldw	r2,-204(fp)
 c002ee4:	d8800015 	stw	r2,0(sp)
 c002ee8:	e1ffcc17 	ldw	r7,-208(fp)
 c002eec:	e1bfcb17 	ldw	r6,-212(fp)
 c002ef0:	200b883a 	mov	r5,r4
 c002ef4:	1809883a 	mov	r4,r3
 c002ef8:	c001e100 	call	c001e10 <TetrisPopulate>
 c002efc:	8009883a 	mov	r4,r16
 c002f00:	e0bfce04 	addi	r2,fp,-200
 c002f04:	00c03104 	movi	r3,196
 c002f08:	180d883a 	mov	r6,r3
 c002f0c:	100b883a 	mov	r5,r2
 c002f10:	c0064c40 	call	c0064c4 <memcpy>
										run1 =1;
 c002f14:	00800044 	movi	r2,1
 c002f18:	d0a7a815 	stw	r2,-24928(gp)
										run2 = 1;
 c002f1c:	00800044 	movi	r2,1
 c002f20:	d0a7a915 	stw	r2,-24924(gp)
										VGAwriteText(20, 49, 14, 1, "Instructions: up to rotate; ARROWS L/R");
 c002f24:	008300b4 	movhi	r2,3074
 c002f28:	10a7cc04 	addi	r2,r2,-24784
 c002f2c:	d8800015 	stw	r2,0(sp)
 c002f30:	01c00044 	movi	r7,1
 c002f34:	01800384 	movi	r6,14
 c002f38:	01400c44 	movi	r5,49
 c002f3c:	01000504 	movi	r4,20
 c002f40:	c0038b00 	call	c0038b0 <VGAwriteText>
										VGAwriteText(20, 51, 14, 1, "NUMLOCK to pause; NUMPAD ENTER to restart");
 c002f44:	008300b4 	movhi	r2,3074
 c002f48:	10a7d604 	addi	r2,r2,-24744
 c002f4c:	d8800015 	stw	r2,0(sp)
 c002f50:	01c00044 	movi	r7,1
 c002f54:	01800384 	movi	r6,14
 c002f58:	01400cc4 	movi	r5,51
 c002f5c:	01000504 	movi	r4,20
 c002f60:	c0038b00 	call	c0038b0 <VGAwriteText>
										if (difficultyPos1 == 16) difficulty1 = 1;
										else if (difficultyPos1 == 18) difficulty1 = 2;
										else if (difficultyPos1 == 20) difficulty1 = 3;
									}
								} else if (players == 2) {
									if (difficultyPos1 != 0 && difficulty1 >= 0 && difficultyPos2 != 0 && difficulty2 >= 0&& run1 == 0&& run2 == 0) {
 c002f64:	00003006 	br	c003028 <keyInput+0x8d8>
										state2 = TetrisPopulate(x+44, y, boardcolor,width, height, difficulty2);
										run1 =1;
										run2 = 1;
										VGAwriteText(20, 49, 14, 1, "Instructions: up to rotate; ARROWS L/R");
										VGAwriteText(20, 51, 14, 1, "NUMLOCK to pause; NUMPAD ENTER to restart");
									} else if (difficulty1 ==0 || difficulty2 == 0) {
 c002f68:	d0a7a617 	ldw	r2,-24936(gp)
 c002f6c:	10000226 	beq	r2,zero,c002f78 <keyInput+0x828>
 c002f70:	d0a7a717 	ldw	r2,-24932(gp)
 c002f74:	10000a1e 	bne	r2,zero,c002fa0 <keyInput+0x850>
										printf("b \n");
 c002f78:	010300b4 	movhi	r4,3074
 c002f7c:	2127e104 	addi	r4,r4,-24700
 c002f80:	c0067580 	call	c006758 <puts>
										difficultyMenu(2);
 c002f84:	01000084 	movi	r4,2
 c002f88:	c0024d40 	call	c0024d4 <difficultyMenu>
										difficulty1 = -1;
 c002f8c:	00bfffc4 	movi	r2,-1
 c002f90:	d0a7a615 	stw	r2,-24936(gp)
										difficulty2 = -1;
 c002f94:	00bfffc4 	movi	r2,-1
 c002f98:	d0a7a715 	stw	r2,-24932(gp)
 c002f9c:	00002206 	br	c003028 <keyInput+0x8d8>
									} else {
										if (difficultyPos2 == 36) difficulty2 = 1;
 c002fa0:	d0a7a517 	ldw	r2,-24940(gp)
 c002fa4:	10800918 	cmpnei	r2,r2,36
 c002fa8:	1000031e 	bne	r2,zero,c002fb8 <keyInput+0x868>
 c002fac:	00800044 	movi	r2,1
 c002fb0:	d0a7a715 	stw	r2,-24932(gp)
 c002fb4:	00000b06 	br	c002fe4 <keyInput+0x894>
										else if (difficultyPos2 == 38) difficulty2 = 2;
 c002fb8:	d0a7a517 	ldw	r2,-24940(gp)
 c002fbc:	10800998 	cmpnei	r2,r2,38
 c002fc0:	1000031e 	bne	r2,zero,c002fd0 <keyInput+0x880>
 c002fc4:	00800084 	movi	r2,2
 c002fc8:	d0a7a715 	stw	r2,-24932(gp)
 c002fcc:	00000506 	br	c002fe4 <keyInput+0x894>
										else if (difficultyPos2 == 40) difficulty2 = 3;
 c002fd0:	d0a7a517 	ldw	r2,-24940(gp)
 c002fd4:	10800a18 	cmpnei	r2,r2,40
 c002fd8:	1000021e 	bne	r2,zero,c002fe4 <keyInput+0x894>
 c002fdc:	008000c4 	movi	r2,3
 c002fe0:	d0a7a715 	stw	r2,-24932(gp)
										if (difficultyPos1 == 16) difficulty1 = 1;
 c002fe4:	d0a7a417 	ldw	r2,-24944(gp)
 c002fe8:	10800418 	cmpnei	r2,r2,16
 c002fec:	1000031e 	bne	r2,zero,c002ffc <keyInput+0x8ac>
 c002ff0:	00800044 	movi	r2,1
 c002ff4:	d0a7a615 	stw	r2,-24936(gp)
 c002ff8:	00000b06 	br	c003028 <keyInput+0x8d8>
										else if (difficultyPos1 == 18) difficulty1 = 2;
 c002ffc:	d0a7a417 	ldw	r2,-24944(gp)
 c003000:	10800498 	cmpnei	r2,r2,18
 c003004:	1000031e 	bne	r2,zero,c003014 <keyInput+0x8c4>
 c003008:	00800084 	movi	r2,2
 c00300c:	d0a7a615 	stw	r2,-24936(gp)
 c003010:	00000506 	br	c003028 <keyInput+0x8d8>
										else if (difficultyPos1 == 20) difficulty1 = 3;
 c003014:	d0a7a417 	ldw	r2,-24944(gp)
 c003018:	10800518 	cmpnei	r2,r2,20
 c00301c:	1000021e 	bne	r2,zero,c003028 <keyInput+0x8d8>
 c003020:	008000c4 	movi	r2,3
 c003024:	d0a7a615 	stw	r2,-24936(gp)
									}
								}
							}
							if ((players==1 && difficulty1 > 0) || (players==2 && difficulty2 >0 && difficulty2 >0)) clearMenu();
 c003028:	d0a7a317 	ldw	r2,-24948(gp)
 c00302c:	10800058 	cmpnei	r2,r2,1
 c003030:	1000021e 	bne	r2,zero,c00303c <keyInput+0x8ec>
 c003034:	d0a7a617 	ldw	r2,-24936(gp)
 c003038:	00800716 	blt	zero,r2,c003058 <keyInput+0x908>
 c00303c:	d0a7a317 	ldw	r2,-24948(gp)
 c003040:	10800098 	cmpnei	r2,r2,2
 c003044:	1000051e 	bne	r2,zero,c00305c <keyInput+0x90c>
 c003048:	d0a7a717 	ldw	r2,-24932(gp)
 c00304c:	0080030e 	bge	zero,r2,c00305c <keyInput+0x90c>
 c003050:	d0a7a717 	ldw	r2,-24932(gp)
 c003054:	0080010e 	bge	zero,r2,c00305c <keyInput+0x90c>
 c003058:	c00244c0 	call	c00244c <clearMenu>
						}

					}
				}

				for (int i = 0; i < 6; i++) {
 c00305c:	e0bfc417 	ldw	r2,-240(fp)
 c003060:	10800044 	addi	r2,r2,1
 c003064:	e0bfc415 	stw	r2,-240(fp)
 c003068:	e0bfc417 	ldw	r2,-240(fp)
 c00306c:	10800190 	cmplti	r2,r2,6
 c003070:	103e251e 	bne	r2,zero,c002908 <__alt_data_end+0xfc002908>
							}
							if ((players==1 && difficulty1 > 0) || (players==2 && difficulty2 >0 && difficulty2 >0)) clearMenu();
						}
					}
				}
				setKeycode(kbdbuf.keycode[0]);
 c003074:	e0bfc7c3 	ldbu	r2,-225(fp)
 c003078:	10803fcc 	andi	r2,r2,255
 c00307c:	1009883a 	mov	r4,r2
 c003080:	c001ddc0 	call	c001ddc <setKeycode>
				printSignedHex0(kbdbuf.keycode[0]);
 c003084:	e0bfc7c3 	ldbu	r2,-225(fp)
 c003088:	10803fcc 	andi	r2,r2,255
 c00308c:	1080201c 	xori	r2,r2,128
 c003090:	10bfe004 	addi	r2,r2,-128
 c003094:	1009883a 	mov	r4,r2
 c003098:	c001b8c0 	call	c001b8c <printSignedHex0>
				printSignedHex1(kbdbuf.keycode[1]);
 c00309c:	e0bfc803 	ldbu	r2,-224(fp)
 c0030a0:	10803fcc 	andi	r2,r2,255
 c0030a4:	1080201c 	xori	r2,r2,128
 c0030a8:	10bfe004 	addi	r2,r2,-128
 c0030ac:	1009883a 	mov	r4,r2
 c0030b0:	c001ca40 	call	c001ca4 <printSignedHex1>
 c0030b4:	003dbe06 	br	c0027b0 <__alt_data_end+0xfc0027b0>
			}
		} else if (GetUsbTaskState() == USB_STATE_ERROR) {
 c0030b8:	c0059000 	call	c005900 <GetUsbTaskState>
 c0030bc:	10803fcc 	andi	r2,r2,255
 c0030c0:	10803fd8 	cmpnei	r2,r2,255
 c0030c4:	10000a1e 	bne	r2,zero,c0030f0 <keyInput+0x9a0>
			if (!errorflag) {
 c0030c8:	e0bfc343 	ldbu	r2,-243(fp)
 c0030cc:	103db81e 	bne	r2,zero,c0027b0 <__alt_data_end+0xfc0027b0>
				errorflag = 1;
 c0030d0:	00800044 	movi	r2,1
 c0030d4:	e0bfc345 	stb	r2,-243(fp)
				clearLED(9);
 c0030d8:	01000244 	movi	r4,9
 c0030dc:	c001b440 	call	c001b44 <clearLED>
				printf("USB Error State\n");
 c0030e0:	010300b4 	movhi	r4,3074
 c0030e4:	2127e204 	addi	r4,r4,-24696
 c0030e8:	c0067580 	call	c006758 <puts>
 c0030ec:	003db006 	br	c0027b0 <__alt_data_end+0xfc0027b0>
				//print out string descriptor here
			}
		} else { //not in USB running state

			printf("USB task state: ");
 c0030f0:	010300b4 	movhi	r4,3074
 c0030f4:	2127e604 	addi	r4,r4,-24680
 c0030f8:	c00663c0 	call	c00663c <printf>
			printf("%x\n", GetUsbTaskState());
 c0030fc:	c0059000 	call	c005900 <GetUsbTaskState>
 c003100:	10803fcc 	andi	r2,r2,255
 c003104:	100b883a 	mov	r5,r2
 c003108:	010300b4 	movhi	r4,3074
 c00310c:	2127eb04 	addi	r4,r4,-24660
 c003110:	c00663c0 	call	c00663c <printf>
			if (runningdebugflag) {	//previously running, reset USB hardware just to clear out any funky state, HS/FS etc
 c003114:	e0bfc303 	ldbu	r2,-244(fp)
 c003118:	10000326 	beq	r2,zero,c003128 <keyInput+0x9d8>
				runningdebugflag = 0;
 c00311c:	e03fc305 	stb	zero,-244(fp)
				MAX3421E_init();
 c003120:	c00494c0 	call	c00494c <MAX3421E_init>
				USB_init();
 c003124:	c0050f80 	call	c0050f8 <USB_init>
			}
			errorflag = 0;
 c003128:	e03fc345 	stb	zero,-243(fp)
			clearLED(9);
 c00312c:	01000244 	movi	r4,9
 c003130:	c001b440 	call	c001b44 <clearLED>
 c003134:	003d9e06 	br	c0027b0 <__alt_data_end+0xfc0027b0>
				device = GetDriverandReport();
			} else if (device == 1) {
				//run keyboard debug polling
				rcode = kbdPoll(&kbdbuf);
				if (rcode == hrNAK) {
					continue; //NAK means no new data
 c003138:	0001883a 	nop
				USB_init();
			}
			errorflag = 0;
			clearLED(9);
		}
	}
 c00313c:	003d9c06 	br	c0027b0 <__alt_data_end+0xfc0027b0>

0c003140 <main>:

#define COLUMNS 80
#define ROWS 60
#include "text_mode_vga_color.h"

int main() {
 c003140:	defffb04 	addi	sp,sp,-20
 c003144:	dfc00415 	stw	ra,16(sp)
 c003148:	df000315 	stw	fp,12(sp)
 c00314c:	df000304 	addi	fp,sp,12
	screenVGAinitializer();
 c003150:	c0034900 	call	c003490 <screenVGAinitializer>
	for (int i = 0; i < 80; i++) {
 c003154:	e03ffe15 	stw	zero,-8(fp)
 c003158:	00000b06 	br	c003188 <main+0x48>
		VGADrawColorBox(i,0,15);
 c00315c:	018003c4 	movi	r6,15
 c003160:	000b883a 	mov	r5,zero
 c003164:	e13ffe17 	ldw	r4,-8(fp)
 c003168:	c0038440 	call	c003844 <VGADrawColorBox>
		VGADrawColorBox(i,59,15);
 c00316c:	018003c4 	movi	r6,15
 c003170:	01400ec4 	movi	r5,59
 c003174:	e13ffe17 	ldw	r4,-8(fp)
 c003178:	c0038440 	call	c003844 <VGADrawColorBox>
#define ROWS 60
#include "text_mode_vga_color.h"

int main() {
	screenVGAinitializer();
	for (int i = 0; i < 80; i++) {
 c00317c:	e0bffe17 	ldw	r2,-8(fp)
 c003180:	10800044 	addi	r2,r2,1
 c003184:	e0bffe15 	stw	r2,-8(fp)
 c003188:	e0bffe17 	ldw	r2,-8(fp)
 c00318c:	10801410 	cmplti	r2,r2,80
 c003190:	103ff21e 	bne	r2,zero,c00315c <__alt_data_end+0xfc00315c>
		VGADrawColorBox(i,0,15);
		VGADrawColorBox(i,59,15);
	}
	for (int i = 0; i < 60; i++) {
 c003194:	e03fff15 	stw	zero,-4(fp)
 c003198:	00000b06 	br	c0031c8 <main+0x88>
		VGADrawColorBox(0,i,15);
 c00319c:	018003c4 	movi	r6,15
 c0031a0:	e17fff17 	ldw	r5,-4(fp)
 c0031a4:	0009883a 	mov	r4,zero
 c0031a8:	c0038440 	call	c003844 <VGADrawColorBox>
		VGADrawColorBox(79,i,15);
 c0031ac:	018003c4 	movi	r6,15
 c0031b0:	e17fff17 	ldw	r5,-4(fp)
 c0031b4:	010013c4 	movi	r4,79
 c0031b8:	c0038440 	call	c003844 <VGADrawColorBox>
	screenVGAinitializer();
	for (int i = 0; i < 80; i++) {
		VGADrawColorBox(i,0,15);
		VGADrawColorBox(i,59,15);
	}
	for (int i = 0; i < 60; i++) {
 c0031bc:	e0bfff17 	ldw	r2,-4(fp)
 c0031c0:	10800044 	addi	r2,r2,1
 c0031c4:	e0bfff15 	stw	r2,-4(fp)
 c0031c8:	e0bfff17 	ldw	r2,-4(fp)
 c0031cc:	10800f10 	cmplti	r2,r2,60
 c0031d0:	103ff21e 	bne	r2,zero,c00319c <__alt_data_end+0xfc00319c>
		VGADrawColorBox(0,i,15);
		VGADrawColorBox(79,i,15);
	}


	keyInput(12,4,1,10,20);
 c0031d4:	00800504 	movi	r2,20
 c0031d8:	d8800015 	stw	r2,0(sp)
 c0031dc:	01c00284 	movi	r7,10
 c0031e0:	01800044 	movi	r6,1
 c0031e4:	01400104 	movi	r5,4
 c0031e8:	01000304 	movi	r4,12
 c0031ec:	c0027500 	call	c002750 <keyInput>
	return 1;
 c0031f0:	00800044 	movi	r2,1
}
 c0031f4:	e037883a 	mov	sp,fp
 c0031f8:	dfc00117 	ldw	ra,4(sp)
 c0031fc:	df000017 	ldw	fp,0(sp)
 c003200:	dec00204 	addi	sp,sp,8
 c003204:	f800283a 	ret

0c003208 <textVGAColorClr>:
#include <string.h>
#include <alt_types.h>
#include "text_mode_vga_color.h"

void textVGAColorClr()
{
 c003208:	defffe04 	addi	sp,sp,-8
 c00320c:	df000115 	stw	fp,4(sp)
 c003210:	df000104 	addi	fp,sp,4
	for (int i = 0; i<(ROWS*COLUMNS) * 2; i++)
 c003214:	e03fff15 	stw	zero,-4(fp)
 c003218:	00000706 	br	c003238 <textVGAColorClr+0x30>
	{
		vga_ctrl->VRAM[i] = 0x00;
 c00321c:	d0e00617 	ldw	r3,-32744(gp)
 c003220:	e0bfff17 	ldw	r2,-4(fp)
 c003224:	1885883a 	add	r2,r3,r2
 c003228:	10000005 	stb	zero,0(r2)
#include <alt_types.h>
#include "text_mode_vga_color.h"

void textVGAColorClr()
{
	for (int i = 0; i<(ROWS*COLUMNS) * 2; i++)
 c00322c:	e0bfff17 	ldw	r2,-4(fp)
 c003230:	10800044 	addi	r2,r2,1
 c003234:	e0bfff15 	stw	r2,-4(fp)
 c003238:	e0bfff17 	ldw	r2,-4(fp)
 c00323c:	10896010 	cmplti	r2,r2,9600
 c003240:	103ff61e 	bne	r2,zero,c00321c <__alt_data_end+0xfc00321c>
	{
		vga_ctrl->VRAM[i] = 0x00;
	}
}
 c003244:	0001883a 	nop
 c003248:	e037883a 	mov	sp,fp
 c00324c:	df000017 	ldw	fp,0(sp)
 c003250:	dec00104 	addi	sp,sp,4
 c003254:	f800283a 	ret

0c003258 <textVGADrawColorText>:

void textVGADrawColorText(char* str, int x, int y, alt_u8 background, alt_u8 foreground)
{
 c003258:	defff704 	addi	sp,sp,-36
 c00325c:	dfc00815 	stw	ra,32(sp)
 c003260:	df000715 	stw	fp,28(sp)
 c003264:	dc000615 	stw	r16,24(sp)
 c003268:	df000704 	addi	fp,sp,28
 c00326c:	e13ffa15 	stw	r4,-24(fp)
 c003270:	e17ffb15 	stw	r5,-20(fp)
 c003274:	e1bffc15 	stw	r6,-16(fp)
 c003278:	3807883a 	mov	r3,r7
 c00327c:	e0800217 	ldw	r2,8(fp)
 c003280:	e0fffd05 	stb	r3,-12(fp)
 c003284:	e0bffe05 	stb	r2,-8(fp)
	int i = 0;
 c003288:	e03ff915 	stw	zero,-28(fp)
	while (str[i]!=0)
 c00328c:	00002706 	br	c00332c <textVGADrawColorText+0xd4>
	{
		vga_ctrl->VRAM[(y*COLUMNS + x + i) * 2] = foreground << 4 | background;
 c003290:	d4200617 	ldw	r16,-32744(gp)
 c003294:	01401404 	movi	r5,80
 c003298:	e13ffc17 	ldw	r4,-16(fp)
 c00329c:	c005b900 	call	c005b90 <__mulsi3>
 c0032a0:	1007883a 	mov	r3,r2
 c0032a4:	e0bffb17 	ldw	r2,-20(fp)
 c0032a8:	1887883a 	add	r3,r3,r2
 c0032ac:	e0bff917 	ldw	r2,-28(fp)
 c0032b0:	1885883a 	add	r2,r3,r2
 c0032b4:	1085883a 	add	r2,r2,r2
 c0032b8:	1009883a 	mov	r4,r2
 c0032bc:	e0bffe03 	ldbu	r2,-8(fp)
 c0032c0:	1004913a 	slli	r2,r2,4
 c0032c4:	1007883a 	mov	r3,r2
 c0032c8:	e0bffd03 	ldbu	r2,-12(fp)
 c0032cc:	1884b03a 	or	r2,r3,r2
 c0032d0:	1007883a 	mov	r3,r2
 c0032d4:	8105883a 	add	r2,r16,r4
 c0032d8:	10c00005 	stb	r3,0(r2)
		vga_ctrl->VRAM[(y*COLUMNS + x + i) * 2 + 1] = str[i];
 c0032dc:	d4200617 	ldw	r16,-32744(gp)
 c0032e0:	01401404 	movi	r5,80
 c0032e4:	e13ffc17 	ldw	r4,-16(fp)
 c0032e8:	c005b900 	call	c005b90 <__mulsi3>
 c0032ec:	1007883a 	mov	r3,r2
 c0032f0:	e0bffb17 	ldw	r2,-20(fp)
 c0032f4:	1887883a 	add	r3,r3,r2
 c0032f8:	e0bff917 	ldw	r2,-28(fp)
 c0032fc:	1885883a 	add	r2,r3,r2
 c003300:	1085883a 	add	r2,r2,r2
 c003304:	10800044 	addi	r2,r2,1
 c003308:	e0fff917 	ldw	r3,-28(fp)
 c00330c:	e13ffa17 	ldw	r4,-24(fp)
 c003310:	20c7883a 	add	r3,r4,r3
 c003314:	18c00003 	ldbu	r3,0(r3)
 c003318:	8085883a 	add	r2,r16,r2
 c00331c:	10c00005 	stb	r3,0(r2)
		i++;
 c003320:	e0bff917 	ldw	r2,-28(fp)
 c003324:	10800044 	addi	r2,r2,1
 c003328:	e0bff915 	stw	r2,-28(fp)
}

void textVGADrawColorText(char* str, int x, int y, alt_u8 background, alt_u8 foreground)
{
	int i = 0;
	while (str[i]!=0)
 c00332c:	e0bff917 	ldw	r2,-28(fp)
 c003330:	e0fffa17 	ldw	r3,-24(fp)
 c003334:	1885883a 	add	r2,r3,r2
 c003338:	10800003 	ldbu	r2,0(r2)
 c00333c:	10803fcc 	andi	r2,r2,255
 c003340:	1080201c 	xori	r2,r2,128
 c003344:	10bfe004 	addi	r2,r2,-128
 c003348:	103fd11e 	bne	r2,zero,c003290 <__alt_data_end+0xfc003290>
	{
		vga_ctrl->VRAM[(y*COLUMNS + x + i) * 2] = foreground << 4 | background;
		vga_ctrl->VRAM[(y*COLUMNS + x + i) * 2 + 1] = str[i];
		i++;
	}
}
 c00334c:	0001883a 	nop
 c003350:	e6ffff04 	addi	sp,fp,-4
 c003354:	dfc00217 	ldw	ra,8(sp)
 c003358:	df000117 	ldw	fp,4(sp)
 c00335c:	dc000017 	ldw	r16,0(sp)
 c003360:	dec00304 	addi	sp,sp,12
 c003364:	f800283a 	ret

0c003368 <setColorPalette>:

void setColorPalette (alt_u8 color, alt_u8 red, alt_u8 green, alt_u8 blue)
{
 c003368:	defff904 	addi	sp,sp,-28
 c00336c:	df000615 	stw	fp,24(sp)
 c003370:	df000604 	addi	fp,sp,24
 c003374:	2011883a 	mov	r8,r4
 c003378:	2809883a 	mov	r4,r5
 c00337c:	3007883a 	mov	r3,r6
 c003380:	3805883a 	mov	r2,r7
 c003384:	e23ffc05 	stb	r8,-16(fp)
 c003388:	e13ffd05 	stb	r4,-12(fp)
 c00338c:	e0fffe05 	stb	r3,-8(fp)
 c003390:	e0bfff05 	stb	r2,-4(fp)
	alt_u32 shifts;
	alt_u32 original;
	original = vga_ctrl->palette[color/2];
 c003394:	d0e00617 	ldw	r3,-32744(gp)
 c003398:	e0bffc03 	ldbu	r2,-16(fp)
 c00339c:	1004d07a 	srli	r2,r2,1
 c0033a0:	10803fcc 	andi	r2,r2,255
 c0033a4:	10830004 	addi	r2,r2,3072
 c0033a8:	1085883a 	add	r2,r2,r2
 c0033ac:	1085883a 	add	r2,r2,r2
 c0033b0:	1885883a 	add	r2,r3,r2
 c0033b4:	10800017 	ldw	r2,0(r2)
 c0033b8:	e0bffb15 	stw	r2,-20(fp)
	shifts = red;
 c0033bc:	e0bffd03 	ldbu	r2,-12(fp)
 c0033c0:	e0bffa15 	stw	r2,-24(fp)
	shifts = shifts << 4;
 c0033c4:	e0bffa17 	ldw	r2,-24(fp)
 c0033c8:	1004913a 	slli	r2,r2,4
 c0033cc:	e0bffa15 	stw	r2,-24(fp)
	shifts = shifts | green;
 c0033d0:	e0bffe03 	ldbu	r2,-8(fp)
 c0033d4:	e0fffa17 	ldw	r3,-24(fp)
 c0033d8:	1884b03a 	or	r2,r3,r2
 c0033dc:	e0bffa15 	stw	r2,-24(fp)
	shifts = shifts << 4;
 c0033e0:	e0bffa17 	ldw	r2,-24(fp)
 c0033e4:	1004913a 	slli	r2,r2,4
 c0033e8:	e0bffa15 	stw	r2,-24(fp)
	shifts = shifts | blue;
 c0033ec:	e0bfff03 	ldbu	r2,-4(fp)
 c0033f0:	e0fffa17 	ldw	r3,-24(fp)
 c0033f4:	1884b03a 	or	r2,r3,r2
 c0033f8:	e0bffa15 	stw	r2,-24(fp)
	if (color %2 ==0){
 c0033fc:	e0bffc03 	ldbu	r2,-16(fp)
 c003400:	1080004c 	andi	r2,r2,1
 c003404:	10803fcc 	andi	r2,r2,255
 c003408:	1000081e 	bne	r2,zero,c00342c <setColorPalette+0xc4>
		original = original & 0xFFFFE000;
 c00340c:	e0fffb17 	ldw	r3,-20(fp)
 c003410:	00b80004 	movi	r2,-8192
 c003414:	1884703a 	and	r2,r3,r2
 c003418:	e0bffb15 	stw	r2,-20(fp)
		shifts = shifts << 1;
 c00341c:	e0bffa17 	ldw	r2,-24(fp)
 c003420:	1085883a 	add	r2,r2,r2
 c003424:	e0bffa15 	stw	r2,-24(fp)
 c003428:	00000606 	br	c003444 <setColorPalette+0xdc>
	} else {
		original = original & 0x00001FFF;
 c00342c:	e0bffb17 	ldw	r2,-20(fp)
 c003430:	1087ffcc 	andi	r2,r2,8191
 c003434:	e0bffb15 	stw	r2,-20(fp)
		shifts = shifts << 13;
 c003438:	e0bffa17 	ldw	r2,-24(fp)
 c00343c:	1004937a 	slli	r2,r2,13
 c003440:	e0bffa15 	stw	r2,-24(fp)
	}
	original = original | shifts;
 c003444:	e0fffb17 	ldw	r3,-20(fp)
 c003448:	e0bffa17 	ldw	r2,-24(fp)
 c00344c:	1884b03a 	or	r2,r3,r2
 c003450:	e0bffb15 	stw	r2,-20(fp)
	vga_ctrl->palette[color/2] = original;
 c003454:	d0e00617 	ldw	r3,-32744(gp)
 c003458:	e0bffc03 	ldbu	r2,-16(fp)
 c00345c:	1004d07a 	srli	r2,r2,1
 c003460:	10803fcc 	andi	r2,r2,255
 c003464:	10830004 	addi	r2,r2,3072
 c003468:	1085883a 	add	r2,r2,r2
 c00346c:	1085883a 	add	r2,r2,r2
 c003470:	1885883a 	add	r2,r3,r2
 c003474:	e0fffb17 	ldw	r3,-20(fp)
 c003478:	10c00015 	stw	r3,0(r2)
}
 c00347c:	0001883a 	nop
 c003480:	e037883a 	mov	sp,fp
 c003484:	df000017 	ldw	fp,0(sp)
 c003488:	dec00104 	addi	sp,sp,4
 c00348c:	f800283a 	ret

0c003490 <screenVGAinitializer>:

void screenVGAinitializer() {
 c003490:	defff904 	addi	sp,sp,-28
 c003494:	dfc00615 	stw	ra,24(sp)
 c003498:	df000515 	stw	fp,20(sp)
 c00349c:	dcc00415 	stw	r19,16(sp)
 c0034a0:	dc800315 	stw	r18,12(sp)
 c0034a4:	dc400215 	stw	r17,8(sp)
 c0034a8:	dc000115 	stw	r16,4(sp)
 c0034ac:	df000504 	addi	fp,sp,20
	textVGAColorClr();
 c0034b0:	c0032080 	call	c003208 <textVGAColorClr>
	//initialize palette
	for (int i = 0; i < 16; i++)
 c0034b4:	e03ffb15 	stw	zero,-20(fp)
 c0034b8:	00002806 	br	c00355c <screenVGAinitializer+0xcc>
	{
		setColorPalette (i, colors[i].red, colors[i].green, colors[i].blue);
 c0034bc:	e0bffb17 	ldw	r2,-20(fp)
 c0034c0:	14403fcc 	andi	r17,r2,255
 c0034c4:	040300b4 	movhi	r16,3074
 c0034c8:	84296804 	addi	r16,r16,-23136
 c0034cc:	e0bffb17 	ldw	r2,-20(fp)
 c0034d0:	014005c4 	movi	r5,23
 c0034d4:	1009883a 	mov	r4,r2
 c0034d8:	c005b900 	call	c005b90 <__mulsi3>
 c0034dc:	8085883a 	add	r2,r16,r2
 c0034e0:	10800504 	addi	r2,r2,20
 c0034e4:	10800003 	ldbu	r2,0(r2)
 c0034e8:	14803fcc 	andi	r18,r2,255
 c0034ec:	040300b4 	movhi	r16,3074
 c0034f0:	84296804 	addi	r16,r16,-23136
 c0034f4:	e0bffb17 	ldw	r2,-20(fp)
 c0034f8:	014005c4 	movi	r5,23
 c0034fc:	1009883a 	mov	r4,r2
 c003500:	c005b900 	call	c005b90 <__mulsi3>
 c003504:	8085883a 	add	r2,r16,r2
 c003508:	10800544 	addi	r2,r2,21
 c00350c:	10800003 	ldbu	r2,0(r2)
 c003510:	14c03fcc 	andi	r19,r2,255
 c003514:	040300b4 	movhi	r16,3074
 c003518:	84296804 	addi	r16,r16,-23136
 c00351c:	e0bffb17 	ldw	r2,-20(fp)
 c003520:	014005c4 	movi	r5,23
 c003524:	1009883a 	mov	r4,r2
 c003528:	c005b900 	call	c005b90 <__mulsi3>
 c00352c:	8085883a 	add	r2,r16,r2
 c003530:	10800584 	addi	r2,r2,22
 c003534:	10800003 	ldbu	r2,0(r2)
 c003538:	10803fcc 	andi	r2,r2,255
 c00353c:	100f883a 	mov	r7,r2
 c003540:	980d883a 	mov	r6,r19
 c003544:	900b883a 	mov	r5,r18
 c003548:	8809883a 	mov	r4,r17
 c00354c:	c0033680 	call	c003368 <setColorPalette>
}

void screenVGAinitializer() {
	textVGAColorClr();
	//initialize palette
	for (int i = 0; i < 16; i++)
 c003550:	e0bffb17 	ldw	r2,-20(fp)
 c003554:	10800044 	addi	r2,r2,1
 c003558:	e0bffb15 	stw	r2,-20(fp)
 c00355c:	e0bffb17 	ldw	r2,-20(fp)
 c003560:	10800410 	cmplti	r2,r2,16
 c003564:	103fd51e 	bne	r2,zero,c0034bc <__alt_data_end+0xfc0034bc>
	{
		setColorPalette (i, colors[i].red, colors[i].green, colors[i].blue);
	}

}
 c003568:	0001883a 	nop
 c00356c:	e6fffc04 	addi	sp,fp,-16
 c003570:	dfc00517 	ldw	ra,20(sp)
 c003574:	df000417 	ldw	fp,16(sp)
 c003578:	dcc00317 	ldw	r19,12(sp)
 c00357c:	dc800217 	ldw	r18,8(sp)
 c003580:	dc400117 	ldw	r17,4(sp)
 c003584:	dc000017 	ldw	r16,0(sp)
 c003588:	dec00604 	addi	sp,sp,24
 c00358c:	f800283a 	ret

0c003590 <textVGAColorScreenSaver>:

void textVGAColorScreenSaver()
{
 c003590:	deffde04 	addi	sp,sp,-136
 c003594:	dfc02115 	stw	ra,132(sp)
 c003598:	df002015 	stw	fp,128(sp)
 c00359c:	dcc01f15 	stw	r19,124(sp)
 c0035a0:	dc801e15 	stw	r18,120(sp)
 c0035a4:	dc401d15 	stw	r17,116(sp)
 c0035a8:	dc001c15 	stw	r16,112(sp)
 c0035ac:	df002004 	addi	fp,sp,128
	//This is the function you call for your week 2 demo
	int flag = 0;
 c0035b0:	e03fe415 	stw	zero,-112(fp)
	char color_string[80];
    int fg, bg, x, y;
	textVGAColorClr();
 c0035b4:	c0032080 	call	c003208 <textVGAColorClr>
	//initialize palette
	for (int i = 0; i < 16; i++)
 c0035b8:	e03fe315 	stw	zero,-116(fp)
 c0035bc:	00002806 	br	c003660 <textVGAColorScreenSaver+0xd0>
	{
		setColorPalette (i, colors[i].red, colors[i].green, colors[i].blue);
 c0035c0:	e0bfe317 	ldw	r2,-116(fp)
 c0035c4:	14403fcc 	andi	r17,r2,255
 c0035c8:	040300b4 	movhi	r16,3074
 c0035cc:	84296804 	addi	r16,r16,-23136
 c0035d0:	e0bfe317 	ldw	r2,-116(fp)
 c0035d4:	014005c4 	movi	r5,23
 c0035d8:	1009883a 	mov	r4,r2
 c0035dc:	c005b900 	call	c005b90 <__mulsi3>
 c0035e0:	8085883a 	add	r2,r16,r2
 c0035e4:	10800504 	addi	r2,r2,20
 c0035e8:	10800003 	ldbu	r2,0(r2)
 c0035ec:	14803fcc 	andi	r18,r2,255
 c0035f0:	040300b4 	movhi	r16,3074
 c0035f4:	84296804 	addi	r16,r16,-23136
 c0035f8:	e0bfe317 	ldw	r2,-116(fp)
 c0035fc:	014005c4 	movi	r5,23
 c003600:	1009883a 	mov	r4,r2
 c003604:	c005b900 	call	c005b90 <__mulsi3>
 c003608:	8085883a 	add	r2,r16,r2
 c00360c:	10800544 	addi	r2,r2,21
 c003610:	10800003 	ldbu	r2,0(r2)
 c003614:	14c03fcc 	andi	r19,r2,255
 c003618:	040300b4 	movhi	r16,3074
 c00361c:	84296804 	addi	r16,r16,-23136
 c003620:	e0bfe317 	ldw	r2,-116(fp)
 c003624:	014005c4 	movi	r5,23
 c003628:	1009883a 	mov	r4,r2
 c00362c:	c005b900 	call	c005b90 <__mulsi3>
 c003630:	8085883a 	add	r2,r16,r2
 c003634:	10800584 	addi	r2,r2,22
 c003638:	10800003 	ldbu	r2,0(r2)
 c00363c:	10803fcc 	andi	r2,r2,255
 c003640:	100f883a 	mov	r7,r2
 c003644:	980d883a 	mov	r6,r19
 c003648:	900b883a 	mov	r5,r18
 c00364c:	8809883a 	mov	r4,r17
 c003650:	c0033680 	call	c003368 <setColorPalette>
	int flag = 0;
	char color_string[80];
    int fg, bg, x, y;
	textVGAColorClr();
	//initialize palette
	for (int i = 0; i < 16; i++)
 c003654:	e0bfe317 	ldw	r2,-116(fp)
 c003658:	10800044 	addi	r2,r2,1
 c00365c:	e0bfe315 	stw	r2,-116(fp)
 c003660:	e0bfe317 	ldw	r2,-116(fp)
 c003664:	10800410 	cmplti	r2,r2,16
 c003668:	103fd51e 	bne	r2,zero,c0035c0 <__alt_data_end+0xfc0035c0>
	{
		setColorPalette (i, colors[i].red, colors[i].green, colors[i].blue);
	}
	int count =0;
 c00366c:	e03fe515 	stw	zero,-108(fp)
	while (1) {
	//for(int y = 0; y < COLUMNS; y++){
		fg = rand() % 16;
 c003670:	c0067840 	call	c006784 <rand>
 c003674:	1007883a 	mov	r3,r2
 c003678:	00a00034 	movhi	r2,32768
 c00367c:	108003c4 	addi	r2,r2,15
 c003680:	1884703a 	and	r2,r3,r2
 c003684:	1000040e 	bge	r2,zero,c003698 <textVGAColorScreenSaver+0x108>
 c003688:	10bfffc4 	addi	r2,r2,-1
 c00368c:	00fffc04 	movi	r3,-16
 c003690:	10c4b03a 	or	r2,r2,r3
 c003694:	10800044 	addi	r2,r2,1
 c003698:	e0bfe115 	stw	r2,-124(fp)
		bg = rand() % 16;
 c00369c:	c0067840 	call	c006784 <rand>
 c0036a0:	1007883a 	mov	r3,r2
 c0036a4:	00a00034 	movhi	r2,32768
 c0036a8:	108003c4 	addi	r2,r2,15
 c0036ac:	1884703a 	and	r2,r3,r2
 c0036b0:	1000040e 	bge	r2,zero,c0036c4 <textVGAColorScreenSaver+0x134>
 c0036b4:	10bfffc4 	addi	r2,r2,-1
 c0036b8:	00fffc04 	movi	r3,-16
 c0036bc:	10c4b03a 	or	r2,r2,r3
 c0036c0:	10800044 	addi	r2,r2,1
 c0036c4:	e0bfe215 	stw	r2,-120(fp)
		while (fg == bg)
 c0036c8:	00001606 	br	c003724 <textVGAColorScreenSaver+0x194>
		{
			fg = rand() % 16;
 c0036cc:	c0067840 	call	c006784 <rand>
 c0036d0:	1007883a 	mov	r3,r2
 c0036d4:	00a00034 	movhi	r2,32768
 c0036d8:	108003c4 	addi	r2,r2,15
 c0036dc:	1884703a 	and	r2,r3,r2
 c0036e0:	1000040e 	bge	r2,zero,c0036f4 <textVGAColorScreenSaver+0x164>
 c0036e4:	10bfffc4 	addi	r2,r2,-1
 c0036e8:	00fffc04 	movi	r3,-16
 c0036ec:	10c4b03a 	or	r2,r2,r3
 c0036f0:	10800044 	addi	r2,r2,1
 c0036f4:	e0bfe115 	stw	r2,-124(fp)
			bg = rand() % 16;
 c0036f8:	c0067840 	call	c006784 <rand>
 c0036fc:	1007883a 	mov	r3,r2
 c003700:	00a00034 	movhi	r2,32768
 c003704:	108003c4 	addi	r2,r2,15
 c003708:	1884703a 	and	r2,r3,r2
 c00370c:	1000040e 	bge	r2,zero,c003720 <textVGAColorScreenSaver+0x190>
 c003710:	10bfffc4 	addi	r2,r2,-1
 c003714:	00fffc04 	movi	r3,-16
 c003718:	10c4b03a 	or	r2,r2,r3
 c00371c:	10800044 	addi	r2,r2,1
 c003720:	e0bfe215 	stw	r2,-120(fp)
	int count =0;
	while (1) {
	//for(int y = 0; y < COLUMNS; y++){
		fg = rand() % 16;
		bg = rand() % 16;
		while (fg == bg)
 c003724:	e0ffe117 	ldw	r3,-124(fp)
 c003728:	e0bfe217 	ldw	r2,-120(fp)
 c00372c:	18bfe726 	beq	r3,r2,c0036cc <__alt_data_end+0xfc0036cc>
		{
			fg = rand() % 16;
			bg = rand() % 16;
		}
		//sprintf(color_string," ttttttt ");
		sprintf(color_string, "Drawing %s text with %s background", colors[fg].name, colors[bg].name);
 c003730:	014005c4 	movi	r5,23
 c003734:	e13fe117 	ldw	r4,-124(fp)
 c003738:	c005b900 	call	c005b90 <__mulsi3>
 c00373c:	1007883a 	mov	r3,r2
 c003740:	008300b4 	movhi	r2,3074
 c003744:	10a96804 	addi	r2,r2,-23136
 c003748:	18a1883a 	add	r16,r3,r2
 c00374c:	014005c4 	movi	r5,23
 c003750:	e13fe217 	ldw	r4,-120(fp)
 c003754:	c005b900 	call	c005b90 <__mulsi3>
 c003758:	1007883a 	mov	r3,r2
 c00375c:	008300b4 	movhi	r2,3074
 c003760:	10a96804 	addi	r2,r2,-23136
 c003764:	1887883a 	add	r3,r3,r2
 c003768:	e0bfe804 	addi	r2,fp,-96
 c00376c:	180f883a 	mov	r7,r3
 c003770:	800d883a 	mov	r6,r16
 c003774:	014300b4 	movhi	r5,3074
 c003778:	2967fa04 	addi	r5,r5,-24600
 c00377c:	1009883a 	mov	r4,r2
 c003780:	c0068940 	call	c006894 <sprintf>
		x = rand() % (ROWS-strlen(color_string));
 c003784:	c0067840 	call	c006784 <rand>
 c003788:	1021883a 	mov	r16,r2
 c00378c:	e0bfe804 	addi	r2,fp,-96
 c003790:	1009883a 	mov	r4,r2
 c003794:	c0069000 	call	c006900 <strlen>
 c003798:	1007883a 	mov	r3,r2
 c00379c:	00800f04 	movi	r2,60
 c0037a0:	10c5c83a 	sub	r2,r2,r3
 c0037a4:	100b883a 	mov	r5,r2
 c0037a8:	8009883a 	mov	r4,r16
 c0037ac:	c005b380 	call	c005b38 <__umodsi3>
 c0037b0:	e0bfe615 	stw	r2,-104(fp)
		y = rand() % 60;
 c0037b4:	c0067840 	call	c006784 <rand>
 c0037b8:	01400f04 	movi	r5,60
 c0037bc:	1009883a 	mov	r4,r2
 c0037c0:	c005a600 	call	c005a60 <__modsi3>
 c0037c4:	e0bfe715 	stw	r2,-100(fp)
		if (y %2==0) {
 c0037c8:	e0bfe717 	ldw	r2,-100(fp)
 c0037cc:	1080004c 	andi	r2,r2,1
 c0037d0:	1000181e 	bne	r2,zero,c003834 <textVGAColorScreenSaver+0x2a4>
			textVGADrawColorText (color_string, x, y, bg, fg);
 c0037d4:	e0bfe217 	ldw	r2,-120(fp)
 c0037d8:	11003fcc 	andi	r4,r2,255
 c0037dc:	e0bfe117 	ldw	r2,-124(fp)
 c0037e0:	10803fcc 	andi	r2,r2,255
 c0037e4:	e0ffe804 	addi	r3,fp,-96
 c0037e8:	d8800015 	stw	r2,0(sp)
 c0037ec:	200f883a 	mov	r7,r4
 c0037f0:	e1bfe717 	ldw	r6,-100(fp)
 c0037f4:	e17fe617 	ldw	r5,-104(fp)
 c0037f8:	1809883a 	mov	r4,r3
 c0037fc:	c0032580 	call	c003258 <textVGADrawColorText>
			textVGADrawColorText (color_string, x, y+1, bg, fg);
 c003800:	e0bfe717 	ldw	r2,-100(fp)
 c003804:	11000044 	addi	r4,r2,1
 c003808:	e0bfe217 	ldw	r2,-120(fp)
 c00380c:	11403fcc 	andi	r5,r2,255
 c003810:	e0bfe117 	ldw	r2,-124(fp)
 c003814:	10803fcc 	andi	r2,r2,255
 c003818:	e0ffe804 	addi	r3,fp,-96
 c00381c:	d8800015 	stw	r2,0(sp)
 c003820:	280f883a 	mov	r7,r5
 c003824:	200d883a 	mov	r6,r4
 c003828:	e17fe617 	ldw	r5,-104(fp)
 c00382c:	1809883a 	mov	r4,r3
 c003830:	c0032580 	call	c003258 <textVGADrawColorText>

		}
		usleep (100000);
 c003834:	010000b4 	movhi	r4,2
 c003838:	2121a804 	addi	r4,r4,-31072
 c00383c:	c017a140 	call	c017a14 <usleep>
	//}
	}
 c003840:	003f8b06 	br	c003670 <__alt_data_end+0xfc003670>

0c003844 <VGADrawColorBox>:
	//VGADrawColorBox(2,2,15,0);
	//VGADrawColorBox(ROWS/2,COLUMNS/2,3,0);
}

void VGADrawColorBox(int x, int y, alt_u8 background)
{
 c003844:	defffa04 	addi	sp,sp,-24
 c003848:	dfc00515 	stw	ra,20(sp)
 c00384c:	df000415 	stw	fp,16(sp)
 c003850:	dc000315 	stw	r16,12(sp)
 c003854:	df000404 	addi	fp,sp,16
 c003858:	e13ffc15 	stw	r4,-16(fp)
 c00385c:	e17ffd15 	stw	r5,-12(fp)
 c003860:	3005883a 	mov	r2,r6
 c003864:	e0bffe05 	stb	r2,-8(fp)
	vga_ctrl->VRAM[(y*COLUMNS + x) * 2] = 0 << 4 | background;
 c003868:	d4200617 	ldw	r16,-32744(gp)
 c00386c:	01401404 	movi	r5,80
 c003870:	e13ffd17 	ldw	r4,-12(fp)
 c003874:	c005b900 	call	c005b90 <__mulsi3>
 c003878:	1007883a 	mov	r3,r2
 c00387c:	e0bffc17 	ldw	r2,-16(fp)
 c003880:	1885883a 	add	r2,r3,r2
 c003884:	1085883a 	add	r2,r2,r2
 c003888:	8085883a 	add	r2,r16,r2
 c00388c:	e0fffe03 	ldbu	r3,-8(fp)
 c003890:	10c00005 	stb	r3,0(r2)
}
 c003894:	0001883a 	nop
 c003898:	e6ffff04 	addi	sp,fp,-4
 c00389c:	dfc00217 	ldw	ra,8(sp)
 c0038a0:	df000117 	ldw	fp,4(sp)
 c0038a4:	dc000017 	ldw	r16,0(sp)
 c0038a8:	dec00304 	addi	sp,sp,12
 c0038ac:	f800283a 	ret

0c0038b0 <VGAwriteText>:

void VGAwriteText(int x, int y, int colorFG, int colorBG, char text[]) {
 c0038b0:	defff904 	addi	sp,sp,-28
 c0038b4:	dfc00615 	stw	ra,24(sp)
 c0038b8:	df000515 	stw	fp,20(sp)
 c0038bc:	df000504 	addi	fp,sp,20
 c0038c0:	e13ffc15 	stw	r4,-16(fp)
 c0038c4:	e17ffd15 	stw	r5,-12(fp)
 c0038c8:	e1bffe15 	stw	r6,-8(fp)
 c0038cc:	e1ffff15 	stw	r7,-4(fp)
		textVGADrawColorText (text, x, (y/2)*2, colorBG, colorFG);
 c0038d0:	e0bffd17 	ldw	r2,-12(fp)
 c0038d4:	1006d7fa 	srli	r3,r2,31
 c0038d8:	1885883a 	add	r2,r3,r2
 c0038dc:	1005d07a 	srai	r2,r2,1
 c0038e0:	1085883a 	add	r2,r2,r2
 c0038e4:	1009883a 	mov	r4,r2
 c0038e8:	e0bfff17 	ldw	r2,-4(fp)
 c0038ec:	10c03fcc 	andi	r3,r2,255
 c0038f0:	e0bffe17 	ldw	r2,-8(fp)
 c0038f4:	10803fcc 	andi	r2,r2,255
 c0038f8:	d8800015 	stw	r2,0(sp)
 c0038fc:	180f883a 	mov	r7,r3
 c003900:	200d883a 	mov	r6,r4
 c003904:	e17ffc17 	ldw	r5,-16(fp)
 c003908:	e1000217 	ldw	r4,8(fp)
 c00390c:	c0032580 	call	c003258 <textVGADrawColorText>
		textVGADrawColorText (text, x, (y/2)*2+1, colorBG, colorFG);
 c003910:	e0bffd17 	ldw	r2,-12(fp)
 c003914:	1006d7fa 	srli	r3,r2,31
 c003918:	1885883a 	add	r2,r3,r2
 c00391c:	1005d07a 	srai	r2,r2,1
 c003920:	1085883a 	add	r2,r2,r2
 c003924:	10c00044 	addi	r3,r2,1
 c003928:	e0bfff17 	ldw	r2,-4(fp)
 c00392c:	11003fcc 	andi	r4,r2,255
 c003930:	e0bffe17 	ldw	r2,-8(fp)
 c003934:	10803fcc 	andi	r2,r2,255
 c003938:	d8800015 	stw	r2,0(sp)
 c00393c:	200f883a 	mov	r7,r4
 c003940:	180d883a 	mov	r6,r3
 c003944:	e17ffc17 	ldw	r5,-16(fp)
 c003948:	e1000217 	ldw	r4,8(fp)
 c00394c:	c0032580 	call	c003258 <textVGADrawColorText>
}
 c003950:	0001883a 	nop
 c003954:	e037883a 	mov	sp,fp
 c003958:	dfc00117 	ldw	ra,4(sp)
 c00395c:	df000017 	ldw	fp,0(sp)
 c003960:	dec00204 	addi	sp,sp,8
 c003964:	f800283a 	ret

0c003968 <HIDMProbe>:
/* HID Mouse probe. Called from USB state machine.                          */
/* assumes configuration length is less than 256 bytes                      */
/* looks for Class:03, Subclass: 01, Protocol: 02 in interface descriptor   */
/* sets mouse in boot protocol                                              */
/* assumes single configuration and interface configuration 0               */
BOOL HIDMProbe(BYTE addr, DWORD flags) {
 c003968:	defff204 	addi	sp,sp,-56
 c00396c:	dfc00d15 	stw	ra,52(sp)
 c003970:	df000c15 	stw	fp,48(sp)
 c003974:	df000c04 	addi	fp,sp,48
 c003978:	2005883a 	mov	r2,r4
 c00397c:	e17fff15 	stw	r5,-4(fp)
 c003980:	e0bffe05 	stb	r2,-8(fp)
	BYTE tmpbyte;
	BYTE rcode;
	BYTE confvalue;
	WORD total_length;
	USB_DESCR* data_ptr = (USB_DESCR *) &bigbuf;
 c003984:	008300b4 	movhi	r2,3074
 c003988:	10b8b604 	addi	r2,r2,-7464
 c00398c:	e0bffa15 	stw	r2,-24(fp)
	BYTE* byte_ptr = bigbuf;
 c003990:	008300b4 	movhi	r2,3074
 c003994:	10b8b604 	addi	r2,r2,-7464
 c003998:	e0bffb15 	stw	r2,-20(fp)
	rcode = XferGetConfDescr(addr, 0, CONF_DESCR_LEN, 0, bigbuf); //get configuration descriptor
 c00399c:	e0fffe03 	ldbu	r3,-8(fp)
 c0039a0:	008300b4 	movhi	r2,3074
 c0039a4:	10b8b604 	addi	r2,r2,-7464
 c0039a8:	d8800415 	stw	r2,16(sp)
 c0039ac:	00800244 	movi	r2,9
 c0039b0:	d8800315 	stw	r2,12(sp)
 c0039b4:	d8000215 	stw	zero,8(sp)
 c0039b8:	00800084 	movi	r2,2
 c0039bc:	d8800115 	stw	r2,4(sp)
 c0039c0:	d8000015 	stw	zero,0(sp)
 c0039c4:	01c00184 	movi	r7,6
 c0039c8:	01802004 	movi	r6,128
 c0039cc:	000b883a 	mov	r5,zero
 c0039d0:	1809883a 	mov	r4,r3
 c0039d4:	c004b440 	call	c004b44 <XferCtrlReq>
 c0039d8:	e0bffc05 	stb	r2,-16(fp)
	if (rcode) {   //error handling
 c0039dc:	e0bffc03 	ldbu	r2,-16(fp)
 c0039e0:	10000226 	beq	r2,zero,c0039ec <HIDMProbe+0x84>
		//printf("unable to get configuration descriptor");
		return (FALSE);
 c0039e4:	0005883a 	mov	r2,zero
 c0039e8:	0000dc06 	br	c003d5c <HIDMProbe+0x3f4>
	}
	if (data_ptr->descr.config.wTotalLength > 256) {
 c0039ec:	e0bffa17 	ldw	r2,-24(fp)
 c0039f0:	1080008b 	ldhu	r2,2(r2)
 c0039f4:	10bfffcc 	andi	r2,r2,65535
 c0039f8:	10804070 	cmpltui	r2,r2,257
 c0039fc:	1000031e 	bne	r2,zero,c003a0c <HIDMProbe+0xa4>
		total_length = 256;
 c003a00:	00804004 	movi	r2,256
 c003a04:	e0bff90d 	sth	r2,-28(fp)
 c003a08:	00000306 	br	c003a18 <HIDMProbe+0xb0>
	} else {
		total_length = data_ptr->descr.config.wTotalLength;
 c003a0c:	e0bffa17 	ldw	r2,-24(fp)
 c003a10:	1080008b 	ldhu	r2,2(r2)
 c003a14:	e0bff90d 	sth	r2,-28(fp)
	}
	rcode = XferGetConfDescr(addr, 0, total_length, 0, bigbuf); //get the whole configuration
 c003a18:	e13ffe03 	ldbu	r4,-8(fp)
 c003a1c:	e0fff90b 	ldhu	r3,-28(fp)
 c003a20:	008300b4 	movhi	r2,3074
 c003a24:	10b8b604 	addi	r2,r2,-7464
 c003a28:	d8800415 	stw	r2,16(sp)
 c003a2c:	d8c00315 	stw	r3,12(sp)
 c003a30:	d8000215 	stw	zero,8(sp)
 c003a34:	00800084 	movi	r2,2
 c003a38:	d8800115 	stw	r2,4(sp)
 c003a3c:	d8000015 	stw	zero,0(sp)
 c003a40:	01c00184 	movi	r7,6
 c003a44:	01802004 	movi	r6,128
 c003a48:	000b883a 	mov	r5,zero
 c003a4c:	c004b440 	call	c004b44 <XferCtrlReq>
 c003a50:	e0bffc05 	stb	r2,-16(fp)
	if (rcode) {   //error handling
 c003a54:	e0bffc03 	ldbu	r2,-16(fp)
 c003a58:	10000226 	beq	r2,zero,c003a64 <HIDMProbe+0xfc>
		//printf("unable to get configuration");
		return (FALSE);
 c003a5c:	0005883a 	mov	r2,zero
 c003a60:	0000be06 	br	c003d5c <HIDMProbe+0x3f4>
	}
	confvalue = data_ptr->descr.config.bConfigurationValue;
 c003a64:	e0bffa17 	ldw	r2,-24(fp)
 c003a68:	10800143 	ldbu	r2,5(r2)
 c003a6c:	e0bffc45 	stb	r2,-15(fp)
	//printf("checking configuration value (length: %d): ",
	//		data_ptr->descr.config.wTotalLength);
	//for (int i = 0; i < data_ptr->descr.config.wTotalLength; i++) {
		//printf("%x ", (unsigned char) (bigbuf[i] & 0xff));
	//}
	while (byte_ptr < bigbuf + total_length) {
 c003a70:	0000b306 	br	c003d40 <HIDMProbe+0x3d8>
		if (data_ptr->descr.config.bDescriptorType != USB_DESCRIPTOR_INTERFACE) {
 c003a74:	e0bffa17 	ldw	r2,-24(fp)
 c003a78:	10800043 	ldbu	r2,1(r2)
 c003a7c:	10803fcc 	andi	r2,r2,255
 c003a80:	10800120 	cmpeqi	r2,r2,4
 c003a84:	1000091e 	bne	r2,zero,c003aac <HIDMProbe+0x144>
			byte_ptr = byte_ptr + data_ptr->descr.config.bLength;
 c003a88:	e0bffa17 	ldw	r2,-24(fp)
 c003a8c:	10800003 	ldbu	r2,0(r2)
 c003a90:	10803fcc 	andi	r2,r2,255
 c003a94:	e0fffb17 	ldw	r3,-20(fp)
 c003a98:	1885883a 	add	r2,r3,r2
 c003a9c:	e0bffb15 	stw	r2,-20(fp)
			data_ptr = (USB_DESCR*) byte_ptr;
 c003aa0:	e0bffb17 	ldw	r2,-20(fp)
 c003aa4:	e0bffa15 	stw	r2,-24(fp)
 c003aa8:	0000a506 	br	c003d40 <HIDMProbe+0x3d8>
		} // if( data_ptr->descr.config.bDescriptorType != USB_DESCRIPTOR_INTERFACE
		else {
			//printf("starting interface parsing at byte location %d\n",
			//		data_ptr->descr.config.bLength);
			BYTE class = data_ptr->descr.interface.bInterfaceClass;
 c003aac:	e0bffa17 	ldw	r2,-24(fp)
 c003ab0:	10800143 	ldbu	r2,5(r2)
 c003ab4:	e0bffc85 	stb	r2,-14(fp)
			BYTE subclass = data_ptr->descr.interface.bInterfaceSubClass;
 c003ab8:	e0bffa17 	ldw	r2,-24(fp)
 c003abc:	10800183 	ldbu	r2,6(r2)
 c003ac0:	e0bffcc5 	stb	r2,-13(fp)
			BYTE protocol = data_ptr->descr.interface.bInterfaceProtocol;
 c003ac4:	e0bffa17 	ldw	r2,-24(fp)
 c003ac8:	108001c3 	ldbu	r2,7(r2)
 c003acc:	e0bffd05 	stb	r2,-12(fp)
			//printf("class %x, subclass %x, protocol %x,\n", class, subclass,
			//		protocol);
			//interface descriptor
			if (class == HID_INTF && subclass == BOOT_INTF_SUBCLASS
 c003ad0:	e0bffc83 	ldbu	r2,-14(fp)
 c003ad4:	108000d8 	cmpnei	r2,r2,3
 c003ad8:	1000971e 	bne	r2,zero,c003d38 <HIDMProbe+0x3d0>
 c003adc:	e0bffcc3 	ldbu	r2,-13(fp)
 c003ae0:	10800058 	cmpnei	r2,r2,1
 c003ae4:	1000941e 	bne	r2,zero,c003d38 <HIDMProbe+0x3d0>
					&& protocol == HID_PROTOCOL_MOUSE) {
 c003ae8:	e0bffd03 	ldbu	r2,-12(fp)
 c003aec:	10800098 	cmpnei	r2,r2,2
 c003af0:	1000911e 	bne	r2,zero,c003d38 <HIDMProbe+0x3d0>
				//detected a mouse
				devtable[addr].devclass = HID_M;                  //device class
 c003af4:	e0fffe03 	ldbu	r3,-8(fp)
 c003af8:	008300b4 	movhi	r2,3074
 c003afc:	10b8f604 	addi	r2,r2,-7208
 c003b00:	180690fa 	slli	r3,r3,3
 c003b04:	10c5883a 	add	r2,r2,r3
 c003b08:	10800104 	addi	r2,r2,4
 c003b0c:	00c00084 	movi	r3,2
 c003b10:	10c00005 	stb	r3,0(r2)
				tmpbyte = devtable[addr].epinfo->MaxPktSize;
 c003b14:	e0fffe03 	ldbu	r3,-8(fp)
 c003b18:	008300b4 	movhi	r2,3074
 c003b1c:	10b8f604 	addi	r2,r2,-7208
 c003b20:	180690fa 	slli	r3,r3,3
 c003b24:	10c5883a 	add	r2,r2,r3
 c003b28:	10800017 	ldw	r2,0(r2)
 c003b2c:	1080008b 	ldhu	r2,2(r2)
 c003b30:	e0bffd45 	stb	r2,-11(fp)
				HID_init();                         //initialize data structures
 c003b34:	c0041780 	call	c004178 <HID_init>
				devtable[addr].epinfo = hid_ep; //switch endpoint information structure
 c003b38:	e0fffe03 	ldbu	r3,-8(fp)
 c003b3c:	008300b4 	movhi	r2,3074
 c003b40:	10b8f604 	addi	r2,r2,-7208
 c003b44:	180690fa 	slli	r3,r3,3
 c003b48:	10c7883a 	add	r3,r2,r3
 c003b4c:	008300b4 	movhi	r2,3074
 c003b50:	10b84004 	addi	r2,r2,-7936
 c003b54:	18800015 	stw	r2,0(r3)
				devtable[addr].epinfo[0].MaxPktSize = tmpbyte;
 c003b58:	e0fffe03 	ldbu	r3,-8(fp)
 c003b5c:	008300b4 	movhi	r2,3074
 c003b60:	10b8f604 	addi	r2,r2,-7208
 c003b64:	180690fa 	slli	r3,r3,3
 c003b68:	10c5883a 	add	r2,r2,r3
 c003b6c:	10800017 	ldw	r2,0(r2)
 c003b70:	e0fffd43 	ldbu	r3,-11(fp)
 c003b74:	10c0008d 	sth	r3,2(r2)
				hid_device.interface =
						data_ptr->descr.interface.bInterfaceNumber;
 c003b78:	e0bffa17 	ldw	r2,-24(fp)
 c003b7c:	10800083 	ldbu	r2,2(r2)
				devtable[addr].devclass = HID_M;                  //device class
				tmpbyte = devtable[addr].epinfo->MaxPktSize;
				HID_init();                         //initialize data structures
				devtable[addr].epinfo = hid_ep; //switch endpoint information structure
				devtable[addr].epinfo[0].MaxPktSize = tmpbyte;
				hid_device.interface =
 c003b80:	d0a7ad45 	stb	r2,-24907(gp)
						data_ptr->descr.interface.bInterfaceNumber;
				hid_device.addr = addr;
 c003b84:	e0bffe03 	ldbu	r2,-8(fp)
 c003b88:	d0a7ad05 	stb	r2,-24908(gp)
				byte_ptr = byte_ptr + data_ptr->descr.config.bLength;
 c003b8c:	e0bffa17 	ldw	r2,-24(fp)
 c003b90:	10800003 	ldbu	r2,0(r2)
 c003b94:	10803fcc 	andi	r2,r2,255
 c003b98:	e0fffb17 	ldw	r3,-20(fp)
 c003b9c:	1885883a 	add	r2,r3,r2
 c003ba0:	e0bffb15 	stw	r2,-20(fp)
				data_ptr = (USB_DESCR*) byte_ptr;
 c003ba4:	e0bffb17 	ldw	r2,-20(fp)
 c003ba8:	e0bffa15 	stw	r2,-24(fp)
				while (byte_ptr < bigbuf + total_length) {
 c003bac:	00005b06 	br	c003d1c <HIDMProbe+0x3b4>
					if (data_ptr->descr.config.bDescriptorType
 c003bb0:	e0bffa17 	ldw	r2,-24(fp)
 c003bb4:	10800043 	ldbu	r2,1(r2)
 c003bb8:	10803fcc 	andi	r2,r2,255
 c003bbc:	10800160 	cmpeqi	r2,r2,5
 c003bc0:	1000091e 	bne	r2,zero,c003be8 <HIDMProbe+0x280>
							!= USB_DESCRIPTOR_ENDPOINT) { //skip to endpoint descriptor
						byte_ptr = byte_ptr + data_ptr->descr.config.bLength;
 c003bc4:	e0bffa17 	ldw	r2,-24(fp)
 c003bc8:	10800003 	ldbu	r2,0(r2)
 c003bcc:	10803fcc 	andi	r2,r2,255
 c003bd0:	e0fffb17 	ldw	r3,-20(fp)
 c003bd4:	1885883a 	add	r2,r3,r2
 c003bd8:	e0bffb15 	stw	r2,-20(fp)
						data_ptr = (USB_DESCR*) byte_ptr;
 c003bdc:	e0bffb17 	ldw	r2,-20(fp)
 c003be0:	e0bffa15 	stw	r2,-24(fp)
 c003be4:	00004d06 	br	c003d1c <HIDMProbe+0x3b4>
					} else {
						/* fill endpoint information structure */
						devtable[addr].epinfo[1].epAddr =
 c003be8:	e0fffe03 	ldbu	r3,-8(fp)
 c003bec:	008300b4 	movhi	r2,3074
 c003bf0:	10b8f604 	addi	r2,r2,-7208
 c003bf4:	180690fa 	slli	r3,r3,3
 c003bf8:	10c5883a 	add	r2,r2,r3
 c003bfc:	10800017 	ldw	r2,0(r2)
 c003c00:	10800204 	addi	r2,r2,8
								data_ptr->descr.endpoint.bEndpointAddress;
 c003c04:	e0fffa17 	ldw	r3,-24(fp)
 c003c08:	18c00083 	ldbu	r3,2(r3)
							!= USB_DESCRIPTOR_ENDPOINT) { //skip to endpoint descriptor
						byte_ptr = byte_ptr + data_ptr->descr.config.bLength;
						data_ptr = (USB_DESCR*) byte_ptr;
					} else {
						/* fill endpoint information structure */
						devtable[addr].epinfo[1].epAddr =
 c003c0c:	10c00005 	stb	r3,0(r2)
								data_ptr->descr.endpoint.bEndpointAddress;
						devtable[addr].epinfo[1].Attr =
 c003c10:	e0fffe03 	ldbu	r3,-8(fp)
 c003c14:	008300b4 	movhi	r2,3074
 c003c18:	10b8f604 	addi	r2,r2,-7208
 c003c1c:	180690fa 	slli	r3,r3,3
 c003c20:	10c5883a 	add	r2,r2,r3
 c003c24:	10800017 	ldw	r2,0(r2)
 c003c28:	10800204 	addi	r2,r2,8
								data_ptr->descr.endpoint.bmAttributes;
 c003c2c:	e0fffa17 	ldw	r3,-24(fp)
 c003c30:	18c000c3 	ldbu	r3,3(r3)
						data_ptr = (USB_DESCR*) byte_ptr;
					} else {
						/* fill endpoint information structure */
						devtable[addr].epinfo[1].epAddr =
								data_ptr->descr.endpoint.bEndpointAddress;
						devtable[addr].epinfo[1].Attr =
 c003c34:	10c00045 	stb	r3,1(r2)
								data_ptr->descr.endpoint.bmAttributes;
						devtable[addr].epinfo[1].MaxPktSize =
 c003c38:	e0fffe03 	ldbu	r3,-8(fp)
 c003c3c:	008300b4 	movhi	r2,3074
 c003c40:	10b8f604 	addi	r2,r2,-7208
 c003c44:	180690fa 	slli	r3,r3,3
 c003c48:	10c5883a 	add	r2,r2,r3
 c003c4c:	10800017 	ldw	r2,0(r2)
 c003c50:	10800204 	addi	r2,r2,8
								data_ptr->descr.endpoint.wMaxPacketSize;
 c003c54:	e0fffa17 	ldw	r3,-24(fp)
 c003c58:	18c0010b 	ldhu	r3,4(r3)
						/* fill endpoint information structure */
						devtable[addr].epinfo[1].epAddr =
								data_ptr->descr.endpoint.bEndpointAddress;
						devtable[addr].epinfo[1].Attr =
								data_ptr->descr.endpoint.bmAttributes;
						devtable[addr].epinfo[1].MaxPktSize =
 c003c5c:	10c0008d 	sth	r3,2(r2)
								data_ptr->descr.endpoint.wMaxPacketSize;
						devtable[addr].epinfo[1].Interval =
 c003c60:	e0fffe03 	ldbu	r3,-8(fp)
 c003c64:	008300b4 	movhi	r2,3074
 c003c68:	10b8f604 	addi	r2,r2,-7208
 c003c6c:	180690fa 	slli	r3,r3,3
 c003c70:	10c5883a 	add	r2,r2,r3
 c003c74:	10800017 	ldw	r2,0(r2)
 c003c78:	10800204 	addi	r2,r2,8
								data_ptr->descr.endpoint.bInterval;
 c003c7c:	e0fffa17 	ldw	r3,-24(fp)
 c003c80:	18c00183 	ldbu	r3,6(r3)
								data_ptr->descr.endpoint.bEndpointAddress;
						devtable[addr].epinfo[1].Attr =
								data_ptr->descr.endpoint.bmAttributes;
						devtable[addr].epinfo[1].MaxPktSize =
								data_ptr->descr.endpoint.wMaxPacketSize;
						devtable[addr].epinfo[1].Interval =
 c003c84:	10c00105 	stb	r3,4(r2)
								data_ptr->descr.endpoint.bInterval;
						// devtable[ addr ].epinfo[ 1 ].rcvToggle = bmRCVTOG0;
						/* configure device */
						rcode = XferSetConf(addr, 0, confvalue); //set configuration
 c003c88:	e0fffe03 	ldbu	r3,-8(fp)
 c003c8c:	e0bffc43 	ldbu	r2,-15(fp)
 c003c90:	d8000415 	stw	zero,16(sp)
 c003c94:	d8000315 	stw	zero,12(sp)
 c003c98:	d8000215 	stw	zero,8(sp)
 c003c9c:	d8000115 	stw	zero,4(sp)
 c003ca0:	d8800015 	stw	r2,0(sp)
 c003ca4:	01c00244 	movi	r7,9
 c003ca8:	000d883a 	mov	r6,zero
 c003cac:	000b883a 	mov	r5,zero
 c003cb0:	1809883a 	mov	r4,r3
 c003cb4:	c004b440 	call	c004b44 <XferCtrlReq>
 c003cb8:	e0bffc05 	stb	r2,-16(fp)
						if (rcode) {   //error handling
 c003cbc:	e0bffc03 	ldbu	r2,-16(fp)
 c003cc0:	10000226 	beq	r2,zero,c003ccc <HIDMProbe+0x364>
							return (FALSE);
 c003cc4:	0005883a 	mov	r2,zero
 c003cc8:	00002406 	br	c003d5c <HIDMProbe+0x3f4>
						}
						rcode = XferSetProto(addr, 0, hid_device.interface,
 c003ccc:	e0fffe03 	ldbu	r3,-8(fp)
 c003cd0:	d0a7ad43 	ldbu	r2,-24907(gp)
 c003cd4:	10803fcc 	andi	r2,r2,255
 c003cd8:	d8000415 	stw	zero,16(sp)
 c003cdc:	d8000315 	stw	zero,12(sp)
 c003ce0:	d8800215 	stw	r2,8(sp)
 c003ce4:	d8000115 	stw	zero,4(sp)
 c003ce8:	d8000015 	stw	zero,0(sp)
 c003cec:	01c002c4 	movi	r7,11
 c003cf0:	01800844 	movi	r6,33
 c003cf4:	000b883a 	mov	r5,zero
 c003cf8:	1809883a 	mov	r4,r3
 c003cfc:	c004b440 	call	c004b44 <XferCtrlReq>
 c003d00:	e0bffc05 	stb	r2,-16(fp)
								BOOT_PROTOCOL);
						if (rcode) {   //error handling
 c003d04:	e0bffc03 	ldbu	r2,-16(fp)
 c003d08:	10000226 	beq	r2,zero,c003d14 <HIDMProbe+0x3ac>
							return (FALSE);
 c003d0c:	0005883a 	mov	r2,zero
 c003d10:	00001206 	br	c003d5c <HIDMProbe+0x3f4>
						} else {
							return (TRUE);
 c003d14:	00800044 	movi	r2,1
 c003d18:	00001006 	br	c003d5c <HIDMProbe+0x3f4>
				hid_device.interface =
						data_ptr->descr.interface.bInterfaceNumber;
				hid_device.addr = addr;
				byte_ptr = byte_ptr + data_ptr->descr.config.bLength;
				data_ptr = (USB_DESCR*) byte_ptr;
				while (byte_ptr < bigbuf + total_length) {
 c003d1c:	e0fff90b 	ldhu	r3,-28(fp)
 c003d20:	008300b4 	movhi	r2,3074
 c003d24:	10b8b604 	addi	r2,r2,-7464
 c003d28:	1885883a 	add	r2,r3,r2
 c003d2c:	e0fffb17 	ldw	r3,-20(fp)
 c003d30:	18bf9f36 	bltu	r3,r2,c003bb0 <__alt_data_end+0xfc003bb0>
			BYTE subclass = data_ptr->descr.interface.bInterfaceSubClass;
			BYTE protocol = data_ptr->descr.interface.bInterfaceProtocol;
			//printf("class %x, subclass %x, protocol %x,\n", class, subclass,
			//		protocol);
			//interface descriptor
			if (class == HID_INTF && subclass == BOOT_INTF_SUBCLASS
 c003d34:	00000206 	br	c003d40 <HIDMProbe+0x3d8>
						}
					}
				}   //while( byte_ptr....
			}   //if (Class matches
			else { //if class don't match; die on first interface. Not really correct
				return (FALSE);
 c003d38:	0005883a 	mov	r2,zero
 c003d3c:	00000706 	br	c003d5c <HIDMProbe+0x3f4>
	//printf("checking configuration value (length: %d): ",
	//		data_ptr->descr.config.wTotalLength);
	//for (int i = 0; i < data_ptr->descr.config.wTotalLength; i++) {
		//printf("%x ", (unsigned char) (bigbuf[i] & 0xff));
	//}
	while (byte_ptr < bigbuf + total_length) {
 c003d40:	e0fff90b 	ldhu	r3,-28(fp)
 c003d44:	008300b4 	movhi	r2,3074
 c003d48:	10b8b604 	addi	r2,r2,-7464
 c003d4c:	1885883a 	add	r2,r3,r2
 c003d50:	e0fffb17 	ldw	r3,-20(fp)
 c003d54:	18bf4736 	bltu	r3,r2,c003a74 <__alt_data_end+0xfc003a74>
			else { //if class don't match; die on first interface. Not really correct
				return (FALSE);
			}
		} //else if( data_ptr->
	} // while( byte_ptr < &buf + total_length
	return (FALSE);
 c003d58:	0005883a 	mov	r2,zero
}
 c003d5c:	e037883a 	mov	sp,fp
 c003d60:	dfc00117 	ldw	ra,4(sp)
 c003d64:	df000017 	ldw	fp,0(sp)
 c003d68:	dec00204 	addi	sp,sp,8
 c003d6c:	f800283a 	ret

0c003d70 <HIDKProbe>:
/* HID Keyboard probe. Called from USB state machine.                           */
/* assumes configuration length is less than 256 bytes                          */
/* looks for Class:03, Subclass: 01, Protocol: 01 in interface descriptor       */
/* sets keyboard in boot protocol                                               */
/* assumes single configuration, single endpoint, and interface configuration 0 */
BOOL HIDKProbe(BYTE addr, DWORD flags) {
 c003d70:	defff204 	addi	sp,sp,-56
 c003d74:	dfc00d15 	stw	ra,52(sp)
 c003d78:	df000c15 	stw	fp,48(sp)
 c003d7c:	df000c04 	addi	fp,sp,48
 c003d80:	2005883a 	mov	r2,r4
 c003d84:	e17fff15 	stw	r5,-4(fp)
 c003d88:	e0bffe05 	stb	r2,-8(fp)
	BYTE tmpbyte;
	BYTE rcode;
	BYTE confvalue;
	WORD total_length;
	USB_DESCR* data_ptr = (USB_DESCR *) &bigbuf;
 c003d8c:	008300b4 	movhi	r2,3074
 c003d90:	10b8b604 	addi	r2,r2,-7464
 c003d94:	e0bffa15 	stw	r2,-24(fp)
	BYTE* byte_ptr = bigbuf;
 c003d98:	008300b4 	movhi	r2,3074
 c003d9c:	10b8b604 	addi	r2,r2,-7464
 c003da0:	e0bffb15 	stw	r2,-20(fp)
	rcode = XferGetConfDescr(addr, 0, CONF_DESCR_LEN, 0, bigbuf); //get configuration descriptor
 c003da4:	e0fffe03 	ldbu	r3,-8(fp)
 c003da8:	008300b4 	movhi	r2,3074
 c003dac:	10b8b604 	addi	r2,r2,-7464
 c003db0:	d8800415 	stw	r2,16(sp)
 c003db4:	00800244 	movi	r2,9
 c003db8:	d8800315 	stw	r2,12(sp)
 c003dbc:	d8000215 	stw	zero,8(sp)
 c003dc0:	00800084 	movi	r2,2
 c003dc4:	d8800115 	stw	r2,4(sp)
 c003dc8:	d8000015 	stw	zero,0(sp)
 c003dcc:	01c00184 	movi	r7,6
 c003dd0:	01802004 	movi	r6,128
 c003dd4:	000b883a 	mov	r5,zero
 c003dd8:	1809883a 	mov	r4,r3
 c003ddc:	c004b440 	call	c004b44 <XferCtrlReq>
 c003de0:	e0bffc05 	stb	r2,-16(fp)
	if (rcode) {   //error handling           
 c003de4:	e0bffc03 	ldbu	r2,-16(fp)
 c003de8:	10000226 	beq	r2,zero,c003df4 <HIDKProbe+0x84>
		return (FALSE);
 c003dec:	0005883a 	mov	r2,zero
 c003df0:	0000dc06 	br	c004164 <HIDKProbe+0x3f4>
	}
	if (data_ptr->descr.config.wTotalLength > 256) {
 c003df4:	e0bffa17 	ldw	r2,-24(fp)
 c003df8:	1080008b 	ldhu	r2,2(r2)
 c003dfc:	10bfffcc 	andi	r2,r2,65535
 c003e00:	10804070 	cmpltui	r2,r2,257
 c003e04:	1000031e 	bne	r2,zero,c003e14 <HIDKProbe+0xa4>
		total_length = 256;
 c003e08:	00804004 	movi	r2,256
 c003e0c:	e0bff90d 	sth	r2,-28(fp)
 c003e10:	00000306 	br	c003e20 <HIDKProbe+0xb0>
	} else {
		total_length = data_ptr->descr.config.wTotalLength;
 c003e14:	e0bffa17 	ldw	r2,-24(fp)
 c003e18:	1080008b 	ldhu	r2,2(r2)
 c003e1c:	e0bff90d 	sth	r2,-28(fp)
	}
	rcode = XferGetConfDescr(addr, 0, total_length, 0, bigbuf); //get the whole configuration
 c003e20:	e13ffe03 	ldbu	r4,-8(fp)
 c003e24:	e0fff90b 	ldhu	r3,-28(fp)
 c003e28:	008300b4 	movhi	r2,3074
 c003e2c:	10b8b604 	addi	r2,r2,-7464
 c003e30:	d8800415 	stw	r2,16(sp)
 c003e34:	d8c00315 	stw	r3,12(sp)
 c003e38:	d8000215 	stw	zero,8(sp)
 c003e3c:	00800084 	movi	r2,2
 c003e40:	d8800115 	stw	r2,4(sp)
 c003e44:	d8000015 	stw	zero,0(sp)
 c003e48:	01c00184 	movi	r7,6
 c003e4c:	01802004 	movi	r6,128
 c003e50:	000b883a 	mov	r5,zero
 c003e54:	c004b440 	call	c004b44 <XferCtrlReq>
 c003e58:	e0bffc05 	stb	r2,-16(fp)
	if (rcode) {   //error handling
 c003e5c:	e0bffc03 	ldbu	r2,-16(fp)
 c003e60:	10000226 	beq	r2,zero,c003e6c <HIDKProbe+0xfc>
		return (FALSE);
 c003e64:	0005883a 	mov	r2,zero
 c003e68:	0000be06 	br	c004164 <HIDKProbe+0x3f4>
	}
	confvalue = data_ptr->descr.config.bConfigurationValue; //save configuration value to use later
 c003e6c:	e0bffa17 	ldw	r2,-24(fp)
 c003e70:	10800143 	ldbu	r2,5(r2)
 c003e74:	e0bffc45 	stb	r2,-15(fp)
	while (byte_ptr < bigbuf + total_length) {             //parse configuration
 c003e78:	0000b306 	br	c004148 <HIDKProbe+0x3d8>
		if (data_ptr->descr.config.bDescriptorType != USB_DESCRIPTOR_INTERFACE) { //skip to the next descriptor
 c003e7c:	e0bffa17 	ldw	r2,-24(fp)
 c003e80:	10800043 	ldbu	r2,1(r2)
 c003e84:	10803fcc 	andi	r2,r2,255
 c003e88:	10800120 	cmpeqi	r2,r2,4
 c003e8c:	1000091e 	bne	r2,zero,c003eb4 <HIDKProbe+0x144>
			byte_ptr = byte_ptr + data_ptr->descr.config.bLength;
 c003e90:	e0bffa17 	ldw	r2,-24(fp)
 c003e94:	10800003 	ldbu	r2,0(r2)
 c003e98:	10803fcc 	andi	r2,r2,255
 c003e9c:	e0fffb17 	ldw	r3,-20(fp)
 c003ea0:	1885883a 	add	r2,r3,r2
 c003ea4:	e0bffb15 	stw	r2,-20(fp)
			data_ptr = (USB_DESCR*) byte_ptr;
 c003ea8:	e0bffb17 	ldw	r2,-20(fp)
 c003eac:	e0bffa15 	stw	r2,-24(fp)
 c003eb0:	0000a506 	br	c004148 <HIDKProbe+0x3d8>
		} // if( data_ptr->descr.config.bDescriptorType != USB_DESCRIPTOR_INTERFACE
		else {
			//printf("starting interface parsing at byte location %d\n",
			//		data_ptr->descr.config.bLength);
			BYTE class = data_ptr->descr.interface.bInterfaceClass;
 c003eb4:	e0bffa17 	ldw	r2,-24(fp)
 c003eb8:	10800143 	ldbu	r2,5(r2)
 c003ebc:	e0bffc85 	stb	r2,-14(fp)
			BYTE subclass = data_ptr->descr.interface.bInterfaceSubClass;
 c003ec0:	e0bffa17 	ldw	r2,-24(fp)
 c003ec4:	10800183 	ldbu	r2,6(r2)
 c003ec8:	e0bffcc5 	stb	r2,-13(fp)
			BYTE protocol = data_ptr->descr.interface.bInterfaceProtocol;
 c003ecc:	e0bffa17 	ldw	r2,-24(fp)
 c003ed0:	108001c3 	ldbu	r2,7(r2)
 c003ed4:	e0bffd05 	stb	r2,-12(fp)
			//printf("class %x, subclass %x, protocol %x,\n", class, subclass,
			//		protocol);
			//interface descriptor
			if (class == HID_INTF && subclass == BOOT_INTF_SUBCLASS
 c003ed8:	e0bffc83 	ldbu	r2,-14(fp)
 c003edc:	108000d8 	cmpnei	r2,r2,3
 c003ee0:	1000971e 	bne	r2,zero,c004140 <HIDKProbe+0x3d0>
 c003ee4:	e0bffcc3 	ldbu	r2,-13(fp)
 c003ee8:	10800058 	cmpnei	r2,r2,1
 c003eec:	1000941e 	bne	r2,zero,c004140 <HIDKProbe+0x3d0>
					&& protocol == HID_PROTOCOL_KEYBOARD) {
 c003ef0:	e0bffd03 	ldbu	r2,-12(fp)
 c003ef4:	10800058 	cmpnei	r2,r2,1
 c003ef8:	1000911e 	bne	r2,zero,c004140 <HIDKProbe+0x3d0>
				//detected a keyboard
				devtable[addr].devclass = HID_K;             //fill device class
 c003efc:	e0fffe03 	ldbu	r3,-8(fp)
 c003f00:	008300b4 	movhi	r2,3074
 c003f04:	10b8f604 	addi	r2,r2,-7208
 c003f08:	180690fa 	slli	r3,r3,3
 c003f0c:	10c5883a 	add	r2,r2,r3
 c003f10:	10800104 	addi	r2,r2,4
 c003f14:	00c00044 	movi	r3,1
 c003f18:	10c00005 	stb	r3,0(r2)
				tmpbyte = devtable[addr].epinfo->MaxPktSize; //save max.packet size
 c003f1c:	e0fffe03 	ldbu	r3,-8(fp)
 c003f20:	008300b4 	movhi	r2,3074
 c003f24:	10b8f604 	addi	r2,r2,-7208
 c003f28:	180690fa 	slli	r3,r3,3
 c003f2c:	10c5883a 	add	r2,r2,r3
 c003f30:	10800017 	ldw	r2,0(r2)
 c003f34:	1080008b 	ldhu	r2,2(r2)
 c003f38:	e0bffd45 	stb	r2,-11(fp)
				HID_init();                         //initialize data structures
 c003f3c:	c0041780 	call	c004178 <HID_init>
				devtable[addr].epinfo = hid_ep; //switch endpoint information structure
 c003f40:	e0fffe03 	ldbu	r3,-8(fp)
 c003f44:	008300b4 	movhi	r2,3074
 c003f48:	10b8f604 	addi	r2,r2,-7208
 c003f4c:	180690fa 	slli	r3,r3,3
 c003f50:	10c7883a 	add	r3,r2,r3
 c003f54:	008300b4 	movhi	r2,3074
 c003f58:	10b84004 	addi	r2,r2,-7936
 c003f5c:	18800015 	stw	r2,0(r3)
				devtable[addr].epinfo[0].MaxPktSize = tmpbyte; //fill in max.packet size
 c003f60:	e0fffe03 	ldbu	r3,-8(fp)
 c003f64:	008300b4 	movhi	r2,3074
 c003f68:	10b8f604 	addi	r2,r2,-7208
 c003f6c:	180690fa 	slli	r3,r3,3
 c003f70:	10c5883a 	add	r2,r2,r3
 c003f74:	10800017 	ldw	r2,0(r2)
 c003f78:	e0fffd43 	ldbu	r3,-11(fp)
 c003f7c:	10c0008d 	sth	r3,2(r2)
				hid_device.interface =
						data_ptr->descr.interface.bInterfaceNumber; //fill in interface number to be used in HID requests
 c003f80:	e0bffa17 	ldw	r2,-24(fp)
 c003f84:	10800083 	ldbu	r2,2(r2)
				devtable[addr].devclass = HID_K;             //fill device class
				tmpbyte = devtable[addr].epinfo->MaxPktSize; //save max.packet size
				HID_init();                         //initialize data structures
				devtable[addr].epinfo = hid_ep; //switch endpoint information structure
				devtable[addr].epinfo[0].MaxPktSize = tmpbyte; //fill in max.packet size
				hid_device.interface =
 c003f88:	d0a7ad45 	stb	r2,-24907(gp)
						data_ptr->descr.interface.bInterfaceNumber; //fill in interface number to be used in HID requests
				hid_device.addr = addr;                        //fill in address
 c003f8c:	e0bffe03 	ldbu	r2,-8(fp)
 c003f90:	d0a7ad05 	stb	r2,-24908(gp)
				byte_ptr = byte_ptr + data_ptr->descr.config.bLength; //skip to the next descriptor
 c003f94:	e0bffa17 	ldw	r2,-24(fp)
 c003f98:	10800003 	ldbu	r2,0(r2)
 c003f9c:	10803fcc 	andi	r2,r2,255
 c003fa0:	e0fffb17 	ldw	r3,-20(fp)
 c003fa4:	1885883a 	add	r2,r3,r2
 c003fa8:	e0bffb15 	stw	r2,-20(fp)
				data_ptr = (USB_DESCR*) byte_ptr;
 c003fac:	e0bffb17 	ldw	r2,-20(fp)
 c003fb0:	e0bffa15 	stw	r2,-24(fp)
				while (byte_ptr < bigbuf + total_length) {
 c003fb4:	00005b06 	br	c004124 <HIDKProbe+0x3b4>
					if (data_ptr->descr.config.bDescriptorType
 c003fb8:	e0bffa17 	ldw	r2,-24(fp)
 c003fbc:	10800043 	ldbu	r2,1(r2)
 c003fc0:	10803fcc 	andi	r2,r2,255
 c003fc4:	10800160 	cmpeqi	r2,r2,5
 c003fc8:	1000091e 	bne	r2,zero,c003ff0 <HIDKProbe+0x280>
							!= USB_DESCRIPTOR_ENDPOINT) { //skip to endpoint descriptor
						byte_ptr = byte_ptr + data_ptr->descr.config.bLength;
 c003fcc:	e0bffa17 	ldw	r2,-24(fp)
 c003fd0:	10800003 	ldbu	r2,0(r2)
 c003fd4:	10803fcc 	andi	r2,r2,255
 c003fd8:	e0fffb17 	ldw	r3,-20(fp)
 c003fdc:	1885883a 	add	r2,r3,r2
 c003fe0:	e0bffb15 	stw	r2,-20(fp)
						data_ptr = (USB_DESCR*) byte_ptr;
 c003fe4:	e0bffb17 	ldw	r2,-20(fp)
 c003fe8:	e0bffa15 	stw	r2,-24(fp)
 c003fec:	00004d06 	br	c004124 <HIDKProbe+0x3b4>
					} else {
						/* fill endpoint information structure */
						devtable[addr].epinfo[1].epAddr =
 c003ff0:	e0fffe03 	ldbu	r3,-8(fp)
 c003ff4:	008300b4 	movhi	r2,3074
 c003ff8:	10b8f604 	addi	r2,r2,-7208
 c003ffc:	180690fa 	slli	r3,r3,3
 c004000:	10c5883a 	add	r2,r2,r3
 c004004:	10800017 	ldw	r2,0(r2)
 c004008:	10800204 	addi	r2,r2,8
								data_ptr->descr.endpoint.bEndpointAddress;
 c00400c:	e0fffa17 	ldw	r3,-24(fp)
 c004010:	18c00083 	ldbu	r3,2(r3)
							!= USB_DESCRIPTOR_ENDPOINT) { //skip to endpoint descriptor
						byte_ptr = byte_ptr + data_ptr->descr.config.bLength;
						data_ptr = (USB_DESCR*) byte_ptr;
					} else {
						/* fill endpoint information structure */
						devtable[addr].epinfo[1].epAddr =
 c004014:	10c00005 	stb	r3,0(r2)
								data_ptr->descr.endpoint.bEndpointAddress;
						devtable[addr].epinfo[1].Attr =
 c004018:	e0fffe03 	ldbu	r3,-8(fp)
 c00401c:	008300b4 	movhi	r2,3074
 c004020:	10b8f604 	addi	r2,r2,-7208
 c004024:	180690fa 	slli	r3,r3,3
 c004028:	10c5883a 	add	r2,r2,r3
 c00402c:	10800017 	ldw	r2,0(r2)
 c004030:	10800204 	addi	r2,r2,8
								data_ptr->descr.endpoint.bmAttributes;
 c004034:	e0fffa17 	ldw	r3,-24(fp)
 c004038:	18c000c3 	ldbu	r3,3(r3)
						data_ptr = (USB_DESCR*) byte_ptr;
					} else {
						/* fill endpoint information structure */
						devtable[addr].epinfo[1].epAddr =
								data_ptr->descr.endpoint.bEndpointAddress;
						devtable[addr].epinfo[1].Attr =
 c00403c:	10c00045 	stb	r3,1(r2)
								data_ptr->descr.endpoint.bmAttributes;
						devtable[addr].epinfo[1].MaxPktSize =
 c004040:	e0fffe03 	ldbu	r3,-8(fp)
 c004044:	008300b4 	movhi	r2,3074
 c004048:	10b8f604 	addi	r2,r2,-7208
 c00404c:	180690fa 	slli	r3,r3,3
 c004050:	10c5883a 	add	r2,r2,r3
 c004054:	10800017 	ldw	r2,0(r2)
 c004058:	10800204 	addi	r2,r2,8
								data_ptr->descr.endpoint.wMaxPacketSize;
 c00405c:	e0fffa17 	ldw	r3,-24(fp)
 c004060:	18c0010b 	ldhu	r3,4(r3)
						/* fill endpoint information structure */
						devtable[addr].epinfo[1].epAddr =
								data_ptr->descr.endpoint.bEndpointAddress;
						devtable[addr].epinfo[1].Attr =
								data_ptr->descr.endpoint.bmAttributes;
						devtable[addr].epinfo[1].MaxPktSize =
 c004064:	10c0008d 	sth	r3,2(r2)
								data_ptr->descr.endpoint.wMaxPacketSize;
						devtable[addr].epinfo[1].Interval =
 c004068:	e0fffe03 	ldbu	r3,-8(fp)
 c00406c:	008300b4 	movhi	r2,3074
 c004070:	10b8f604 	addi	r2,r2,-7208
 c004074:	180690fa 	slli	r3,r3,3
 c004078:	10c5883a 	add	r2,r2,r3
 c00407c:	10800017 	ldw	r2,0(r2)
 c004080:	10800204 	addi	r2,r2,8
								data_ptr->descr.endpoint.bInterval;
 c004084:	e0fffa17 	ldw	r3,-24(fp)
 c004088:	18c00183 	ldbu	r3,6(r3)
								data_ptr->descr.endpoint.bEndpointAddress;
						devtable[addr].epinfo[1].Attr =
								data_ptr->descr.endpoint.bmAttributes;
						devtable[addr].epinfo[1].MaxPktSize =
								data_ptr->descr.endpoint.wMaxPacketSize;
						devtable[addr].epinfo[1].Interval =
 c00408c:	10c00105 	stb	r3,4(r2)
								data_ptr->descr.endpoint.bInterval;
						/* configure device */
						rcode = XferSetConf(addr, 0, confvalue); //set configuration
 c004090:	e0fffe03 	ldbu	r3,-8(fp)
 c004094:	e0bffc43 	ldbu	r2,-15(fp)
 c004098:	d8000415 	stw	zero,16(sp)
 c00409c:	d8000315 	stw	zero,12(sp)
 c0040a0:	d8000215 	stw	zero,8(sp)
 c0040a4:	d8000115 	stw	zero,4(sp)
 c0040a8:	d8800015 	stw	r2,0(sp)
 c0040ac:	01c00244 	movi	r7,9
 c0040b0:	000d883a 	mov	r6,zero
 c0040b4:	000b883a 	mov	r5,zero
 c0040b8:	1809883a 	mov	r4,r3
 c0040bc:	c004b440 	call	c004b44 <XferCtrlReq>
 c0040c0:	e0bffc05 	stb	r2,-16(fp)
						if (rcode) {   //error handling
 c0040c4:	e0bffc03 	ldbu	r2,-16(fp)
 c0040c8:	10000226 	beq	r2,zero,c0040d4 <HIDKProbe+0x364>
							return (FALSE);
 c0040cc:	0005883a 	mov	r2,zero
 c0040d0:	00002406 	br	c004164 <HIDKProbe+0x3f4>
						}
						rcode = XferSetProto(addr, 0, hid_device.interface,
 c0040d4:	e0fffe03 	ldbu	r3,-8(fp)
 c0040d8:	d0a7ad43 	ldbu	r2,-24907(gp)
 c0040dc:	10803fcc 	andi	r2,r2,255
 c0040e0:	d8000415 	stw	zero,16(sp)
 c0040e4:	d8000315 	stw	zero,12(sp)
 c0040e8:	d8800215 	stw	r2,8(sp)
 c0040ec:	d8000115 	stw	zero,4(sp)
 c0040f0:	d8000015 	stw	zero,0(sp)
 c0040f4:	01c002c4 	movi	r7,11
 c0040f8:	01800844 	movi	r6,33
 c0040fc:	000b883a 	mov	r5,zero
 c004100:	1809883a 	mov	r4,r3
 c004104:	c004b440 	call	c004b44 <XferCtrlReq>
 c004108:	e0bffc05 	stb	r2,-16(fp)
								BOOT_PROTOCOL);
						if (rcode) {   //error handling
 c00410c:	e0bffc03 	ldbu	r2,-16(fp)
 c004110:	10000226 	beq	r2,zero,c00411c <HIDKProbe+0x3ac>
							return (FALSE);
 c004114:	0005883a 	mov	r2,zero
 c004118:	00001206 	br	c004164 <HIDKProbe+0x3f4>
						} else {
							return (TRUE);
 c00411c:	00800044 	movi	r2,1
 c004120:	00001006 	br	c004164 <HIDKProbe+0x3f4>
				hid_device.interface =
						data_ptr->descr.interface.bInterfaceNumber; //fill in interface number to be used in HID requests
				hid_device.addr = addr;                        //fill in address
				byte_ptr = byte_ptr + data_ptr->descr.config.bLength; //skip to the next descriptor
				data_ptr = (USB_DESCR*) byte_ptr;
				while (byte_ptr < bigbuf + total_length) {
 c004124:	e0fff90b 	ldhu	r3,-28(fp)
 c004128:	008300b4 	movhi	r2,3074
 c00412c:	10b8b604 	addi	r2,r2,-7464
 c004130:	1885883a 	add	r2,r3,r2
 c004134:	e0fffb17 	ldw	r3,-20(fp)
 c004138:	18bf9f36 	bltu	r3,r2,c003fb8 <__alt_data_end+0xfc003fb8>
			BYTE subclass = data_ptr->descr.interface.bInterfaceSubClass;
			BYTE protocol = data_ptr->descr.interface.bInterfaceProtocol;
			//printf("class %x, subclass %x, protocol %x,\n", class, subclass,
			//		protocol);
			//interface descriptor
			if (class == HID_INTF && subclass == BOOT_INTF_SUBCLASS
 c00413c:	00000206 	br	c004148 <HIDKProbe+0x3d8>
						}
					}
				}   //while( byte_ptr....
			}   //if (Class matches
			else { //if class don't match; stop processing after first interface. Not really correct
				return (FALSE);
 c004140:	0005883a 	mov	r2,zero
 c004144:	00000706 	br	c004164 <HIDKProbe+0x3f4>
	rcode = XferGetConfDescr(addr, 0, total_length, 0, bigbuf); //get the whole configuration
	if (rcode) {   //error handling
		return (FALSE);
	}
	confvalue = data_ptr->descr.config.bConfigurationValue; //save configuration value to use later
	while (byte_ptr < bigbuf + total_length) {             //parse configuration
 c004148:	e0fff90b 	ldhu	r3,-28(fp)
 c00414c:	008300b4 	movhi	r2,3074
 c004150:	10b8b604 	addi	r2,r2,-7464
 c004154:	1885883a 	add	r2,r3,r2
 c004158:	e0fffb17 	ldw	r3,-20(fp)
 c00415c:	18bf4736 	bltu	r3,r2,c003e7c <__alt_data_end+0xfc003e7c>
			else { //if class don't match; stop processing after first interface. Not really correct
				return (FALSE);
			}
		} //else if( data_ptr->
	} // while( byte_ptr < &buf + total_length
	return (FALSE);
 c004160:	0005883a 	mov	r2,zero
}
 c004164:	e037883a 	mov	sp,fp
 c004168:	dfc00117 	ldw	ra,4(sp)
 c00416c:	df000017 	ldw	fp,0(sp)
 c004170:	dec00204 	addi	sp,sp,8
 c004174:	f800283a 	ret

0c004178 <HID_init>:
/* HID data structures initialization */
void HID_init(void) {
 c004178:	deffff04 	addi	sp,sp,-4
 c00417c:	df000015 	stw	fp,0(sp)
 c004180:	d839883a 	mov	fp,sp
	hid_ep[1].sndToggle = bmSNDTOG0;
 c004184:	008300b4 	movhi	r2,3074
 c004188:	10b84004 	addi	r2,r2,-7936
 c00418c:	00c01004 	movi	r3,64
 c004190:	10c00345 	stb	r3,13(r2)
	hid_ep[1].rcvToggle = bmRCVTOG0;
 c004194:	008300b4 	movhi	r2,3074
 c004198:	10b84004 	addi	r2,r2,-7936
 c00419c:	00c00404 	movi	r3,16
 c0041a0:	10c00385 	stb	r3,14(r2)
}
 c0041a4:	0001883a 	nop
 c0041a8:	e037883a 	mov	sp,fp
 c0041ac:	df000017 	ldw	fp,0(sp)
 c0041b0:	dec00104 	addi	sp,sp,4
 c0041b4:	f800283a 	ret

0c0041b8 <mousePoll>:
/* poll boot mouse */
BYTE mousePoll(BOOT_MOUSE_REPORT* buf) {
 c0041b8:	defffb04 	addi	sp,sp,-20
 c0041bc:	dfc00415 	stw	ra,16(sp)
 c0041c0:	df000315 	stw	fp,12(sp)
 c0041c4:	df000304 	addi	fp,sp,12
 c0041c8:	e13fff15 	stw	r4,-4(fp)
	BYTE rcode;
	MAXreg_wr( rPERADDR, hid_device.addr);    //set peripheral address
 c0041cc:	d0a7ad03 	ldbu	r2,-24908(gp)
 c0041d0:	10803fcc 	andi	r2,r2,255
 c0041d4:	100b883a 	mov	r5,r2
 c0041d8:	01003804 	movi	r4,224
 c0041dc:	c0043940 	call	c004394 <MAXreg_wr>
	rcode = XferInTransfer(hid_device.addr, 1, 8, (BYTE*) buf,
 c0041e0:	d0a7ad03 	ldbu	r2,-24908(gp)
 c0041e4:	11003fcc 	andi	r4,r2,255
			devtable[hid_device.addr].epinfo[1].MaxPktSize);
 c0041e8:	d0a7ad03 	ldbu	r2,-24908(gp)
 c0041ec:	10c03fcc 	andi	r3,r2,255
 c0041f0:	008300b4 	movhi	r2,3074
 c0041f4:	10b8f604 	addi	r2,r2,-7208
 c0041f8:	180690fa 	slli	r3,r3,3
 c0041fc:	10c5883a 	add	r2,r2,r3
 c004200:	10800017 	ldw	r2,0(r2)
 c004204:	10800204 	addi	r2,r2,8
 c004208:	1080008b 	ldhu	r2,2(r2)
}
/* poll boot mouse */
BYTE mousePoll(BOOT_MOUSE_REPORT* buf) {
	BYTE rcode;
	MAXreg_wr( rPERADDR, hid_device.addr);    //set peripheral address
	rcode = XferInTransfer(hid_device.addr, 1, 8, (BYTE*) buf,
 c00420c:	10803fcc 	andi	r2,r2,255
 c004210:	d8800015 	stw	r2,0(sp)
 c004214:	e1ffff17 	ldw	r7,-4(fp)
 c004218:	01800204 	movi	r6,8
 c00421c:	01400044 	movi	r5,1
 c004220:	c004f680 	call	c004f68 <XferInTransfer>
 c004224:	e0bffe05 	stb	r2,-8(fp)
			devtable[hid_device.addr].epinfo[1].MaxPktSize);
	return (rcode);
 c004228:	e0bffe03 	ldbu	r2,-8(fp)
}
 c00422c:	e037883a 	mov	sp,fp
 c004230:	dfc00117 	ldw	ra,4(sp)
 c004234:	df000017 	ldw	fp,0(sp)
 c004238:	dec00204 	addi	sp,sp,8
 c00423c:	f800283a 	ret

0c004240 <kbdPoll>:
/* poll boot keyboard */
BYTE kbdPoll(BOOT_KBD_REPORT* buf) {
 c004240:	defffb04 	addi	sp,sp,-20
