
final.elf:     file format elf32-littlenios2
final.elf
architecture: nios2:r1, flags 0x00000112:
EXEC_P, HAS_SYMS, D_PAGED
start address 0x0c000230

Program Header:
    LOAD off    0x00001000 vaddr 0x0c000000 paddr 0x0c000000 align 2**12
         filesz 0x00000020 memsz 0x00000020 flags r-x
    LOAD off    0x00001020 vaddr 0x0c000020 paddr 0x0c000020 align 2**12
         filesz 0x0001e108 memsz 0x0001e108 flags r-x
    LOAD off    0x0001f128 vaddr 0x0c01e128 paddr 0x0c01ff44 align 2**12
         filesz 0x00001e1c memsz 0x00001e1c flags rw-
    LOAD off    0x00021d60 vaddr 0x0c021d60 paddr 0x0c021d60 align 2**12
         filesz 0x00000000 memsz 0x000002e8 flags rw-

Sections:
Idx Name          Size      VMA       LMA       File off  Algn
  0 .entry        00000020  0c000000  0c000000  00001000  2**5
                  CONTENTS, ALLOC, LOAD, READONLY, CODE
  1 .exceptions   00000210  0c000020  0c000020  00001020  2**2
                  CONTENTS, ALLOC, LOAD, READONLY, CODE
  2 .text         0001d444  0c000230  0c000230  00001230  2**2
                  CONTENTS, ALLOC, LOAD, READONLY, CODE
  3 .rodata       00000ab4  0c01d674  0c01d674  0001e674  2**2
                  CONTENTS, ALLOC, LOAD, READONLY, DATA
  4 .rwdata       00001e1c  0c01e128  0c01ff44  0001f128  2**2
                  CONTENTS, ALLOC, LOAD, DATA, SMALL_DATA
  5 .bss          000002e8  0c021d60  0c021d60  00021d60  2**2
                  ALLOC, SMALL_DATA
  6 .onchip_memory2_0 00000000  00000000  00000000  00020f44  2**0
                  CONTENTS
  7 .sdram        00000000  0c022048  0c022048  00020f44  2**0
                  CONTENTS
  8 .comment      00000023  00000000  00000000  00020f44  2**0
                  CONTENTS, READONLY
  9 .debug_aranges 000014a0  00000000  00000000  00020f68  2**3
                  CONTENTS, READONLY, DEBUGGING
 10 .debug_info   000369a0  00000000  00000000  00022408  2**0
                  CONTENTS, READONLY, DEBUGGING
 11 .debug_abbrev 0000d740  00000000  00000000  00058da8  2**0
                  CONTENTS, READONLY, DEBUGGING
 12 .debug_line   00011c37  00000000  00000000  000664e8  2**0
                  CONTENTS, READONLY, DEBUGGING
 13 .debug_frame  00003600  00000000  00000000  00078120  2**2
                  CONTENTS, READONLY, DEBUGGING
 14 .debug_str    0000515c  00000000  00000000  0007b720  2**0
                  CONTENTS, READONLY, DEBUGGING
 15 .debug_loc    000250ab  00000000  00000000  0008087c  2**0
                  CONTENTS, READONLY, DEBUGGING
 16 .debug_alt_sim_info 00000040  00000000  00000000  000a5928  2**2
                  CONTENTS, READONLY, DEBUGGING
 17 .debug_ranges 00002170  00000000  00000000  000a5968  2**3
                  CONTENTS, READONLY, DEBUGGING
 18 .thread_model 00000003  00000000  00000000  000ac106  2**0
                  CONTENTS, READONLY
 19 .cpu          0000000c  00000000  00000000  000ac109  2**0
                  CONTENTS, READONLY
 20 .qsys         00000001  00000000  00000000  000ac115  2**0
                  CONTENTS, READONLY
 21 .simulation_enabled 00000001  00000000  00000000  000ac116  2**0
                  CONTENTS, READONLY
 22 .sysid_hash   00000004  00000000  00000000  000ac117  2**0
                  CONTENTS, READONLY
 23 .sysid_base   00000004  00000000  00000000  000ac11b  2**0
                  CONTENTS, READONLY
 24 .sysid_time   00000004  00000000  00000000  000ac11f  2**0
                  CONTENTS, READONLY
 25 .stderr_dev   0000000b  00000000  00000000  000ac123  2**0
                  CONTENTS, READONLY
 26 .stdin_dev    0000000b  00000000  00000000  000ac12e  2**0
                  CONTENTS, READONLY
 27 .stdout_dev   0000000b  00000000  00000000  000ac139  2**0
                  CONTENTS, READONLY
 28 .sopc_system_name 00000006  00000000  00000000  000ac144  2**0
                  CONTENTS, READONLY
 29 .quartus_project_dir 00000012  00000000  00000000  000ac14a  2**0
                  CONTENTS, READONLY
 30 .jdi          00004d26  00000000  00000000  000ac15c  2**0
                  CONTENTS, READONLY
 31 .sopcinfo     0008a4ea  00000000  00000000  000b0e82  2**0
                  CONTENTS, READONLY
SYMBOL TABLE:
0c000000 l    d  .entry	00000000 .entry
0c000020 l    d  .exceptions	00000000 .exceptions
0c000230 l    d  .text	00000000 .text
0c01d674 l    d  .rodata	00000000 .rodata
0c01e128 l    d  .rwdata	00000000 .rwdata
0c021d60 l    d  .bss	00000000 .bss
00000000 l    d  .onchip_memory2_0	00000000 .onchip_memory2_0
0c022048 l    d  .sdram	00000000 .sdram
00000000 l    d  .comment	00000000 .comment
00000000 l    d  .debug_aranges	00000000 .debug_aranges
00000000 l    d  .debug_info	00000000 .debug_info
00000000 l    d  .debug_abbrev	00000000 .debug_abbrev
00000000 l    d  .debug_line	00000000 .debug_line
00000000 l    d  .debug_frame	00000000 .debug_frame
00000000 l    d  .debug_str	00000000 .debug_str
00000000 l    d  .debug_loc	00000000 .debug_loc
00000000 l    d  .debug_alt_sim_info	00000000 .debug_alt_sim_info
00000000 l    d  .debug_ranges	00000000 .debug_ranges
00000000 l    df *ABS*	00000000 ../final_bsp//obj/HAL/src/crt0.o
0c000268 l       .text	00000000 alt_after_alt_main
00000000 l    df *ABS*	00000000 alt_irq_handler.c
00000000 l    df *ABS*	00000000 alt_instruction_exception_entry.c
00000000 l    df *ABS*	00000000 USB_drive.c
0c01fee4 l     O .rwdata	00000001 addr
00000000 l    df *ABS*	00000000 main.c
0c01fee8 l     O .rwdata	00000004 vga_ctrl
0c01e128 l     O .rwdata	00000170 colors
00000000 l    df *ABS*	00000000 text_mode_vga_color.c
0c01feec l     O .rwdata	00000004 vga_ctrl
0c01e298 l     O .rwdata	00000170 colors
00000000 l    df *ABS*	00000000 HID.c
00000000 l    df *ABS*	00000000 MAX3421E.c
00000000 l    df *ABS*	00000000 transfer.c
0c021d70 l     O .bss	00000004 usb_delay.2608
0c021d74 l     O .bss	00000001 tmp_addr.2609
00000000 l    df *ABS*	00000000 lib2-divmod.c
00000000 l    df *ABS*	00000000 lib2-mul.c
00000000 l    df *ABS*	00000000 malloc.c
00000000 l    df *ABS*	00000000 mallocr.c
00000000 l    df *ABS*	00000000 printf.c
00000000 l    df *ABS*	00000000 putchar.c
00000000 l    df *ABS*	00000000 puts.c
00000000 l    df *ABS*	00000000 rand.c
00000000 l    df *ABS*	00000000 sbrkr.c
00000000 l    df *ABS*	00000000 scanf.c
00000000 l    df *ABS*	00000000 sprintf.c
00000000 l    df *ABS*	00000000 strlen.c
00000000 l    df *ABS*	00000000 vfprintf.c
0c01da22 l     O .rodata	00000010 zeroes.4389
0c01da32 l     O .rodata	00000010 blanks.4388
00000000 l    df *ABS*	00000000 vfprintf.c
0c01da42 l     O .rodata	00000010 zeroes.4404
0c009944 l     F .text	000000bc __sbprintf
0c01da52 l     O .rodata	00000010 blanks.4403
00000000 l    df *ABS*	00000000 vfscanf.c
0c01da6a l     O .rodata	00000022 basefix.4359
00000000 l    df *ABS*	00000000 wsetup.c
00000000 l    df *ABS*	00000000 ctype_.c
0c01db8d l     O .rodata	00000180 _ctype_b
00000000 l    df *ABS*	00000000 dtoa.c
0c00b5b0 l     F .text	00000228 quorem
00000000 l    df *ABS*	00000000 fflush.c
00000000 l    df *ABS*	00000000 findfp.c
0c00d108 l     F .text	00000008 __fp_unlock
0c00d11c l     F .text	0000019c __sinit.part.1
0c00d2b8 l     F .text	00000008 __fp_lock
00000000 l    df *ABS*	00000000 fread.c
00000000 l    df *ABS*	00000000 mallocr.c
00000000 l    df *ABS*	00000000 fvwrite.c
00000000 l    df *ABS*	00000000 fwalk.c
00000000 l    df *ABS*	00000000 impure.c
0c01e840 l     O .rwdata	00000424 impure_data
00000000 l    df *ABS*	00000000 int_errno.c
00000000 l    df *ABS*	00000000 iswspace.c
00000000 l    df *ABS*	00000000 locale.c
0c01ec84 l     O .rwdata	00000020 lc_ctype_charset
0c01ec64 l     O .rwdata	00000020 lc_message_charset
0c01eca4 l     O .rwdata	00000038 lconv
00000000 l    df *ABS*	00000000 makebuf.c
00000000 l    df *ABS*	00000000 mbrtowc.c
00000000 l    df *ABS*	00000000 mbtowc_r.c
00000000 l    df *ABS*	00000000 memchr.c
00000000 l    df *ABS*	00000000 memcpy.c
00000000 l    df *ABS*	00000000 memmove.c
00000000 l    df *ABS*	00000000 memset.c
00000000 l    df *ABS*	00000000 mprec.c
0c01dd30 l     O .rodata	0000000c p05.2768
00000000 l    df *ABS*	00000000 putc.c
00000000 l    df *ABS*	00000000 mallocr.c
00000000 l    df *ABS*	00000000 refill.c
0c0102cc l     F .text	0000001c lflush
00000000 l    df *ABS*	00000000 s_fpclassify.c
00000000 l    df *ABS*	00000000 sccl.c
00000000 l    df *ABS*	00000000 sf_nan.c
00000000 l    df *ABS*	00000000 stdio.c
00000000 l    df *ABS*	00000000 strcmp.c
00000000 l    df *ABS*	00000000 strtod.c
0c010820 l     F .text	00000064 sulp
0c01de64 l     O .rodata	00000014 fpinan.2773
0c01de78 l     O .rodata	00000014 fpi.2737
0c01de8c l     O .rodata	00000028 tinytens
00000000 l    df *ABS*	00000000 strtol.c
00000000 l    df *ABS*	00000000 strtoll_r.c
00000000 l    df *ABS*	00000000 strtoul.c
00000000 l    df *ABS*	00000000 strtoull_r.c
00000000 l    df *ABS*	00000000 vfprintf.c
0c01deb4 l     O .rodata	00000010 zeroes.4333
0c01dec4 l     O .rodata	00000010 blanks.4332
00000000 l    df *ABS*	00000000 ungetc.c
00000000 l    df *ABS*	00000000 vfprintf.c
0c01429c l     F .text	000000fc __sprint_r.part.0
0c01ded4 l     O .rodata	00000010 zeroes.4349
0c0158d8 l     F .text	000000bc __sbprintf
0c01dee4 l     O .rodata	00000010 blanks.4348
00000000 l    df *ABS*	00000000 wbuf.c
00000000 l    df *ABS*	00000000 writer.c
00000000 l    df *ABS*	00000000 closer.c
00000000 l    df *ABS*	00000000 mallocr.c
00000000 l    df *ABS*	00000000 fclose.c
00000000 l    df *ABS*	00000000 fputwc.c
00000000 l    df *ABS*	00000000 fstatr.c
00000000 l    df *ABS*	00000000 gdtoa-gethex.c
0c015fe4 l     F .text	00000100 rshift
00000000 l    df *ABS*	00000000 gdtoa-hexnan.c
00000000 l    df *ABS*	00000000 isattyr.c
00000000 l    df *ABS*	00000000 lseekr.c
00000000 l    df *ABS*	00000000 readr.c
00000000 l    df *ABS*	00000000 strncmp.c
00000000 l    df *ABS*	00000000 wcrtomb.c
00000000 l    df *ABS*	00000000 wctomb_r.c
00000000 l    df *ABS*	00000000 libgcc2.c
00000000 l    df *ABS*	00000000 libgcc2.c
00000000 l    df *ABS*	00000000 libgcc2.c
00000000 l    df *ABS*	00000000 libgcc2.c
00000000 l    df *ABS*	00000000 eqsf2.c
00000000 l    df *ABS*	00000000 gesf2.c
00000000 l    df *ABS*	00000000 lesf2.c
00000000 l    df *ABS*	00000000 adddf3.c
00000000 l    df *ABS*	00000000 divdf3.c
00000000 l    df *ABS*	00000000 eqdf2.c
00000000 l    df *ABS*	00000000 gedf2.c
00000000 l    df *ABS*	00000000 ledf2.c
00000000 l    df *ABS*	00000000 muldf3.c
00000000 l    df *ABS*	00000000 subdf3.c
00000000 l    df *ABS*	00000000 fixdfsi.c
00000000 l    df *ABS*	00000000 floatsidf.c
00000000 l    df *ABS*	00000000 floatunsidf.c
00000000 l    df *ABS*	00000000 truncdfsf2.c
00000000 l    df *ABS*	00000000 libgcc2.c
00000000 l    df *ABS*	00000000 libgcc2.c
00000000 l    df *ABS*	00000000 alt_close.c
0c01a8e4 l     F .text	0000003c alt_get_errno
00000000 l    df *ABS*	00000000 alt_dev.c
0c01a9f8 l     F .text	0000002c alt_dev_null_write
00000000 l    df *ABS*	00000000 alt_errno.c
00000000 l    df *ABS*	00000000 alt_fstat.c
0c01aa24 l     F .text	0000003c alt_get_errno
00000000 l    df *ABS*	00000000 alt_isatty.c
0c01ab18 l     F .text	0000003c alt_get_errno
00000000 l    df *ABS*	00000000 alt_load.c
0c01ac00 l     F .text	00000068 alt_load_section
00000000 l    df *ABS*	00000000 alt_lseek.c
0c01acec l     F .text	0000003c alt_get_errno
00000000 l    df *ABS*	00000000 alt_main.c
00000000 l    df *ABS*	00000000 alt_malloc_lock.c
00000000 l    df *ABS*	00000000 alt_printf.c
00000000 l    df *ABS*	00000000 alt_putchar.c
00000000 l    df *ABS*	00000000 alt_read.c
0c01b130 l     F .text	0000003c alt_get_errno
00000000 l    df *ABS*	00000000 alt_release_fd.c
00000000 l    df *ABS*	00000000 alt_sbrk.c
0c01ff34 l     O .rwdata	00000004 heap_end
00000000 l    df *ABS*	00000000 alt_tick.c
00000000 l    df *ABS*	00000000 alt_usleep.c
00000000 l    df *ABS*	00000000 alt_write.c
0c01b578 l     F .text	0000003c alt_get_errno
00000000 l    df *ABS*	00000000 alt_sys_init.c
0c01b6b4 l     F .text	00000034 alt_dev_reg
0c01ee84 l     O .rwdata	00001060 jtag_uart_0
00000000 l    df *ABS*	00000000 altera_avalon_jtag_uart_fd.c
00000000 l    df *ABS*	00000000 altera_avalon_jtag_uart_init.c
0c01b9a8 l     F .text	0000020c altera_avalon_jtag_uart_irq
0c01bbb4 l     F .text	000000a0 altera_avalon_jtag_uart_timeout
00000000 l    df *ABS*	00000000 altera_avalon_jtag_uart_ioctl.c
00000000 l    df *ABS*	00000000 altera_avalon_jtag_uart_read.c
00000000 l    df *ABS*	00000000 altera_avalon_jtag_uart_write.c
00000000 l    df *ABS*	00000000 altera_avalon_spi.c
00000000 l    df *ABS*	00000000 altera_avalon_timer_sc.c
0c01c3e8 l     F .text	00000078 alt_avalon_timer_sc_irq
00000000 l    df *ABS*	00000000 alt_alarm_start.c
00000000 l    df *ABS*	00000000 alt_busy_sleep.c
00000000 l    df *ABS*	00000000 alt_dcache_flush_all.c
00000000 l    df *ABS*	00000000 alt_dev_llist_insert.c
0c01c780 l     F .text	0000003c alt_get_errno
00000000 l    df *ABS*	00000000 alt_do_ctors.c
00000000 l    df *ABS*	00000000 alt_do_dtors.c
00000000 l    df *ABS*	00000000 alt_icache_flush_all.c
00000000 l    df *ABS*	00000000 alt_iic.c
00000000 l    df *ABS*	00000000 alt_iic_isr_register.c
00000000 l    df *ABS*	00000000 alt_io_redirect.c
0c01cbe0 l     F .text	000000e4 alt_open_fd
00000000 l    df *ABS*	00000000 alt_irq_vars.c
00000000 l    df *ABS*	00000000 alt_open.c
0c01cd40 l     F .text	0000003c alt_get_errno
0c01cd7c l     F .text	000000ec alt_file_locked
00000000 l    df *ABS*	00000000 altera_nios2_gen2_irq.c
00000000 l    df *ABS*	00000000 alt_find_dev.c
00000000 l    df *ABS*	00000000 alt_find_file.c
00000000 l    df *ABS*	00000000 alt_get_fd.c
00000000 l    df *ABS*	00000000 atexit.c
00000000 l    df *ABS*	00000000 exit.c
00000000 l    df *ABS*	00000000 memcmp.c
00000000 l    df *ABS*	00000000 __atexit.c
00000000 l    df *ABS*	00000000 __call_atexit.c
00000000 l    df *ABS*	00000000 alt_exit.c
0c021dac g     O .bss	00000004 alt_instruction_exception_handler
0c00500c g     F .text	00000018 putchar
0c00fa88 g     F .text	00000074 _mprec_log10
0c00fb74 g     F .text	0000008c __any_on
0c016b90 g     F .text	00000054 _isatty_r
0c01dd3c g     O .rodata	00000028 __mprec_tinytens
0c01ae04 g     F .text	0000007c alt_main
0c01fef0 g     O .rwdata	00000008 ctrl_xfers
0c005024 g     F .text	000000c0 _puts_r
0c021f48 g     O .bss	00000100 alt_irq
0c016be4 g     F .text	00000060 _lseek_r
0c003d3c g     F .text	00000644 USB_Task
0c0010a8 g     F .text	0000010c TetrisMain
0c01ff44 g       *ABS*	00000000 __flash_rwdata_start
0c019114 g     F .text	00000088 .hidden __eqdf2
0c022048 g       *ABS*	00000000 __alt_heap_start
0c004fc8 g     F .text	0000003c printf
0c016d74 g     F .text	0000009c _wcrtomb_r
0c002dec g     F .text	00000088 kbdPoll
0c0106e0 g     F .text	0000005c __sseek
0c00d468 g     F .text	00000010 __sinit
0c015994 g     F .text	00000140 __swbuf_r
0c00e1dc g     F .text	0000007c _setlocale_r
0c00d2c0 g     F .text	00000078 __sfmoreglue
0c014284 g     F .text	00000018 ungetc
0c01aea4 g     F .text	00000024 __malloc_unlock
0c00213c g     F .text	000002b4 textVGAColorScreenSaver
0c01d674 g     O .rodata	000000d8 tetrisBlocks
0c000ed0 g     F .text	00000118 TetrisCheckLineComplete
0c0011b4 g     F .text	000001f0 GetDriverandReport
0c010884 g     F .text	000015e4 _strtod_r
0c0016b4 g     F .text	000003f8 keyInput
0c0006c0 g     F .text	000001b0 TetrisCheckCollision
0c00e8c4 g     F .text	0000015c memmove
0c00d450 g     F .text	00000018 _cleanup
0c00eb48 g     F .text	000000a8 _Balloc
0c002f40 g     F .text	00000088 MAXreg_wr
0c01e408 g     O .rwdata	00000030 ClientDriverTable
0c01919c g     F .text	000000dc .hidden __gtdf2
0c01cfc4 g     F .text	00000024 altera_nios2_gen2_irq_init
0c004380 g     F .text	0000002c MSDProbe
0c000000 g     F .entry	0000000c __reset
0c00383c g     F .text	000000e8 XferCtrlData
0c00245c g     F .text	000000b8 VGAwriteText
0c000020 g       *ABS*	00000000 __flash_exceptions_start
0c021db0 g     O .bss	00000010 hid_ep
0c015f88 g     F .text	0000005c _fstat_r
0c021d84 g     O .bss	00000004 errno
0c00b3f4 g     F .text	0000001c __svfscanf
0c01065c g     F .text	00000008 __seofread
0c00043c g     F .text	00000084 TetrisCleanup
0c012c7c g     F .text	000013a0 ___svfiprintf_internal_r
0c021d98 g     O .bss	00000004 alt_argv
0c027ee4 g       *ABS*	00000000 _gp
0c01b548 g     F .text	00000030 usleep
0c003130 g     F .text	00000074 MAXreg_rd
0c001db4 g     F .text	00000050 textVGAColorClr
0c01ed04 g     O .rwdata	00000180 alt_fd_list
0c002d24 g     F .text	00000040 HID_init
0c000954 g     F .text	00000164 TetrisPrintBlock
0c005004 g     F .text	00000008 _putchar_r
0c01cfe8 g     F .text	00000090 alt_find_dev
0c00e77c g     F .text	00000148 memcpy
0c016934 g     F .text	0000025c __hexnan
0c00d110 g     F .text	0000000c _cleanup_r
0c01a554 g     F .text	000000dc .hidden __floatsidf
0c01ccc4 g     F .text	0000007c alt_io_redirect
0c019278 g     F .text	000000f4 .hidden __ltdf2
0c01d674 g       *ABS*	00000000 __DTOR_END__
0c0050e4 g     F .text	00000014 puts
0c01d244 g     F .text	0000009c alt_exception_cause_generated_bad_addr
0c00e520 g     F .text	000000d8 mbrtowc
0c0104bc g     F .text	00000074 __fpclassifyd
0c00b410 g     F .text	0000004c _vfscanf_r
0c00f9e4 g     F .text	000000a4 __ratio
0c0158bc g     F .text	0000001c __vfiprintf_internal
0c01bdac g     F .text	0000021c altera_avalon_jtag_uart_read
0c004764 g     F .text	00000014 malloc
0c004f98 g     F .text	00000030 _printf_r
00000000 g       *ABS*	00000000 __alt_mem_onchip_memory2_0
0c004680 g     F .text	00000064 .hidden __udivsi3
0c01ab54 g     F .text	000000ac isatty
0c00e1ac g     F .text	00000030 iswspace
0c01dd8c g     O .rodata	000000c8 __mprec_tens
0c00e258 g     F .text	0000000c __locale_charset
0c017dd0 g     F .text	000000c8 .hidden __lesf2
0c017068 g     F .text	00000074 .hidden __fixunsdfsi
0c021d80 g     O .bss	00000004 __malloc_top_pad
0c000fe8 g     F .text	00000060 TetrisInputLeft
0c012770 g     F .text	0000001c strtoul
0c01fef8 g     O .rwdata	00000001 usb_task_state
0c01ff10 g     O .rwdata	00000004 __mb_cur_max
0c00e288 g     F .text	0000000c _localeconv_r
0c01278c g     F .text	00000320 _strtoull_r
0c00ef7c g     F .text	0000003c __i2b
0c00db5c g     F .text	000004c8 __sfvwrite_r
0c005174 g     F .text	00000054 _sbrk_r
0c016c44 g     F .text	00000060 _read_r
0c0034f8 g     F .text	00000094 MAX3421E_init
0c001680 g     F .text	00000034 setKeycode
0c01ff2c g     O .rwdata	00000004 alt_max_fd
0c015c7c g     F .text	000000f0 _fclose_r
0c00d0d8 g     F .text	00000030 fflush
0c021d7c g     O .bss	00000004 __malloc_max_sbrked_mem
0c017e98 g     F .text	000008ac .hidden __adddf3
0c017c9c g     F .text	00000078 .hidden __nesf2
0c00f78c g     F .text	0000010c __b2d
0c0176d8 g     F .text	000005c4 .hidden __umoddi3
0c01ad28 g     F .text	000000dc lseek
0c01ff08 g     O .rwdata	00000004 _global_impure_ptr
0c00fd68 g     F .text	00000564 _realloc_r
0c022048 g       *ABS*	00000000 __bss_end
0c01caf0 g     F .text	000000f0 alt_iic_isr_register
0c01b440 g     F .text	00000108 alt_tick
0c01def4 g     O .rodata	00000100 __hexdig
0c0170dc g     F .text	000005fc .hidden __udivdi3
0c015ee4 g     F .text	00000024 _fputwc_r
0c01dd64 g     O .rodata	00000028 __mprec_bigtens
0c00ed60 g     F .text	00000104 __s2b
0c01a630 g     F .text	000000a8 .hidden __floatunsidf
0c00f4cc g     F .text	00000060 __mcmp
0c00d488 g     F .text	00000018 __fp_lock_all
0c01caa4 g     F .text	0000004c alt_ic_irq_enabled
0c01b3a4 g     F .text	0000009c alt_alarm_stop
0c0121d8 g     F .text	0000001c strtol
0c021da8 g     O .bss	00000004 alt_irq_active
0c004448 g     F .text	0000002c DummyProbe
0c0000fc g     F .exceptions	000000d4 alt_irq_handler
0c000dc8 g     F .text	00000108 TetrisClearLine
0c01ecdc g     O .rwdata	00000028 alt_dev_null
0c002d64 g     F .text	00000088 mousePoll
0c00334c g     F .text	00000024 Vbus_power
0c01c760 g     F .text	00000020 alt_dcache_flush_all
0c00ee64 g     F .text	00000068 __hi0bits
0c01a4d4 g     F .text	00000080 .hidden __fixdfsi
0c011e68 g     F .text	00000018 strtod
0c01ff44 g       *ABS*	00000000 __ram_rwdata_end
0c01ff24 g     O .rwdata	00000008 alt_dev_list
0c01b5b4 g     F .text	00000100 write
0c00fc00 g     F .text	000000a0 _putc_r
0c017d14 g     F .text	000000bc .hidden __gtsf2
0c01e128 g       *ABS*	00000000 __ram_rodata_end
0c021d75 g     O .bss	00000001 usb_error
0c01aa60 g     F .text	000000b8 fstat
0c019278 g     F .text	000000f4 .hidden __ledf2
0c00f244 g     F .text	00000140 __pow5mult
0c0143b0 g     F .text	0000150c ___vfiprintf_internal_r
0c021d90 g     O .bss	00000004 __nlocale_changed
0c0046e4 g     F .text	00000058 .hidden __umodsi3
0c000324 g     F .text	00000118 TetrisInitialize
0c005204 g     F .text	00000030 _scanf_r
0c022048 g       *ABS*	00000000 end
0c00026c g     F .text	000000b8 TetrisGetRandomTetrisBlock
0c01b8e8 g     F .text	000000c0 altera_avalon_jtag_uart_init
0c0001d0 g     F .exceptions	00000060 alt_instruction_exception_entry
0c003998 g     F .text	0000017c XferDispatchPkt
0c01d674 g       *ABS*	00000000 __CTOR_LIST__
10000000 g       *ABS*	00000000 __alt_stack_pointer
0c01c460 g     F .text	0000007c alt_avalon_timer_sc_init
0c01a880 g     F .text	00000064 .hidden __clzsi2
0c01bfc8 g     F .text	00000224 altera_avalon_jtag_uart_write
0c00d478 g     F .text	00000004 __sfp_lock_acquire
0c00e698 g     F .text	000000e4 memchr
0c00764c g     F .text	000022dc ___vfprintf_internal_r
0c0036bc g     F .text	00000034 MaxGpxHandler
0c005234 g     F .text	00000058 _sprintf_r
0c00d84c g     F .text	00000310 _free_r
0c01aec8 g     F .text	0000022c alt_printf
0c00e264 g     F .text	00000010 __locale_mb_cur_max
0c01d4c0 g     F .text	00000180 __call_exitprocs
0c021d8c g     O .bss	00000004 __mlocale_changed
0c01fefc g     O .rwdata	00000004 __malloc_sbrk_base
0c000230 g     F .text	0000003c _start
0c021da0 g     O .bss	00000004 _alt_tick_rate
0c0031a4 g     F .text	00000108 MAXbytes_rd
0c0121f4 g     F .text	00000304 _strtoll_r
0c005110 g     F .text	00000064 rand
0c00f384 g     F .text	00000148 __lshift
0c01c1ec g     F .text	000001fc alt_avalon_spi_command
0c021da4 g     O .bss	00000004 _alt_nticks
0c01b16c g     F .text	00000104 read
0c01b720 g     F .text	00000064 alt_sys_init
0c012aac g     F .text	000001d0 __ssprint_r
0c021f00 g     O .bss	00000048 devtable
0c01d3a8 g     F .text	00000118 __register_exitproc
0c00291c g     F .text	00000408 HIDKProbe
0c021dc0 g     O .bss	00000018 msd_ep
0c001048 g     F .text	00000060 TetrisInputRight
0c016ca4 g     F .text	000000d0 strncmp
0c00efb8 g     F .text	0000028c __multiply
0c01bc54 g     F .text	00000068 altera_avalon_jtag_uart_close
0c003ca4 g     F .text	00000098 USB_init
0c021e00 g     O .bss	00000100 bigbuf
0c00473c g     F .text	00000028 .hidden __mulsi3
0c01e128 g       *ABS*	00000000 __ram_rwdata_start
0c01d674 g       *ABS*	00000000 __ram_rodata_start
0c021dd8 g     O .bss	00000028 __malloc_current_mallinfo
0c017c9c g     F .text	00000078 .hidden __eqsf2
0c021d6c g     O .bss	00000001 last_usb_task_state
0c00f898 g     F .text	0000014c __d2b
0c021d64 g     O .bss	00000008 dev0ep
0c0013e8 g     F .text	00000048 clearLED
0c01b784 g     F .text	00000060 altera_avalon_jtag_uart_read_fd
0c0124f8 g     F .text	00000278 _strtoul_r
0c01d180 g     F .text	000000c4 alt_get_fd
0c01c608 g     F .text	00000158 alt_busy_sleep
0c0043ac g     F .text	00000038 MSDEventHandler
0c015b4c g     F .text	00000054 _close_r
0c01d32c g     F .text	0000007c memcmp
0c01b844 g     F .text	00000050 altera_avalon_jtag_uart_close_fd
0c022048 g       *ABS*	00000000 __alt_stack_base
0c01b894 g     F .text	00000054 altera_avalon_jtag_uart_ioctl_fd
0c00b45c g     F .text	00000154 __swsetup_r
0c018744 g     F .text	000009d0 .hidden __divdf3
0c00d338 g     F .text	00000118 __sfp
0c00fafc g     F .text	00000078 __copybits
0c01e438 g     O .rwdata	00000408 __malloc_av_
0c00d484 g     F .text	00000004 __sinit_lock_release
0c004410 g     F .text	00000038 CDCEventHandler
0c01936c g     F .text	0000086c .hidden __muldf3
0c004474 g     F .text	00000038 DummyEventHandler
0c010608 g     F .text	00000054 __sread
0c00d6f4 g     F .text	00000034 fread
0c01d078 g     F .text	00000108 alt_find_file
0c01c7bc g     F .text	000000a4 alt_dev_llist_insert
0c01ae80 g     F .text	00000024 __malloc_lock
0c01b2f4 g     F .text	000000b0 sbrk
0c005390 g     F .text	000022bc ___svfprintf_internal_r
0c00d07c g     F .text	0000005c _fflush_r
0c015ba0 g     F .text	000000dc _calloc_r
0c021d60 g       *ABS*	00000000 __bss_start
0c003370 g     F .text	00000188 MAX_busprobe
0c021d60 g     O .bss	00000002 hid_device
0c00ea20 g     F .text	00000128 memset
0c001c9c g     F .text	00000118 main
0c00358c g     F .text	00000064 MAX3421E_Task
0c021d9c g     O .bss	00000004 alt_envp
0c021d78 g     O .bss	00000004 __malloc_max_total_mem
0c01b7e4 g     F .text	00000060 altera_avalon_jtag_uart_write_fd
0c015ad4 g     F .text	00000018 __swbuf
0c0050f8 g     F .text	00000018 srand
0c004504 g     F .text	00000084 ConvUTF8ToStr
0c017dd0 g     F .text	000000c8 .hidden __ltsf2
0c00d4b8 g     F .text	0000023c _fread_r
0c000ab8 g     F .text	000002a0 TetrisRotateBlock
0c000870 g     F .text	000000e4 TetrisCreateBlock
0c01073c g     F .text	00000008 __sclose
10000000 g       *ABS*	00000000 __alt_heap_limit
0c00203c g     F .text	00000100 screenVGAinitializer
0c015d6c g     F .text	00000014 fclose
0c0023f0 g     F .text	0000006c VGADrawColorBox
0c011f80 g     F .text	00000258 _strtol_r
0c01a6d8 g     F .text	000001a8 .hidden __truncdfsf2
0c00b7d8 g     F .text	00001688 _dtoa_r
0c00478c g     F .text	0000080c _malloc_r
0c016ed0 g     F .text	00000030 __ascii_wctomb
0c01ff30 g     O .rwdata	00000004 alt_errno
0c01401c g     F .text	000000d4 __submore
0c00e024 g     F .text	000000c4 _fwalk
0c00e63c g     F .text	0000005c _mbtowc_r
0c00fca0 g     F .text	000000c8 putc
0c004588 g     F .text	00000084 .hidden __divsi3
0c003b14 g     F .text	00000190 XferInTransfer
0c001f14 g     F .text	00000128 setColorPalette
0c001548 g     F .text	00000138 printSignedHex1
0c00d728 g     F .text	00000124 _malloc_trim_r
0c01d674 g       *ABS*	00000000 __CTOR_END__
0c0004c0 g     F .text	00000200 TetrisPrintBoard
0c0044cc g     F .text	00000038 GetDevtable
0c010744 g     F .text	000000dc strcmp
0c01d674 g       *ABS*	00000000 __flash_rodata_start
0c01d674 g       *ABS*	00000000 __DTOR_LIST__
0c003924 g     F .text	00000074 XferCtrlND
0c019114 g     F .text	00000088 .hidden __nedf2
0c0032ac g     F .text	000000a0 MAX3421E_reset
0c01b6e8 g     F .text	00000038 alt_irq_init
0c01b270 g     F .text	00000084 alt_release_fd
0c00528c g     F .text	0000006c sprintf
0c01dff4 g     O .rodata	00000100 .hidden __clz_tab
0c021d88 g     O .bss	00000004 _PathLocale
0c011e80 g     F .text	00000100 strtof
0c01d2e0 g     F .text	00000014 atexit
0c017d14 g     F .text	000000bc .hidden __gesf2
0c015aec g     F .text	00000060 _write_r
0c00e294 g     F .text	00000018 setlocale
0c0051c8 g     F .text	0000003c scanf
0c000d58 g     F .text	00000070 TetrisFallBlocks
0c010600 g     F .text	00000008 nanf
0c01ff0c g     O .rwdata	00000004 _impure_ptr
0c021d94 g     O .bss	00000004 alt_argc
0c00ce60 g     F .text	0000021c __sflush_r
0c00e474 g     F .text	000000ac _mbrtowc_r
0c01c8c0 g     F .text	00000060 _do_dtors
0c00e280 g     F .text	00000008 __locale_cjk_lang
0c002fc8 g     F .text	00000168 MAXbytes_wr
0c0102e8 g     F .text	000001d4 __srefill_r
0c000020 g       .exceptions	00000000 alt_irq_entry
0c00e5f8 g     F .text	00000044 __ascii_mbtowc
0c00f728 g     F .text	00000064 __ulp
0c00d4a0 g     F .text	00000018 __fp_unlock_all
0c01ff1c g     O .rwdata	00000008 alt_fs_list
0c0043e4 g     F .text	0000002c CDCProbe
0c000020 g       *ABS*	00000000 __ram_exceptions_start
0c00e2ac g     F .text	0000000c localeconv
0c0013a4 g     F .text	00000044 setLED
0c0044ac g     F .text	00000020 GetUsbTaskState
0c001aac g     F .text	000001f0 paintScreen
0c01c940 g     F .text	00000050 alt_ic_isr_register
0c01d7d4 g     O .rodata	00000010 devclasses
0c01ff44 g       *ABS*	00000000 _edata
0c002eac g     F .text	00000038 HIDKEventHandler
0c022048 g       *ABS*	00000000 _end
0c0035f0 g     F .text	000000cc MaxIntHandler
0c015d80 g     F .text	00000164 __fputwc
0c000230 g       *ABS*	00000000 __ram_exceptions_end
0c00b38c g     F .text	00000068 vfscanf
0c01bcbc g     F .text	000000f0 altera_avalon_jtag_uart_ioctl
0c001e04 g     F .text	00000110 textVGADrawColorText
0c002ee4 g     F .text	00000034 SPI_init
0c01ca18 g     F .text	0000008c alt_ic_irq_disable
0c010664 g     F .text	0000007c __swrite
0c01ff00 g     O .rwdata	00000004 __malloc_trim_threshold
0c00e274 g     F .text	0000000c __locale_msgcharset
0c01d2f4 g     F .text	00000038 exit
0c00e0e8 g     F .text	000000c4 _fwalk_reent
0c00f52c g     F .text	000001fc __mdiff
0c00460c g     F .text	00000074 .hidden __modsi3
0c01ff04 g     O .rwdata	00000004 __ctype_ptr__
10000000 g       *ABS*	00000000 __alt_data_end
0c000020 g     F .exceptions	00000000 alt_exception
0c00d47c g     F .text	00000004 __sfp_lock_release
0c000000 g       *ABS*	00000000 __alt_mem_sdram
0c010530 g     F .text	000000d0 __sccl
0c01da8c g     O .rodata	00000101 _ctype_
0c01ff14 g     O .rwdata	00000004 __mbtowc
0c002e74 g     F .text	00000038 HIDMEventHandler
0c01d640 g     F .text	00000034 _exit
0c01c4dc g     F .text	0000012c alt_alarm_start
0c001430 g     F .text	00000118 printSignedHex0
0c016f5c g     F .text	0000010c .hidden __muldi3
0c00e2b8 g     F .text	000001bc __smakebuf_r
0c0052f8 g     F .text	00000098 strlen
0c01ce68 g     F .text	0000015c open
0c01919c g     F .text	000000dc .hidden __gedf2
0c01b0f4 g     F .text	0000003c alt_putchar
0c0160e4 g     F .text	00000850 __gethex
0c01ff18 g     O .rwdata	00000004 __wctomb
0c014398 g     F .text	00000018 __sprint_r
0c01c920 g     F .text	00000020 alt_icache_flush_all
0c01ff40 g     O .rwdata	00000004 alt_priority_mask
0c01c990 g     F .text	00000088 alt_ic_irq_enable
0c009928 g     F .text	0000001c __vfprintf_internal
0c002514 g     F .text	00000408 HIDMProbe
0c016f00 g     F .text	0000005c _wctomb_r
0c002f18 g     F .text	00000028 SPI_wr
0c019bd8 g     F .text	000008fc .hidden __subdf3
0c00eecc g     F .text	000000b0 __lo0bits
0c009a00 g     F .text	0000198c __svfscanf_r
0c01ff38 g     O .rwdata	00000008 alt_alarm_list
0c0140f0 g     F .text	00000194 _ungetc_r
0c01c860 g     F .text	00000060 _do_ctors
0c016e10 g     F .text	000000c0 wcrtomb
0c01a920 g     F .text	000000d8 close
0c01ac68 g     F .text	00000084 alt_load
0c015f08 g     F .text	00000080 fputwc
0c004778 g     F .text	00000014 free
0c00d480 g     F .text	00000004 __sinit_lock_acquire
0c0036f0 g     F .text	0000014c XferCtrlReq
0c00ec18 g     F .text	00000148 __multadd
0c00ebf0 g     F .text	00000028 _Bfree



Disassembly of section .entry:

0c000000 <__reset>:
 * Jump to the _start entry point in the .text section if reset code
 * is allowed or if optimizing for RTL simulation.
 */
#if defined(ALT_ALLOW_CODE_AT_RESET) || defined(ALT_SIM_OPTIMIZE)
    /* Jump to the _start entry point in the .text section. */
    movhi r1, %hi(_start)
 c000000:	00430034 	movhi	at,3072
    ori r1, r1, %lo(_start)
 c000004:	08408c14 	ori	at,at,560
    jmp r1
 c000008:	0800683a 	jmp	at
	...

Disassembly of section .exceptions:

0c000020 <alt_exception>:

#else /* ALT_EXCEPTION_STACK disabled */
        /* 
         * Reserve space on normal stack for registers about to be pushed.
         */
        addi  sp, sp, -76
 c000020:	deffed04 	addi	sp,sp,-76
         * documentation for details).
         *
         * Leave a gap in the stack frame at 4(sp) for the muldiv handler to
         * store zero into.
         */
        stw   ra,  0(sp)
 c000024:	dfc00015 	stw	ra,0(sp)
        stw   r1,   8(sp)
 c000028:	d8400215 	stw	at,8(sp)
        stw   r2,  12(sp)
 c00002c:	d8800315 	stw	r2,12(sp)
        stw   r3,  16(sp)
 c000030:	d8c00415 	stw	r3,16(sp)
        stw   r4,  20(sp)
 c000034:	d9000515 	stw	r4,20(sp)
        stw   r5,  24(sp)
 c000038:	d9400615 	stw	r5,24(sp)
        stw   r6,  28(sp)
 c00003c:	d9800715 	stw	r6,28(sp)
        stw   r7,  32(sp)
 c000040:	d9c00815 	stw	r7,32(sp)
        rdctl r5, estatus   /* Read early to avoid usage stall */
 c000044:	000b307a 	rdctl	r5,estatus
        stw   r8,  36(sp)
 c000048:	da000915 	stw	r8,36(sp)
        stw   r9,  40(sp)
 c00004c:	da400a15 	stw	r9,40(sp)
        stw   r10, 44(sp)
 c000050:	da800b15 	stw	r10,44(sp)
        stw   r11, 48(sp)
 c000054:	dac00c15 	stw	r11,48(sp)
        stw   r12, 52(sp)
 c000058:	db000d15 	stw	r12,52(sp)
        stw   r13, 56(sp)
 c00005c:	db400e15 	stw	r13,56(sp)
        stw   r14, 60(sp)
 c000060:	db800f15 	stw	r14,60(sp)
        stw   r15, 64(sp)
 c000064:	dbc01015 	stw	r15,64(sp)
        /*
         * ea-4 contains the address of the instruction being executed
         * when the exception occured. For interrupt exceptions, we will
         * will be re-issue the isntruction. Store it in 72(sp)
         */
        stw   r5,  68(sp)  /* estatus */
 c000068:	d9401115 	stw	r5,68(sp)
        addi  r15, ea, -4  /* instruction that caused exception */
 c00006c:	ebffff04 	addi	r15,ea,-4
        stw   r15,  72(sp)
 c000070:	dbc01215 	stw	r15,72(sp)
#else
        /*
         * Test to see if the exception was a software exception or caused 
         * by an external interrupt, and vector accordingly.
         */
        rdctl r4, ipending
 c000074:	0009313a 	rdctl	r4,ipending
        andi  r2, r5, 1
 c000078:	2880004c 	andi	r2,r5,1
        beq   r2, zero, .Lnot_irq
 c00007c:	10000326 	beq	r2,zero,c00008c <alt_exception+0x6c>
        beq   r4, zero, .Lnot_irq
 c000080:	20000226 	beq	r4,zero,c00008c <alt_exception+0x6c>
        /*
         * Now that all necessary registers have been preserved, call 
         * alt_irq_handler() to process the interrupts.
         */

        call alt_irq_handler
 c000084:	c0000fc0 	call	c0000fc <alt_irq_handler>

        .section .exceptions.irqreturn, "xa"

        br    .Lexception_exit
 c000088:	00000706 	br	c0000a8 <alt_exception+0x88>
         * upon completion, so we write ea (address of instruction *after*
         * the one where the exception occured) into 72(sp). The actual
         * instruction that caused the exception is written in r2, which these
         * handlers will utilize.
         */
        stw ea, 72(sp) /* EA is PC+4 so will skip over instruction causing exception */
 c00008c:	df401215 	stw	ea,72(sp)
.Lunknown_16bit:
        addi.n r4, r4, 2 /* Need PC+2 to skip over instruction causing exception */
        stw r4, 72(sp)

#else /* CDX is not Enabled and all instructions are 32bits */
        ldw r2, -4(ea) /* Instruction value that caused exception */
 c000090:	e8bfff17 	ldw	r2,-4(ea)
         * debugger is present) or go into an infinite loop since the
         * handling behavior is undefined; in that case we will not return here.
         */

        /* Load exception-causing address as first argument (r4) */
        addi   r4, ea, -4
 c000094:	e93fff04 	addi	r4,ea,-4

        /* Call the instruction-exception entry */
        call   alt_instruction_exception_entry
 c000098:	c0001d00 	call	c0001d0 <alt_instruction_exception_entry>
         * instruction
         *
         * Return code was 0: Skip. The instruction after the exception is
         * already stored in 72(sp).
         */
        bne   r2, r0, .Lexception_exit
 c00009c:	1000021e 	bne	r2,zero,c0000a8 <alt_exception+0x88>

        /*
         * Otherwise, modify 72(sp) to re-issue the instruction that caused the
         * exception.
         */
        addi  r15, ea, -4  /* instruction that caused exception */
 c0000a0:	ebffff04 	addi	r15,ea,-4
        stw   r15,  72(sp)
 c0000a4:	dbc01215 	stw	r15,72(sp)
        /* 
         * Restore the saved registers, so that all general purpose registers 
         * have been restored to their state at the time the interrupt occured.
         */

        ldw   r5,  68(sp)
 c0000a8:	d9401117 	ldw	r5,68(sp)
        ldw   ea,  72(sp)  /* This becomes the PC once eret is executed */
 c0000ac:	df401217 	ldw	ea,72(sp)
        ldw   ra,   0(sp)
 c0000b0:	dfc00017 	ldw	ra,0(sp)

        wrctl estatus, r5
 c0000b4:	2801707a 	wrctl	estatus,r5

        ldw   r1,   8(sp)
 c0000b8:	d8400217 	ldw	at,8(sp)
        ldw   r2,  12(sp)
 c0000bc:	d8800317 	ldw	r2,12(sp)
        ldw   r3,  16(sp)
 c0000c0:	d8c00417 	ldw	r3,16(sp)
        ldw   r4,  20(sp)
 c0000c4:	d9000517 	ldw	r4,20(sp)
        ldw   r5,  24(sp)
 c0000c8:	d9400617 	ldw	r5,24(sp)
        ldw   r6,  28(sp)
 c0000cc:	d9800717 	ldw	r6,28(sp)
        ldw   r7,  32(sp)
 c0000d0:	d9c00817 	ldw	r7,32(sp)

#if defined(ALT_EXCEPTION_STACK) && defined(ALT_STACK_CHECK)
        ldw   et, %gprel(alt_exception_old_stack_limit)(gp)
#endif

        ldw   r8,  36(sp)
 c0000d4:	da000917 	ldw	r8,36(sp)
        ldw   r9,  40(sp)
 c0000d8:	da400a17 	ldw	r9,40(sp)
        ldw   r10, 44(sp)
 c0000dc:	da800b17 	ldw	r10,44(sp)
        ldw   r11, 48(sp)
 c0000e0:	dac00c17 	ldw	r11,48(sp)
        ldw   r12, 52(sp)
 c0000e4:	db000d17 	ldw	r12,52(sp)
        ldw   r13, 56(sp)
 c0000e8:	db400e17 	ldw	r13,56(sp)
        ldw   r14, 60(sp)
 c0000ec:	db800f17 	ldw	r14,60(sp)
        ldw   r15, 64(sp)
 c0000f0:	dbc01017 	ldw	r15,64(sp)
        stw   et, %gprel(alt_stack_limit_value)(gp)
        stw   zero, %gprel(alt_exception_old_stack_limit)(gp)
#endif /* ALT_STACK_CHECK */
        ldw   sp,  76(sp)
#else /* ALT_EXCEPTION_STACK disabled */
        addi  sp, sp, 76
 c0000f4:	dec01304 	addi	sp,sp,76

        /*
         * Return to the interrupted instruction.
         */

        eret
 c0000f8:	ef80083a 	eret

0c0000fc <alt_irq_handler>:
 * instruction is present if the macro ALT_CI_INTERRUPT_VECTOR defined.
 */

void alt_irq_handler (void) __attribute__ ((section (".exceptions")));
void alt_irq_handler (void)
{
 c0000fc:	defff904 	addi	sp,sp,-28
 c000100:	dfc00615 	stw	ra,24(sp)
 c000104:	df000515 	stw	fp,20(sp)
 c000108:	df000504 	addi	fp,sp,20
  
  /*
   * Notify the operating system that we are at interrupt level.
   */ 
  
  ALT_OS_INT_ENTER();
 c00010c:	0001883a 	nop
#ifndef NIOS2_EIC_PRESENT
static ALT_INLINE alt_u32 ALT_ALWAYS_INLINE alt_irq_pending (void)
{
  alt_u32 active;

  NIOS2_READ_IPENDING (active);
 c000110:	0005313a 	rdctl	r2,ipending
 c000114:	e0bffe15 	stw	r2,-8(fp)

  return active;
 c000118:	e0bffe17 	ldw	r2,-8(fp)
   * Consider the case where the high priority interupt is asserted during
   * the interrupt entry sequence for a lower priority interrupt to see why
   * this is the case.
   */

  active = alt_irq_pending ();
 c00011c:	e0bffb15 	stw	r2,-20(fp)

  do
  {
    i = 0;
 c000120:	e03ffd15 	stw	zero,-12(fp)
    mask = 1;
 c000124:	00800044 	movi	r2,1
 c000128:	e0bffc15 	stw	r2,-16(fp)
     * called to clear the interrupt condition.
     */

    do
    {
      if (active & mask)
 c00012c:	e0fffb17 	ldw	r3,-20(fp)
 c000130:	e0bffc17 	ldw	r2,-16(fp)
 c000134:	1884703a 	and	r2,r3,r2
 c000138:	10001426 	beq	r2,zero,c00018c <alt_irq_handler+0x90>
      { 
#ifdef ALT_ENHANCED_INTERRUPT_API_PRESENT
        alt_irq[i].handler(alt_irq[i].context); 
 c00013c:	008300b4 	movhi	r2,3074
 c000140:	1087d204 	addi	r2,r2,8008
 c000144:	e0fffd17 	ldw	r3,-12(fp)
 c000148:	180690fa 	slli	r3,r3,3
 c00014c:	10c5883a 	add	r2,r2,r3
 c000150:	10c00017 	ldw	r3,0(r2)
 c000154:	008300b4 	movhi	r2,3074
 c000158:	1087d204 	addi	r2,r2,8008
 c00015c:	e13ffd17 	ldw	r4,-12(fp)
 c000160:	200890fa 	slli	r4,r4,3
 c000164:	1105883a 	add	r2,r2,r4
 c000168:	10800104 	addi	r2,r2,4
 c00016c:	10800017 	ldw	r2,0(r2)
 c000170:	1009883a 	mov	r4,r2
 c000174:	183ee83a 	callr	r3
#else
        alt_irq[i].handler(alt_irq[i].context, i); 
#endif
        break;
 c000178:	0001883a 	nop
#ifndef NIOS2_EIC_PRESENT
static ALT_INLINE alt_u32 ALT_ALWAYS_INLINE alt_irq_pending (void)
{
  alt_u32 active;

  NIOS2_READ_IPENDING (active);
 c00017c:	0005313a 	rdctl	r2,ipending
 c000180:	e0bfff15 	stw	r2,-4(fp)

  return active;
 c000184:	e0bfff17 	ldw	r2,-4(fp)
 c000188:	00000706 	br	c0001a8 <alt_irq_handler+0xac>
      }
      mask <<= 1;
 c00018c:	e0bffc17 	ldw	r2,-16(fp)
 c000190:	1085883a 	add	r2,r2,r2
 c000194:	e0bffc15 	stw	r2,-16(fp)
      i++;
 c000198:	e0bffd17 	ldw	r2,-12(fp)
 c00019c:	10800044 	addi	r2,r2,1
 c0001a0:	e0bffd15 	stw	r2,-12(fp)

    } while (1);
 c0001a4:	003fe106 	br	c00012c <__alt_data_end+0xfc00012c>

    active = alt_irq_pending ();
 c0001a8:	e0bffb15 	stw	r2,-20(fp)
    
  } while (active);
 c0001ac:	e0bffb17 	ldw	r2,-20(fp)
 c0001b0:	103fdb1e 	bne	r2,zero,c000120 <__alt_data_end+0xfc000120>

  /*
   * Notify the operating system that interrupt processing is complete.
   */ 

  ALT_OS_INT_EXIT();
 c0001b4:	0001883a 	nop
}
 c0001b8:	0001883a 	nop
 c0001bc:	e037883a 	mov	sp,fp
 c0001c0:	dfc00117 	ldw	ra,4(sp)
 c0001c4:	df000017 	ldw	fp,0(sp)
 c0001c8:	dec00204 	addi	sp,sp,8
 c0001cc:	f800283a 	ret

0c0001d0 <alt_instruction_exception_entry>:
 * that handler if it has been registered. Absent a handler, it will
 * break break or hang as discussed below.
 */
int 
alt_instruction_exception_entry (alt_u32 exception_pc)
{
 c0001d0:	defffb04 	addi	sp,sp,-20
 c0001d4:	dfc00415 	stw	ra,16(sp)
 c0001d8:	df000315 	stw	fp,12(sp)
 c0001dc:	df000304 	addi	fp,sp,12
 c0001e0:	e13fff15 	stw	r4,-4(fp)
  cause = ( (cause & NIOS2_EXCEPTION_REG_CAUSE_MASK) >>
              NIOS2_EXCEPTION_REG_CAUSE_OFST );

  NIOS2_READ_BADADDR(badaddr);
#else
  cause = NIOS2_EXCEPTION_CAUSE_NOT_PRESENT;
 c0001e4:	00bfffc4 	movi	r2,-1
 c0001e8:	e0bffd15 	stw	r2,-12(fp)
  badaddr = 0;
 c0001ec:	e03ffe15 	stw	zero,-8(fp)
#endif /* NIOS2_HAS_EXTRA_EXCEPTION_INFO */

  if(alt_instruction_exception_handler) {
 c0001f0:	d0a7b217 	ldw	r2,-24888(gp)
 c0001f4:	10000726 	beq	r2,zero,c000214 <alt_instruction_exception_entry+0x44>
     * Call handler. Its return value indicates whether the exception-causing
     * instruction should be re-issued. The code that called us,
     * alt_eceptions_entry.S, will look at this value and adjust the ea
     * register as necessary
     */
    return alt_instruction_exception_handler(cause, exception_pc, badaddr);
 c0001f8:	d0a7b217 	ldw	r2,-24888(gp)
 c0001fc:	e0fffd17 	ldw	r3,-12(fp)
 c000200:	e1bffe17 	ldw	r6,-8(fp)
 c000204:	e17fff17 	ldw	r5,-4(fp)
 c000208:	1809883a 	mov	r4,r3
 c00020c:	103ee83a 	callr	r2
 c000210:	00000206 	br	c00021c <alt_instruction_exception_entry+0x4c>
   *    (a peripheral which negates its interrupt output before its
   *    interrupt handler has been executed will cause spurious interrupts)
   */
  else {
#ifdef NIOS2_HAS_DEBUG_STUB
    NIOS2_BREAK();
 c000214:	003da03a 	break	0
      ;
#endif /* NIOS2_HAS_DEBUG_STUB */
  }

  /* We should not get here. Remove compiler warning. */
  return NIOS2_EXCEPTION_RETURN_REISSUE_INST;
 c000218:	0005883a 	mov	r2,zero
}
 c00021c:	e037883a 	mov	sp,fp
 c000220:	dfc00117 	ldw	ra,4(sp)
 c000224:	df000017 	ldw	fp,0(sp)
 c000228:	dec00204 	addi	sp,sp,8
 c00022c:	f800283a 	ret

Disassembly of section .text:

0c000230 <_start>:

    /*
     * Now that the caches are initialized, set up the stack pointer and global pointer.
     * The values provided by the linker are assumed to be correctly aligned.
     */
    movhi sp, %hi(__alt_stack_pointer)
 c000230:	06c40034 	movhi	sp,4096
    ori sp, sp, %lo(__alt_stack_pointer)
 c000234:	dec00014 	ori	sp,sp,0
    movhi gp, %hi(_gp)
 c000238:	068300b4 	movhi	gp,3074
    ori gp, gp, %lo(_gp)
 c00023c:	d69fb914 	ori	gp,gp,32484
 */
#ifndef ALT_SIM_OPTIMIZE
    /* Log that the BSS is about to be cleared. */
    ALT_LOG_PUTS(alt_log_msg_bss)

    movhi r2, %hi(__bss_start)
 c000240:	008300b4 	movhi	r2,3074
    ori r2, r2, %lo(__bss_start)
 c000244:	10875814 	ori	r2,r2,7520

    movhi r3, %hi(__bss_end)
 c000248:	00c300b4 	movhi	r3,3074
    ori r3, r3, %lo(__bss_end)
 c00024c:	18c81214 	ori	r3,r3,8264

    beq r2, r3, 1f
 c000250:	10c00326 	beq	r2,r3,c000260 <_start+0x30>

0:
    stw zero, (r2)
 c000254:	10000015 	stw	zero,0(r2)
    addi r2, r2, 4
 c000258:	10800104 	addi	r2,r2,4
    bltu r2, r3, 0b
 c00025c:	10fffd36 	bltu	r2,r3,c000254 <__alt_data_end+0xfc000254>
     * section aren't defined until alt_load() has been called).
     */
    mov   et, zero
#endif

    call alt_load
 c000260:	c01ac680 	call	c01ac68 <alt_load>

    /* Log that alt_main is about to be called. */
    ALT_LOG_PUTS(alt_log_msg_alt_main)

    /* Call the C entry point. It should never return. */
    call alt_main
 c000264:	c01ae040 	call	c01ae04 <alt_main>

0c000268 <alt_after_alt_main>:

    /* Wait in infinite loop in case alt_main does return. */
alt_after_alt_main:
    br alt_after_alt_main
 c000268:	003fff06 	br	c000268 <__alt_data_end+0xfc000268>

0c00026c <TetrisGetRandomTetrisBlock>:
    int activeBlockX;
    int activeBlockY;
} TetrisGameState;

TetrisBlock TetrisGetRandomTetrisBlock()
{
 c00026c:	defffa04 	addi	sp,sp,-24
 c000270:	dfc00515 	stw	ra,20(sp)
 c000274:	df000415 	stw	fp,16(sp)
 c000278:	dc400315 	stw	r17,12(sp)
 c00027c:	dc000215 	stw	r16,8(sp)
 c000280:	df000404 	addi	fp,sp,16
 c000284:	e13ffd15 	stw	r4,-12(fp)
    const int tetrisBlockCount = sizeof(tetrisBlocks) / sizeof(TetrisBlock);
 c000288:	00800184 	movi	r2,6
 c00028c:	e0bffc15 	stw	r2,-16(fp)
    return tetrisBlocks[rand() % tetrisBlockCount];
 c000290:	c0051100 	call	c005110 <rand>
 c000294:	e17ffc17 	ldw	r5,-16(fp)
 c000298:	1009883a 	mov	r4,r2
 c00029c:	c00460c0 	call	c00460c <__modsi3>
 c0002a0:	e43ffd17 	ldw	r16,-12(fp)
 c0002a4:	044300b4 	movhi	r17,3074
 c0002a8:	8c759d04 	addi	r17,r17,-10636
 c0002ac:	01400904 	movi	r5,36
 c0002b0:	1009883a 	mov	r4,r2
 c0002b4:	c00473c0 	call	c00473c <__mulsi3>
 c0002b8:	8885883a 	add	r2,r17,r2
 c0002bc:	10c00017 	ldw	r3,0(r2)
 c0002c0:	80c00015 	stw	r3,0(r16)
 c0002c4:	10c00117 	ldw	r3,4(r2)
 c0002c8:	80c00115 	stw	r3,4(r16)
 c0002cc:	10c00217 	ldw	r3,8(r2)
 c0002d0:	80c00215 	stw	r3,8(r16)
 c0002d4:	10c00317 	ldw	r3,12(r2)
 c0002d8:	80c00315 	stw	r3,12(r16)
 c0002dc:	10c00417 	ldw	r3,16(r2)
 c0002e0:	80c00415 	stw	r3,16(r16)
 c0002e4:	10c00517 	ldw	r3,20(r2)
 c0002e8:	80c00515 	stw	r3,20(r16)
 c0002ec:	10c00617 	ldw	r3,24(r2)
 c0002f0:	80c00615 	stw	r3,24(r16)
 c0002f4:	10c00717 	ldw	r3,28(r2)
 c0002f8:	80c00715 	stw	r3,28(r16)
 c0002fc:	10800817 	ldw	r2,32(r2)
 c000300:	80800815 	stw	r2,32(r16)
}
 c000304:	e0bffd17 	ldw	r2,-12(fp)
 c000308:	e6fffe04 	addi	sp,fp,-8
 c00030c:	dfc00317 	ldw	ra,12(sp)
 c000310:	df000217 	ldw	fp,8(sp)
 c000314:	dc400117 	ldw	r17,4(sp)
 c000318:	dc000017 	ldw	r16,0(sp)
 c00031c:	dec00404 	addi	sp,sp,16
 c000320:	f800283a 	ret

0c000324 <TetrisInitialize>:

void TetrisInitialize(TetrisGameState* state, int width, int height)
{
 c000324:	defff804 	addi	sp,sp,-32
 c000328:	dfc00715 	stw	ra,28(sp)
 c00032c:	df000615 	stw	fp,24(sp)
 c000330:	dc000515 	stw	r16,20(sp)
 c000334:	df000604 	addi	fp,sp,24
 c000338:	e13ffc15 	stw	r4,-16(fp)
 c00033c:	e17ffd15 	stw	r5,-12(fp)
 c000340:	e1bffe15 	stw	r6,-8(fp)
    int x, y;

    state->completedLines = 0;
 c000344:	e0bffc17 	ldw	r2,-16(fp)
 c000348:	10000415 	stw	zero,16(r2)
    state->dead = 0;
 c00034c:	e0bffc17 	ldw	r2,-16(fp)
 c000350:	10000315 	stw	zero,12(r2)
    state->boardWidth = width;
 c000354:	e0bffc17 	ldw	r2,-16(fp)
 c000358:	e0fffd17 	ldw	r3,-12(fp)
 c00035c:	10c00115 	stw	r3,4(r2)
    state->boardHeight = height;
 c000360:	e0bffc17 	ldw	r2,-16(fp)
 c000364:	e0fffe17 	ldw	r3,-8(fp)
 c000368:	10c00215 	stw	r3,8(r2)
    state->board = (char**)malloc(sizeof(char*) * width);
 c00036c:	e0bffd17 	ldw	r2,-12(fp)
 c000370:	1085883a 	add	r2,r2,r2
 c000374:	1085883a 	add	r2,r2,r2
 c000378:	1009883a 	mov	r4,r2
 c00037c:	c0047640 	call	c004764 <malloc>
 c000380:	1007883a 	mov	r3,r2
 c000384:	e0bffc17 	ldw	r2,-16(fp)
 c000388:	10c00015 	stw	r3,0(r2)

    for (x = 0; x < width; ++x)
 c00038c:	e03ffa15 	stw	zero,-24(fp)
 c000390:	00002006 	br	c000414 <TetrisInitialize+0xf0>
    {
        state->board[x] = (char*)malloc(sizeof(char) * height);
 c000394:	e0bffc17 	ldw	r2,-16(fp)
 c000398:	10c00017 	ldw	r3,0(r2)
 c00039c:	e0bffa17 	ldw	r2,-24(fp)
 c0003a0:	1085883a 	add	r2,r2,r2
 c0003a4:	1085883a 	add	r2,r2,r2
 c0003a8:	18a1883a 	add	r16,r3,r2
 c0003ac:	e0bffe17 	ldw	r2,-8(fp)
 c0003b0:	1009883a 	mov	r4,r2
 c0003b4:	c0047640 	call	c004764 <malloc>
 c0003b8:	80800015 	stw	r2,0(r16)

        for (y = 0; y < height; ++y)
 c0003bc:	e03ffb15 	stw	zero,-20(fp)
 c0003c0:	00000e06 	br	c0003fc <TetrisInitialize+0xd8>
        {
            state->board[x][y] = ' ';
 c0003c4:	e0bffc17 	ldw	r2,-16(fp)
 c0003c8:	10c00017 	ldw	r3,0(r2)
 c0003cc:	e0bffa17 	ldw	r2,-24(fp)
 c0003d0:	1085883a 	add	r2,r2,r2
 c0003d4:	1085883a 	add	r2,r2,r2
 c0003d8:	1885883a 	add	r2,r3,r2
 c0003dc:	10c00017 	ldw	r3,0(r2)
 c0003e0:	e0bffb17 	ldw	r2,-20(fp)
 c0003e4:	1885883a 	add	r2,r3,r2
 c0003e8:	00c00804 	movi	r3,32
 c0003ec:	10c00005 	stb	r3,0(r2)

    for (x = 0; x < width; ++x)
    {
        state->board[x] = (char*)malloc(sizeof(char) * height);

        for (y = 0; y < height; ++y)
 c0003f0:	e0bffb17 	ldw	r2,-20(fp)
 c0003f4:	10800044 	addi	r2,r2,1
 c0003f8:	e0bffb15 	stw	r2,-20(fp)
 c0003fc:	e0fffb17 	ldw	r3,-20(fp)
 c000400:	e0bffe17 	ldw	r2,-8(fp)
 c000404:	18bfef16 	blt	r3,r2,c0003c4 <__alt_data_end+0xfc0003c4>
    state->dead = 0;
    state->boardWidth = width;
    state->boardHeight = height;
    state->board = (char**)malloc(sizeof(char*) * width);

    for (x = 0; x < width; ++x)
 c000408:	e0bffa17 	ldw	r2,-24(fp)
 c00040c:	10800044 	addi	r2,r2,1
 c000410:	e0bffa15 	stw	r2,-24(fp)
 c000414:	e0fffa17 	ldw	r3,-24(fp)
 c000418:	e0bffd17 	ldw	r2,-12(fp)
 c00041c:	18bfdd16 	blt	r3,r2,c000394 <__alt_data_end+0xfc000394>
        for (y = 0; y < height; ++y)
        {
            state->board[x][y] = ' ';
        }
    }
}
 c000420:	0001883a 	nop
 c000424:	e6ffff04 	addi	sp,fp,-4
 c000428:	dfc00217 	ldw	ra,8(sp)
 c00042c:	df000117 	ldw	fp,4(sp)
 c000430:	dc000017 	ldw	r16,0(sp)
 c000434:	dec00304 	addi	sp,sp,12
 c000438:	f800283a 	ret

0c00043c <TetrisCleanup>:

void TetrisCleanup(TetrisGameState* state)
{
 c00043c:	defffc04 	addi	sp,sp,-16
 c000440:	dfc00315 	stw	ra,12(sp)
 c000444:	df000215 	stw	fp,8(sp)
 c000448:	df000204 	addi	fp,sp,8
 c00044c:	e13fff15 	stw	r4,-4(fp)
    int x;

    for (x = 0; x < state->boardWidth; ++x)
 c000450:	e03ffe15 	stw	zero,-8(fp)
 c000454:	00000c06 	br	c000488 <TetrisCleanup+0x4c>
    {
        free(state->board[x]);
 c000458:	e0bfff17 	ldw	r2,-4(fp)
 c00045c:	10c00017 	ldw	r3,0(r2)
 c000460:	e0bffe17 	ldw	r2,-8(fp)
 c000464:	1085883a 	add	r2,r2,r2
 c000468:	1085883a 	add	r2,r2,r2
 c00046c:	1885883a 	add	r2,r3,r2
 c000470:	10800017 	ldw	r2,0(r2)
 c000474:	1009883a 	mov	r4,r2
 c000478:	c0047780 	call	c004778 <free>

void TetrisCleanup(TetrisGameState* state)
{
    int x;

    for (x = 0; x < state->boardWidth; ++x)
 c00047c:	e0bffe17 	ldw	r2,-8(fp)
 c000480:	10800044 	addi	r2,r2,1
 c000484:	e0bffe15 	stw	r2,-8(fp)
 c000488:	e0bfff17 	ldw	r2,-4(fp)
 c00048c:	10800117 	ldw	r2,4(r2)
 c000490:	e0fffe17 	ldw	r3,-8(fp)
 c000494:	18bff016 	blt	r3,r2,c000458 <__alt_data_end+0xfc000458>
    {
        free(state->board[x]);
    }

    free(state->board);
 c000498:	e0bfff17 	ldw	r2,-4(fp)
 c00049c:	10800017 	ldw	r2,0(r2)
 c0004a0:	1009883a 	mov	r4,r2
 c0004a4:	c0047780 	call	c004778 <free>
}
 c0004a8:	0001883a 	nop
 c0004ac:	e037883a 	mov	sp,fp
 c0004b0:	dfc00117 	ldw	ra,4(sp)
 c0004b4:	df000017 	ldw	fp,0(sp)
 c0004b8:	dec00204 	addi	sp,sp,8
 c0004bc:	f800283a 	ret

0c0004c0 <TetrisPrintBoard>:

void TetrisPrintBoard(TetrisGameState* state)
{
 c0004c0:	defff904 	addi	sp,sp,-28
 c0004c4:	dfc00615 	stw	ra,24(sp)
 c0004c8:	df000515 	stw	fp,20(sp)
 c0004cc:	dc400415 	stw	r17,16(sp)
 c0004d0:	dc000315 	stw	r16,12(sp)
 c0004d4:	df000504 	addi	fp,sp,20
 c0004d8:	e13ffd15 	stw	r4,-12(fp)
    int x, y;

    for (x = 0; x < 30; ++x)
 c0004dc:	e03ffb15 	stw	zero,-20(fp)
 c0004e0:	00000506 	br	c0004f8 <TetrisPrintBoard+0x38>
    {
        printf("\n");
 c0004e4:	01000284 	movi	r4,10
 c0004e8:	c00500c0 	call	c00500c <putchar>

void TetrisPrintBoard(TetrisGameState* state)
{
    int x, y;

    for (x = 0; x < 30; ++x)
 c0004ec:	e0bffb17 	ldw	r2,-20(fp)
 c0004f0:	10800044 	addi	r2,r2,1
 c0004f4:	e0bffb15 	stw	r2,-20(fp)
 c0004f8:	e0bffb17 	ldw	r2,-20(fp)
 c0004fc:	10800790 	cmplti	r2,r2,30
 c000500:	103ff81e 	bne	r2,zero,c0004e4 <__alt_data_end+0xfc0004e4>
    {
        printf("\n");
    }

    printf("%d line(s) completed\n\n", state->completedLines);
 c000504:	e0bffd17 	ldw	r2,-12(fp)
 c000508:	10800417 	ldw	r2,16(r2)
 c00050c:	100b883a 	mov	r5,r2
 c000510:	010300b4 	movhi	r4,3074
 c000514:	2135d304 	addi	r4,r4,-10420
 c000518:	c004fc80 	call	c004fc8 <printf>

    for (y = 0; y < state->boardHeight; ++y)
 c00051c:	e03ffc15 	stw	zero,-16(fp)
 c000520:	00004d06 	br	c000658 <TetrisPrintBoard+0x198>
    {
        printf("|");
 c000524:	01001f04 	movi	r4,124
 c000528:	c00500c0 	call	c00500c <putchar>

        for (x = 0; x < state->boardWidth; ++x)
 c00052c:	e03ffb15 	stw	zero,-20(fp)
 c000530:	00003f06 	br	c000630 <TetrisPrintBoard+0x170>
        {
            if (x >= state->activeBlockX &&                              //
 c000534:	e0bffd17 	ldw	r2,-12(fp)
 c000538:	10800e17 	ldw	r2,56(r2)
 c00053c:	e0fffb17 	ldw	r3,-20(fp)
 c000540:	18802916 	blt	r3,r2,c0005e8 <TetrisPrintBoard+0x128>
                y >= state->activeBlockY &&                              //
 c000544:	e0bffd17 	ldw	r2,-12(fp)
 c000548:	10800f17 	ldw	r2,60(r2)
    {
        printf("|");

        for (x = 0; x < state->boardWidth; ++x)
        {
            if (x >= state->activeBlockX &&                              //
 c00054c:	e0fffc17 	ldw	r3,-16(fp)
 c000550:	18802516 	blt	r3,r2,c0005e8 <TetrisPrintBoard+0x128>
                y >= state->activeBlockY &&                              //
                x < (state->activeBlockX + state->activeBlock.width) &&  //
 c000554:	e0bffd17 	ldw	r2,-12(fp)
 c000558:	10c00e17 	ldw	r3,56(r2)
 c00055c:	e0bffd17 	ldw	r2,-12(fp)
 c000560:	10800517 	ldw	r2,20(r2)
 c000564:	1885883a 	add	r2,r3,r2
        printf("|");

        for (x = 0; x < state->boardWidth; ++x)
        {
            if (x >= state->activeBlockX &&                              //
                y >= state->activeBlockY &&                              //
 c000568:	e0fffb17 	ldw	r3,-20(fp)
 c00056c:	18801e0e 	bge	r3,r2,c0005e8 <TetrisPrintBoard+0x128>
                x < (state->activeBlockX + state->activeBlock.width) &&  //
                y < (state->activeBlockY + state->activeBlock.height) && //
 c000570:	e0bffd17 	ldw	r2,-12(fp)
 c000574:	10c00f17 	ldw	r3,60(r2)
 c000578:	e0bffd17 	ldw	r2,-12(fp)
 c00057c:	10800617 	ldw	r2,24(r2)
 c000580:	1885883a 	add	r2,r3,r2

        for (x = 0; x < state->boardWidth; ++x)
        {
            if (x >= state->activeBlockX &&                              //
                y >= state->activeBlockY &&                              //
                x < (state->activeBlockX + state->activeBlock.width) &&  //
 c000584:	e0fffc17 	ldw	r3,-16(fp)
 c000588:	1880170e 	bge	r3,r2,c0005e8 <TetrisPrintBoard+0x128>
                y < (state->activeBlockY + state->activeBlock.height) && //
                state->activeBlock.data[y - state->activeBlockY]
 c00058c:	e0bffd17 	ldw	r2,-12(fp)
 c000590:	10800f17 	ldw	r2,60(r2)
 c000594:	e0fffc17 	ldw	r3,-16(fp)
 c000598:	1889c83a 	sub	r4,r3,r2
                                       [x - state->activeBlockX] != ' ')
 c00059c:	e0bffd17 	ldw	r2,-12(fp)
 c0005a0:	10800e17 	ldw	r2,56(r2)
 c0005a4:	e0fffb17 	ldw	r3,-20(fp)
 c0005a8:	18a1c83a 	sub	r16,r3,r2
 c0005ac:	e47ffd17 	ldw	r17,-12(fp)
 c0005b0:	01400144 	movi	r5,5
 c0005b4:	c00473c0 	call	c00473c <__mulsi3>
 c0005b8:	8885883a 	add	r2,r17,r2
 c0005bc:	1405883a 	add	r2,r2,r16
 c0005c0:	10800704 	addi	r2,r2,28
 c0005c4:	10800003 	ldbu	r2,0(r2)
        for (x = 0; x < state->boardWidth; ++x)
        {
            if (x >= state->activeBlockX &&                              //
                y >= state->activeBlockY &&                              //
                x < (state->activeBlockX + state->activeBlock.width) &&  //
                y < (state->activeBlockY + state->activeBlock.height) && //
 c0005c8:	10803fcc 	andi	r2,r2,255
 c0005cc:	1080201c 	xori	r2,r2,128
 c0005d0:	10bfe004 	addi	r2,r2,-128
 c0005d4:	10800820 	cmpeqi	r2,r2,32
 c0005d8:	1000031e 	bne	r2,zero,c0005e8 <TetrisPrintBoard+0x128>
                state->activeBlock.data[y - state->activeBlockY]
                                       [x - state->activeBlockX] != ' ')
            {
                printf("X");
 c0005dc:	01001604 	movi	r4,88
 c0005e0:	c00500c0 	call	c00500c <putchar>
 c0005e4:	00000f06 	br	c000624 <TetrisPrintBoard+0x164>
            }
            else
            {
                printf("%c", state->board[x][y]);
 c0005e8:	e0bffd17 	ldw	r2,-12(fp)
 c0005ec:	10c00017 	ldw	r3,0(r2)
 c0005f0:	e0bffb17 	ldw	r2,-20(fp)
 c0005f4:	1085883a 	add	r2,r2,r2
 c0005f8:	1085883a 	add	r2,r2,r2
 c0005fc:	1885883a 	add	r2,r3,r2
 c000600:	10c00017 	ldw	r3,0(r2)
 c000604:	e0bffc17 	ldw	r2,-16(fp)
 c000608:	1885883a 	add	r2,r3,r2
 c00060c:	10800003 	ldbu	r2,0(r2)
 c000610:	10803fcc 	andi	r2,r2,255
 c000614:	1080201c 	xori	r2,r2,128
 c000618:	10bfe004 	addi	r2,r2,-128
 c00061c:	1009883a 	mov	r4,r2
 c000620:	c00500c0 	call	c00500c <putchar>

    for (y = 0; y < state->boardHeight; ++y)
    {
        printf("|");

        for (x = 0; x < state->boardWidth; ++x)
 c000624:	e0bffb17 	ldw	r2,-20(fp)
 c000628:	10800044 	addi	r2,r2,1
 c00062c:	e0bffb15 	stw	r2,-20(fp)
 c000630:	e0bffd17 	ldw	r2,-12(fp)
 c000634:	10800117 	ldw	r2,4(r2)
 c000638:	e0fffb17 	ldw	r3,-20(fp)
 c00063c:	18bfbd16 	blt	r3,r2,c000534 <__alt_data_end+0xfc000534>
            {
                printf("%c", state->board[x][y]);
            }
        }

        printf("|\n");
 c000640:	010300b4 	movhi	r4,3074
 c000644:	2135d904 	addi	r4,r4,-10396
 c000648:	c0050e40 	call	c0050e4 <puts>
        printf("\n");
    }

    printf("%d line(s) completed\n\n", state->completedLines);

    for (y = 0; y < state->boardHeight; ++y)
 c00064c:	e0bffc17 	ldw	r2,-16(fp)
 c000650:	10800044 	addi	r2,r2,1
 c000654:	e0bffc15 	stw	r2,-16(fp)
 c000658:	e0bffd17 	ldw	r2,-12(fp)
 c00065c:	10800217 	ldw	r2,8(r2)
 c000660:	e0fffc17 	ldw	r3,-16(fp)
 c000664:	18bfaf16 	blt	r3,r2,c000524 <__alt_data_end+0xfc000524>
        }

        printf("|\n");
    }

    for (x = 0; x < state->boardWidth + 2; ++x)
 c000668:	e03ffb15 	stw	zero,-20(fp)
 c00066c:	00000506 	br	c000684 <TetrisPrintBoard+0x1c4>
    {
        printf("-");
 c000670:	01000b44 	movi	r4,45
 c000674:	c00500c0 	call	c00500c <putchar>
        }

        printf("|\n");
    }

    for (x = 0; x < state->boardWidth + 2; ++x)
 c000678:	e0bffb17 	ldw	r2,-20(fp)
 c00067c:	10800044 	addi	r2,r2,1
 c000680:	e0bffb15 	stw	r2,-20(fp)
 c000684:	e0bffd17 	ldw	r2,-12(fp)
 c000688:	10800117 	ldw	r2,4(r2)
 c00068c:	10800084 	addi	r2,r2,2
 c000690:	e0fffb17 	ldw	r3,-20(fp)
 c000694:	18bff616 	blt	r3,r2,c000670 <__alt_data_end+0xfc000670>
    {
        printf("-");
    }

    printf("\n");
 c000698:	01000284 	movi	r4,10
 c00069c:	c00500c0 	call	c00500c <putchar>
}
 c0006a0:	0001883a 	nop
 c0006a4:	e6fffe04 	addi	sp,fp,-8
 c0006a8:	dfc00317 	ldw	ra,12(sp)
 c0006ac:	df000217 	ldw	fp,8(sp)
 c0006b0:	dc400117 	ldw	r17,4(sp)
 c0006b4:	dc000017 	ldw	r16,0(sp)
 c0006b8:	dec00404 	addi	sp,sp,16
 c0006bc:	f800283a 	ret

0c0006c0 <TetrisCheckCollision>:

int TetrisCheckCollision(TetrisGameState* state)
{
 c0006c0:	defff004 	addi	sp,sp,-64
 c0006c4:	dfc00f15 	stw	ra,60(sp)
 c0006c8:	df000e15 	stw	fp,56(sp)
 c0006cc:	df000e04 	addi	fp,sp,56
 c0006d0:	e13fff15 	stw	r4,-4(fp)
    int x, y, X, Y;

    TetrisBlock b = state->activeBlock;
 c0006d4:	e0bfff17 	ldw	r2,-4(fp)
 c0006d8:	10c00517 	ldw	r3,20(r2)
 c0006dc:	e0fff615 	stw	r3,-40(fp)
 c0006e0:	10c00617 	ldw	r3,24(r2)
 c0006e4:	e0fff715 	stw	r3,-36(fp)
 c0006e8:	10c00717 	ldw	r3,28(r2)
 c0006ec:	e0fff815 	stw	r3,-32(fp)
 c0006f0:	10c00817 	ldw	r3,32(r2)
 c0006f4:	e0fff915 	stw	r3,-28(fp)
 c0006f8:	10c00917 	ldw	r3,36(r2)
 c0006fc:	e0fffa15 	stw	r3,-24(fp)
 c000700:	10c00a17 	ldw	r3,40(r2)
 c000704:	e0fffb15 	stw	r3,-20(fp)
 c000708:	10c00b17 	ldw	r3,44(r2)
 c00070c:	e0fffc15 	stw	r3,-16(fp)
 c000710:	10c00c17 	ldw	r3,48(r2)
 c000714:	e0fffd15 	stw	r3,-12(fp)
 c000718:	10800d17 	ldw	r2,52(r2)
 c00071c:	e0bffe15 	stw	r2,-8(fp)

    for (x = 0; x < b.width; ++x)
 c000720:	e03ff215 	stw	zero,-56(fp)
 c000724:	00004906 	br	c00084c <TetrisCheckCollision+0x18c>
    {
        for (y = 0; y < b.height; ++y)
 c000728:	e03ff315 	stw	zero,-52(fp)
 c00072c:	00004106 	br	c000834 <TetrisCheckCollision+0x174>
        {
            X = state->activeBlockX + x;
 c000730:	e0bfff17 	ldw	r2,-4(fp)
 c000734:	10c00e17 	ldw	r3,56(r2)
 c000738:	e0bff217 	ldw	r2,-56(fp)
 c00073c:	1885883a 	add	r2,r3,r2
 c000740:	e0bff415 	stw	r2,-48(fp)
            Y = state->activeBlockY + y;
 c000744:	e0bfff17 	ldw	r2,-4(fp)
 c000748:	10c00f17 	ldw	r3,60(r2)
 c00074c:	e0bff317 	ldw	r2,-52(fp)
 c000750:	1885883a 	add	r2,r3,r2
 c000754:	e0bff515 	stw	r2,-44(fp)

            if (X < 0 || X >= state->boardWidth)
 c000758:	e0bff417 	ldw	r2,-48(fp)
 c00075c:	10000416 	blt	r2,zero,c000770 <TetrisCheckCollision+0xb0>
 c000760:	e0bfff17 	ldw	r2,-4(fp)
 c000764:	10800117 	ldw	r2,4(r2)
 c000768:	e0fff417 	ldw	r3,-48(fp)
 c00076c:	18800216 	blt	r3,r2,c000778 <TetrisCheckCollision+0xb8>
            {
                return 1;
 c000770:	00800044 	movi	r2,1
 c000774:	00003906 	br	c00085c <TetrisCheckCollision+0x19c>
            }

            if (b.data[y][x] != ' ')
 c000778:	e0bff317 	ldw	r2,-52(fp)
 c00077c:	01400144 	movi	r5,5
 c000780:	1009883a 	mov	r4,r2
 c000784:	c00473c0 	call	c00473c <__mulsi3>
 c000788:	e13ff204 	addi	r4,fp,-56
 c00078c:	2087883a 	add	r3,r4,r2
 c000790:	e0bff217 	ldw	r2,-56(fp)
 c000794:	1885883a 	add	r2,r3,r2
 c000798:	10800604 	addi	r2,r2,24
 c00079c:	10800003 	ldbu	r2,0(r2)
 c0007a0:	10803fcc 	andi	r2,r2,255
 c0007a4:	1080201c 	xori	r2,r2,128
 c0007a8:	10bfe004 	addi	r2,r2,-128
 c0007ac:	10800820 	cmpeqi	r2,r2,32
 c0007b0:	10001d1e 	bne	r2,zero,c000828 <TetrisCheckCollision+0x168>
            {
                if ((Y >= state->boardHeight) ||
 c0007b4:	e0bfff17 	ldw	r2,-4(fp)
 c0007b8:	10800217 	ldw	r2,8(r2)
 c0007bc:	e0fff517 	ldw	r3,-44(fp)
 c0007c0:	1880170e 	bge	r3,r2,c000820 <TetrisCheckCollision+0x160>
 c0007c4:	e0bff417 	ldw	r2,-48(fp)
 c0007c8:	10001716 	blt	r2,zero,c000828 <TetrisCheckCollision+0x168>
                    (X >= 0 && X < state->boardWidth && Y >= 0 &&
 c0007cc:	e0bfff17 	ldw	r2,-4(fp)
 c0007d0:	10800117 	ldw	r2,4(r2)
 c0007d4:	e0fff417 	ldw	r3,-48(fp)
 c0007d8:	1880130e 	bge	r3,r2,c000828 <TetrisCheckCollision+0x168>
 c0007dc:	e0bff517 	ldw	r2,-44(fp)
 c0007e0:	10001116 	blt	r2,zero,c000828 <TetrisCheckCollision+0x168>
                        state->board[X][Y] != ' '))
 c0007e4:	e0bfff17 	ldw	r2,-4(fp)
 c0007e8:	10c00017 	ldw	r3,0(r2)
 c0007ec:	e0bff417 	ldw	r2,-48(fp)
 c0007f0:	1085883a 	add	r2,r2,r2
 c0007f4:	1085883a 	add	r2,r2,r2
 c0007f8:	1885883a 	add	r2,r3,r2
 c0007fc:	10c00017 	ldw	r3,0(r2)
 c000800:	e0bff517 	ldw	r2,-44(fp)
 c000804:	1885883a 	add	r2,r3,r2
 c000808:	10800003 	ldbu	r2,0(r2)
            }

            if (b.data[y][x] != ' ')
            {
                if ((Y >= state->boardHeight) ||
                    (X >= 0 && X < state->boardWidth && Y >= 0 &&
 c00080c:	10803fcc 	andi	r2,r2,255
 c000810:	1080201c 	xori	r2,r2,128
 c000814:	10bfe004 	addi	r2,r2,-128
 c000818:	10800820 	cmpeqi	r2,r2,32
 c00081c:	1000021e 	bne	r2,zero,c000828 <TetrisCheckCollision+0x168>
                        state->board[X][Y] != ' '))
                {
                    return 1;
 c000820:	00800044 	movi	r2,1
 c000824:	00000d06 	br	c00085c <TetrisCheckCollision+0x19c>

    TetrisBlock b = state->activeBlock;

    for (x = 0; x < b.width; ++x)
    {
        for (y = 0; y < b.height; ++y)
 c000828:	e0bff317 	ldw	r2,-52(fp)
 c00082c:	10800044 	addi	r2,r2,1
 c000830:	e0bff315 	stw	r2,-52(fp)
 c000834:	e0bff717 	ldw	r2,-36(fp)
 c000838:	e0fff317 	ldw	r3,-52(fp)
 c00083c:	18bfbc16 	blt	r3,r2,c000730 <__alt_data_end+0xfc000730>
{
    int x, y, X, Y;

    TetrisBlock b = state->activeBlock;

    for (x = 0; x < b.width; ++x)
 c000840:	e0bff217 	ldw	r2,-56(fp)
 c000844:	10800044 	addi	r2,r2,1
 c000848:	e0bff215 	stw	r2,-56(fp)
 c00084c:	e0bff617 	ldw	r2,-40(fp)
 c000850:	e0fff217 	ldw	r3,-56(fp)
 c000854:	18bfb416 	blt	r3,r2,c000728 <__alt_data_end+0xfc000728>
                }
            }
        }
    }

    return 0;
 c000858:	0005883a 	mov	r2,zero
}
 c00085c:	e037883a 	mov	sp,fp
 c000860:	dfc00117 	ldw	ra,4(sp)
 c000864:	df000017 	ldw	fp,0(sp)
 c000868:	dec00204 	addi	sp,sp,8
 c00086c:	f800283a 	ret

0c000870 <TetrisCreateBlock>:

void TetrisCreateBlock(TetrisGameState* state)
{
 c000870:	defff304 	addi	sp,sp,-52
 c000874:	dfc00c15 	stw	ra,48(sp)
 c000878:	df000b15 	stw	fp,44(sp)
 c00087c:	dc000a15 	stw	r16,40(sp)
 c000880:	df000b04 	addi	fp,sp,44
 c000884:	e13ff515 	stw	r4,-44(fp)
    state->activeBlock = TetrisGetRandomTetrisBlock();
 c000888:	e43ff517 	ldw	r16,-44(fp)
 c00088c:	e0bff604 	addi	r2,fp,-40
 c000890:	1009883a 	mov	r4,r2
 c000894:	c00026c0 	call	c00026c <TetrisGetRandomTetrisBlock>
 c000898:	e0bff617 	ldw	r2,-40(fp)
 c00089c:	80800515 	stw	r2,20(r16)
 c0008a0:	e0bff717 	ldw	r2,-36(fp)
 c0008a4:	80800615 	stw	r2,24(r16)
 c0008a8:	e0bff817 	ldw	r2,-32(fp)
 c0008ac:	80800715 	stw	r2,28(r16)
 c0008b0:	e0bff917 	ldw	r2,-28(fp)
 c0008b4:	80800815 	stw	r2,32(r16)
 c0008b8:	e0bffa17 	ldw	r2,-24(fp)
 c0008bc:	80800915 	stw	r2,36(r16)
 c0008c0:	e0bffb17 	ldw	r2,-20(fp)
 c0008c4:	80800a15 	stw	r2,40(r16)
 c0008c8:	e0bffc17 	ldw	r2,-16(fp)
 c0008cc:	80800b15 	stw	r2,44(r16)
 c0008d0:	e0bffd17 	ldw	r2,-12(fp)
 c0008d4:	80800c15 	stw	r2,48(r16)
 c0008d8:	e0bffe17 	ldw	r2,-8(fp)
 c0008dc:	80800d15 	stw	r2,52(r16)

    state->activeBlockX =
        (state->boardWidth / 2) - (state->activeBlock.width / 2);
 c0008e0:	e0bff517 	ldw	r2,-44(fp)
 c0008e4:	10800117 	ldw	r2,4(r2)
 c0008e8:	1006d7fa 	srli	r3,r2,31
 c0008ec:	1885883a 	add	r2,r3,r2
 c0008f0:	1005d07a 	srai	r2,r2,1
 c0008f4:	1009883a 	mov	r4,r2
 c0008f8:	e0bff517 	ldw	r2,-44(fp)
 c0008fc:	10800517 	ldw	r2,20(r2)
 c000900:	1006d7fa 	srli	r3,r2,31
 c000904:	1885883a 	add	r2,r3,r2
 c000908:	1005d07a 	srai	r2,r2,1
 c00090c:	2087c83a 	sub	r3,r4,r2

void TetrisCreateBlock(TetrisGameState* state)
{
    state->activeBlock = TetrisGetRandomTetrisBlock();

    state->activeBlockX =
 c000910:	e0bff517 	ldw	r2,-44(fp)
 c000914:	10c00e15 	stw	r3,56(r2)
        (state->boardWidth / 2) - (state->activeBlock.width / 2);

    state->activeBlockY = 0;
 c000918:	e0bff517 	ldw	r2,-44(fp)
 c00091c:	10000f15 	stw	zero,60(r2)

    if (TetrisCheckCollision(state))
 c000920:	e13ff517 	ldw	r4,-44(fp)
 c000924:	c0006c00 	call	c0006c0 <TetrisCheckCollision>
 c000928:	10000326 	beq	r2,zero,c000938 <TetrisCreateBlock+0xc8>
    {
        state->dead = 1;
 c00092c:	e0bff517 	ldw	r2,-44(fp)
 c000930:	00c00044 	movi	r3,1
 c000934:	10c00315 	stw	r3,12(r2)
    }
}
 c000938:	0001883a 	nop
 c00093c:	e6ffff04 	addi	sp,fp,-4
 c000940:	dfc00217 	ldw	ra,8(sp)
 c000944:	df000117 	ldw	fp,4(sp)
 c000948:	dc000017 	ldw	r16,0(sp)
 c00094c:	dec00304 	addi	sp,sp,12
 c000950:	f800283a 	ret

0c000954 <TetrisPrintBlock>:

void TetrisPrintBlock(TetrisGameState* state)
{
 c000954:	defff104 	addi	sp,sp,-60
 c000958:	dfc00e15 	stw	ra,56(sp)
 c00095c:	df000d15 	stw	fp,52(sp)
 c000960:	dc000c15 	stw	r16,48(sp)
 c000964:	df000d04 	addi	fp,sp,52
 c000968:	e13ffe15 	stw	r4,-8(fp)
    TetrisBlock b = state->activeBlock;
 c00096c:	e0bffe17 	ldw	r2,-8(fp)
 c000970:	10c00517 	ldw	r3,20(r2)
 c000974:	e0fff515 	stw	r3,-44(fp)
 c000978:	10c00617 	ldw	r3,24(r2)
 c00097c:	e0fff615 	stw	r3,-40(fp)
 c000980:	10c00717 	ldw	r3,28(r2)
 c000984:	e0fff715 	stw	r3,-36(fp)
 c000988:	10c00817 	ldw	r3,32(r2)
 c00098c:	e0fff815 	stw	r3,-32(fp)
 c000990:	10c00917 	ldw	r3,36(r2)
 c000994:	e0fff915 	stw	r3,-28(fp)
 c000998:	10c00a17 	ldw	r3,40(r2)
 c00099c:	e0fffa15 	stw	r3,-24(fp)
 c0009a0:	10c00b17 	ldw	r3,44(r2)
 c0009a4:	e0fffb15 	stw	r3,-20(fp)
 c0009a8:	10c00c17 	ldw	r3,48(r2)
 c0009ac:	e0fffc15 	stw	r3,-16(fp)
 c0009b0:	10800d17 	ldw	r2,52(r2)
 c0009b4:	e0bffd15 	stw	r2,-12(fp)

    int x, y;

    for (x = 0; x < b.width; ++x)
 c0009b8:	e03ff315 	stw	zero,-52(fp)
 c0009bc:	00003406 	br	c000a90 <TetrisPrintBlock+0x13c>
    {
        for (y = 0; y < b.height; ++y)
 c0009c0:	e03ff415 	stw	zero,-48(fp)
 c0009c4:	00002c06 	br	c000a78 <TetrisPrintBlock+0x124>
        {
            if (b.data[y][x] != ' ')
 c0009c8:	e0bff417 	ldw	r2,-48(fp)
 c0009cc:	01400144 	movi	r5,5
 c0009d0:	1009883a 	mov	r4,r2
 c0009d4:	c00473c0 	call	c00473c <__mulsi3>
 c0009d8:	e13ff304 	addi	r4,fp,-52
 c0009dc:	2087883a 	add	r3,r4,r2
 c0009e0:	e0bff317 	ldw	r2,-52(fp)
 c0009e4:	1885883a 	add	r2,r3,r2
 c0009e8:	10800404 	addi	r2,r2,16
 c0009ec:	10800003 	ldbu	r2,0(r2)
 c0009f0:	10803fcc 	andi	r2,r2,255
 c0009f4:	1080201c 	xori	r2,r2,128
 c0009f8:	10bfe004 	addi	r2,r2,-128
 c0009fc:	10800820 	cmpeqi	r2,r2,32
 c000a00:	10001a1e 	bne	r2,zero,c000a6c <TetrisPrintBlock+0x118>
            {
                state->board[state->activeBlockX + x][state->activeBlockY + y] =
 c000a04:	e0bffe17 	ldw	r2,-8(fp)
 c000a08:	10c00017 	ldw	r3,0(r2)
 c000a0c:	e0bffe17 	ldw	r2,-8(fp)
 c000a10:	11000e17 	ldw	r4,56(r2)
 c000a14:	e0bff317 	ldw	r2,-52(fp)
 c000a18:	2085883a 	add	r2,r4,r2
 c000a1c:	1085883a 	add	r2,r2,r2
 c000a20:	1085883a 	add	r2,r2,r2
 c000a24:	1885883a 	add	r2,r3,r2
 c000a28:	10800017 	ldw	r2,0(r2)
 c000a2c:	e0fffe17 	ldw	r3,-8(fp)
 c000a30:	19000f17 	ldw	r4,60(r3)
 c000a34:	e0fff417 	ldw	r3,-48(fp)
 c000a38:	20c7883a 	add	r3,r4,r3
 c000a3c:	10e1883a 	add	r16,r2,r3
                    b.data[y][x];
 c000a40:	e0bff417 	ldw	r2,-48(fp)
 c000a44:	01400144 	movi	r5,5
 c000a48:	1009883a 	mov	r4,r2
 c000a4c:	c00473c0 	call	c00473c <__mulsi3>
 c000a50:	e13ff304 	addi	r4,fp,-52
 c000a54:	2087883a 	add	r3,r4,r2
 c000a58:	e0bff317 	ldw	r2,-52(fp)
 c000a5c:	1885883a 	add	r2,r3,r2
 c000a60:	10800404 	addi	r2,r2,16
 c000a64:	10800003 	ldbu	r2,0(r2)
    {
        for (y = 0; y < b.height; ++y)
        {
            if (b.data[y][x] != ' ')
            {
                state->board[state->activeBlockX + x][state->activeBlockY + y] =
 c000a68:	80800005 	stb	r2,0(r16)

    int x, y;

    for (x = 0; x < b.width; ++x)
    {
        for (y = 0; y < b.height; ++y)
 c000a6c:	e0bff417 	ldw	r2,-48(fp)
 c000a70:	10800044 	addi	r2,r2,1
 c000a74:	e0bff415 	stw	r2,-48(fp)
 c000a78:	e0bff617 	ldw	r2,-40(fp)
 c000a7c:	e0fff417 	ldw	r3,-48(fp)
 c000a80:	18bfd116 	blt	r3,r2,c0009c8 <__alt_data_end+0xfc0009c8>
{
    TetrisBlock b = state->activeBlock;

    int x, y;

    for (x = 0; x < b.width; ++x)
 c000a84:	e0bff317 	ldw	r2,-52(fp)
 c000a88:	10800044 	addi	r2,r2,1
 c000a8c:	e0bff315 	stw	r2,-52(fp)
 c000a90:	e0bff517 	ldw	r2,-44(fp)
 c000a94:	e0fff317 	ldw	r3,-52(fp)
 c000a98:	18bfc916 	blt	r3,r2,c0009c0 <__alt_data_end+0xfc0009c0>
                state->board[state->activeBlockX + x][state->activeBlockY + y] =
                    b.data[y][x];
            }
        }
    }
}
 c000a9c:	0001883a 	nop
 c000aa0:	e6ffff04 	addi	sp,fp,-4
 c000aa4:	dfc00217 	ldw	ra,8(sp)
 c000aa8:	df000117 	ldw	fp,4(sp)
 c000aac:	dc000017 	ldw	r16,0(sp)
 c000ab0:	dec00304 	addi	sp,sp,12
 c000ab4:	f800283a 	ret

0c000ab8 <TetrisRotateBlock>:

void TetrisRotateBlock(TetrisGameState* state)
{
 c000ab8:	deffe804 	addi	sp,sp,-96
 c000abc:	dfc01715 	stw	ra,92(sp)
 c000ac0:	df001615 	stw	fp,88(sp)
 c000ac4:	dc001515 	stw	r16,84(sp)
 c000ac8:	df001604 	addi	fp,sp,88
 c000acc:	e13ffe15 	stw	r4,-8(fp)
    TetrisBlock b = state->activeBlock;
 c000ad0:	e0bffe17 	ldw	r2,-8(fp)
 c000ad4:	10c00517 	ldw	r3,20(r2)
 c000ad8:	e0ffec15 	stw	r3,-80(fp)
 c000adc:	10c00617 	ldw	r3,24(r2)
 c000ae0:	e0ffed15 	stw	r3,-76(fp)
 c000ae4:	10c00717 	ldw	r3,28(r2)
 c000ae8:	e0ffee15 	stw	r3,-72(fp)
 c000aec:	10c00817 	ldw	r3,32(r2)
 c000af0:	e0ffef15 	stw	r3,-68(fp)
 c000af4:	10c00917 	ldw	r3,36(r2)
 c000af8:	e0fff015 	stw	r3,-64(fp)
 c000afc:	10c00a17 	ldw	r3,40(r2)
 c000b00:	e0fff115 	stw	r3,-60(fp)
 c000b04:	10c00b17 	ldw	r3,44(r2)
 c000b08:	e0fff215 	stw	r3,-56(fp)
 c000b0c:	10c00c17 	ldw	r3,48(r2)
 c000b10:	e0fff315 	stw	r3,-52(fp)
 c000b14:	10800d17 	ldw	r2,52(r2)
 c000b18:	e0bff415 	stw	r2,-48(fp)
    TetrisBlock s = b;
 c000b1c:	e0bfec17 	ldw	r2,-80(fp)
 c000b20:	e0bff515 	stw	r2,-44(fp)
 c000b24:	e0bfed17 	ldw	r2,-76(fp)
 c000b28:	e0bff615 	stw	r2,-40(fp)
 c000b2c:	e0bfee17 	ldw	r2,-72(fp)
 c000b30:	e0bff715 	stw	r2,-36(fp)
 c000b34:	e0bfef17 	ldw	r2,-68(fp)
 c000b38:	e0bff815 	stw	r2,-32(fp)
 c000b3c:	e0bff017 	ldw	r2,-64(fp)
 c000b40:	e0bff915 	stw	r2,-28(fp)
 c000b44:	e0bff117 	ldw	r2,-60(fp)
 c000b48:	e0bffa15 	stw	r2,-24(fp)
 c000b4c:	e0bff217 	ldw	r2,-56(fp)
 c000b50:	e0bffb15 	stw	r2,-20(fp)
 c000b54:	e0bff317 	ldw	r2,-52(fp)
 c000b58:	e0bffc15 	stw	r2,-16(fp)
 c000b5c:	e0bff417 	ldw	r2,-48(fp)
 c000b60:	e0bffd15 	stw	r2,-12(fp)

    int x, y;

    b.width = s.height;
 c000b64:	e0bff617 	ldw	r2,-40(fp)
 c000b68:	e0bfec15 	stw	r2,-80(fp)
    b.height = s.width;
 c000b6c:	e0bff517 	ldw	r2,-44(fp)
 c000b70:	e0bfed15 	stw	r2,-76(fp)

    for (x = 0; x < s.width; ++x)
 c000b74:	e03fea15 	stw	zero,-88(fp)
 c000b78:	00002206 	br	c000c04 <TetrisRotateBlock+0x14c>
    {
        for (y = 0; y < s.height; ++y)
 c000b7c:	e03feb15 	stw	zero,-84(fp)
 c000b80:	00001a06 	br	c000bec <TetrisRotateBlock+0x134>
        {
            b.data[x][y] = s.data[s.height - y - 1][x];
 c000b84:	e0fff617 	ldw	r3,-40(fp)
 c000b88:	e0bfeb17 	ldw	r2,-84(fp)
 c000b8c:	1885c83a 	sub	r2,r3,r2
 c000b90:	10bfffc4 	addi	r2,r2,-1
 c000b94:	01400144 	movi	r5,5
 c000b98:	1009883a 	mov	r4,r2
 c000b9c:	c00473c0 	call	c00473c <__mulsi3>
 c000ba0:	e13fea04 	addi	r4,fp,-88
 c000ba4:	2087883a 	add	r3,r4,r2
 c000ba8:	e0bfea17 	ldw	r2,-88(fp)
 c000bac:	1885883a 	add	r2,r3,r2
 c000bb0:	10800d04 	addi	r2,r2,52
 c000bb4:	14000003 	ldbu	r16,0(r2)
 c000bb8:	e0bfea17 	ldw	r2,-88(fp)
 c000bbc:	01400144 	movi	r5,5
 c000bc0:	1009883a 	mov	r4,r2
 c000bc4:	c00473c0 	call	c00473c <__mulsi3>
 c000bc8:	e13fea04 	addi	r4,fp,-88
 c000bcc:	2087883a 	add	r3,r4,r2
 c000bd0:	e0bfeb17 	ldw	r2,-84(fp)
 c000bd4:	1885883a 	add	r2,r3,r2
 c000bd8:	10800404 	addi	r2,r2,16
 c000bdc:	14000005 	stb	r16,0(r2)
    b.width = s.height;
    b.height = s.width;

    for (x = 0; x < s.width; ++x)
    {
        for (y = 0; y < s.height; ++y)
 c000be0:	e0bfeb17 	ldw	r2,-84(fp)
 c000be4:	10800044 	addi	r2,r2,1
 c000be8:	e0bfeb15 	stw	r2,-84(fp)
 c000bec:	e0bff617 	ldw	r2,-40(fp)
 c000bf0:	e0ffeb17 	ldw	r3,-84(fp)
 c000bf4:	18bfe316 	blt	r3,r2,c000b84 <__alt_data_end+0xfc000b84>
    int x, y;

    b.width = s.height;
    b.height = s.width;

    for (x = 0; x < s.width; ++x)
 c000bf8:	e0bfea17 	ldw	r2,-88(fp)
 c000bfc:	10800044 	addi	r2,r2,1
 c000c00:	e0bfea15 	stw	r2,-88(fp)
 c000c04:	e0bff517 	ldw	r2,-44(fp)
 c000c08:	e0ffea17 	ldw	r3,-88(fp)
 c000c0c:	18bfdb16 	blt	r3,r2,c000b7c <__alt_data_end+0xfc000b7c>
        {
            b.data[x][y] = s.data[s.height - y - 1][x];
        }
    }

    x = state->activeBlockX;
 c000c10:	e0bffe17 	ldw	r2,-8(fp)
 c000c14:	10800e17 	ldw	r2,56(r2)
 c000c18:	e0bfea15 	stw	r2,-88(fp)
    y = state->activeBlockY;
 c000c1c:	e0bffe17 	ldw	r2,-8(fp)
 c000c20:	10800f17 	ldw	r2,60(r2)
 c000c24:	e0bfeb15 	stw	r2,-84(fp)

    state->activeBlockX -= (b.width - s.width) / 2;
 c000c28:	e0bffe17 	ldw	r2,-8(fp)
 c000c2c:	10c00e17 	ldw	r3,56(r2)
 c000c30:	e13fec17 	ldw	r4,-80(fp)
 c000c34:	e0bff517 	ldw	r2,-44(fp)
 c000c38:	2085c83a 	sub	r2,r4,r2
 c000c3c:	1008d7fa 	srli	r4,r2,31
 c000c40:	2085883a 	add	r2,r4,r2
 c000c44:	1005d07a 	srai	r2,r2,1
 c000c48:	1887c83a 	sub	r3,r3,r2
 c000c4c:	e0bffe17 	ldw	r2,-8(fp)
 c000c50:	10c00e15 	stw	r3,56(r2)
    state->activeBlockY -= (b.height - s.height) / 2;
 c000c54:	e0bffe17 	ldw	r2,-8(fp)
 c000c58:	10c00f17 	ldw	r3,60(r2)
 c000c5c:	e13fed17 	ldw	r4,-76(fp)
 c000c60:	e0bff617 	ldw	r2,-40(fp)
 c000c64:	2085c83a 	sub	r2,r4,r2
 c000c68:	1008d7fa 	srli	r4,r2,31
 c000c6c:	2085883a 	add	r2,r4,r2
 c000c70:	1005d07a 	srai	r2,r2,1
 c000c74:	1887c83a 	sub	r3,r3,r2
 c000c78:	e0bffe17 	ldw	r2,-8(fp)
 c000c7c:	10c00f15 	stw	r3,60(r2)
    state->activeBlock = b;
 c000c80:	e0bffe17 	ldw	r2,-8(fp)
 c000c84:	e0ffec17 	ldw	r3,-80(fp)
 c000c88:	10c00515 	stw	r3,20(r2)
 c000c8c:	e0ffed17 	ldw	r3,-76(fp)
 c000c90:	10c00615 	stw	r3,24(r2)
 c000c94:	e0ffee17 	ldw	r3,-72(fp)
 c000c98:	10c00715 	stw	r3,28(r2)
 c000c9c:	e0ffef17 	ldw	r3,-68(fp)
 c000ca0:	10c00815 	stw	r3,32(r2)
 c000ca4:	e0fff017 	ldw	r3,-64(fp)
 c000ca8:	10c00915 	stw	r3,36(r2)
 c000cac:	e0fff117 	ldw	r3,-60(fp)
 c000cb0:	10c00a15 	stw	r3,40(r2)
 c000cb4:	e0fff217 	ldw	r3,-56(fp)
 c000cb8:	10c00b15 	stw	r3,44(r2)
 c000cbc:	e0fff317 	ldw	r3,-52(fp)
 c000cc0:	10c00c15 	stw	r3,48(r2)
 c000cc4:	e0fff417 	ldw	r3,-48(fp)
 c000cc8:	10c00d15 	stw	r3,52(r2)

    if (TetrisCheckCollision(state))
 c000ccc:	e13ffe17 	ldw	r4,-8(fp)
 c000cd0:	c0006c00 	call	c0006c0 <TetrisCheckCollision>
 c000cd4:	10001926 	beq	r2,zero,c000d3c <TetrisRotateBlock+0x284>
    {
        state->activeBlock = s;
 c000cd8:	e0bffe17 	ldw	r2,-8(fp)
 c000cdc:	e0fff517 	ldw	r3,-44(fp)
 c000ce0:	10c00515 	stw	r3,20(r2)
 c000ce4:	e0fff617 	ldw	r3,-40(fp)
 c000ce8:	10c00615 	stw	r3,24(r2)
 c000cec:	e0fff717 	ldw	r3,-36(fp)
 c000cf0:	10c00715 	stw	r3,28(r2)
 c000cf4:	e0fff817 	ldw	r3,-32(fp)
 c000cf8:	10c00815 	stw	r3,32(r2)
 c000cfc:	e0fff917 	ldw	r3,-28(fp)
 c000d00:	10c00915 	stw	r3,36(r2)
 c000d04:	e0fffa17 	ldw	r3,-24(fp)
 c000d08:	10c00a15 	stw	r3,40(r2)
 c000d0c:	e0fffb17 	ldw	r3,-20(fp)
 c000d10:	10c00b15 	stw	r3,44(r2)
 c000d14:	e0fffc17 	ldw	r3,-16(fp)
 c000d18:	10c00c15 	stw	r3,48(r2)
 c000d1c:	e0fffd17 	ldw	r3,-12(fp)
 c000d20:	10c00d15 	stw	r3,52(r2)
        state->activeBlockX = x;
 c000d24:	e0bffe17 	ldw	r2,-8(fp)
 c000d28:	e0ffea17 	ldw	r3,-88(fp)
 c000d2c:	10c00e15 	stw	r3,56(r2)
        state->activeBlockY = y;
 c000d30:	e0bffe17 	ldw	r2,-8(fp)
 c000d34:	e0ffeb17 	ldw	r3,-84(fp)
 c000d38:	10c00f15 	stw	r3,60(r2)
    }
}
 c000d3c:	0001883a 	nop
 c000d40:	e6ffff04 	addi	sp,fp,-4
 c000d44:	dfc00217 	ldw	ra,8(sp)
 c000d48:	df000117 	ldw	fp,4(sp)
 c000d4c:	dc000017 	ldw	r16,0(sp)
 c000d50:	dec00304 	addi	sp,sp,12
 c000d54:	f800283a 	ret

0c000d58 <TetrisFallBlocks>:

void TetrisFallBlocks(TetrisGameState* state)
{
 c000d58:	defffd04 	addi	sp,sp,-12
 c000d5c:	dfc00215 	stw	ra,8(sp)
 c000d60:	df000115 	stw	fp,4(sp)
 c000d64:	df000104 	addi	fp,sp,4
 c000d68:	e13fff15 	stw	r4,-4(fp)
	++state->activeBlockY;
 c000d6c:	e0bfff17 	ldw	r2,-4(fp)
 c000d70:	10800f17 	ldw	r2,60(r2)
 c000d74:	10c00044 	addi	r3,r2,1
 c000d78:	e0bfff17 	ldw	r2,-4(fp)
 c000d7c:	10c00f15 	stw	r3,60(r2)

	if (TetrisCheckCollision(state))
 c000d80:	e13fff17 	ldw	r4,-4(fp)
 c000d84:	c0006c00 	call	c0006c0 <TetrisCheckCollision>
 c000d88:	10000926 	beq	r2,zero,c000db0 <TetrisFallBlocks+0x58>
	{
		--state->activeBlockY;
 c000d8c:	e0bfff17 	ldw	r2,-4(fp)
 c000d90:	10800f17 	ldw	r2,60(r2)
 c000d94:	10ffffc4 	addi	r3,r2,-1
 c000d98:	e0bfff17 	ldw	r2,-4(fp)
 c000d9c:	10c00f15 	stw	r3,60(r2)
		TetrisPrintBlock(state);
 c000da0:	e13fff17 	ldw	r4,-4(fp)
 c000da4:	c0009540 	call	c000954 <TetrisPrintBlock>
		TetrisCreateBlock(state);
 c000da8:	e13fff17 	ldw	r4,-4(fp)
 c000dac:	c0008700 	call	c000870 <TetrisCreateBlock>
	}
}
 c000db0:	0001883a 	nop
 c000db4:	e037883a 	mov	sp,fp
 c000db8:	dfc00117 	ldw	ra,4(sp)
 c000dbc:	df000017 	ldw	fp,0(sp)
 c000dc0:	dec00204 	addi	sp,sp,8
 c000dc4:	f800283a 	ret

0c000dc8 <TetrisClearLine>:

void TetrisClearLine(TetrisGameState* state, int l)
{
 c000dc8:	defffb04 	addi	sp,sp,-20
 c000dcc:	df000415 	stw	fp,16(sp)
 c000dd0:	df000404 	addi	fp,sp,16
 c000dd4:	e13ffe15 	stw	r4,-8(fp)
 c000dd8:	e17fff15 	stw	r5,-4(fp)
    int x, y;

    for (y = l; y > 0; --y)
 c000ddc:	e0bfff17 	ldw	r2,-4(fp)
 c000de0:	e0bffd15 	stw	r2,-12(fp)
 c000de4:	00002106 	br	c000e6c <TetrisClearLine+0xa4>
    {
        for (x = 0; x < state->boardWidth; ++x)
 c000de8:	e03ffc15 	stw	zero,-16(fp)
 c000dec:	00001806 	br	c000e50 <TetrisClearLine+0x88>
        {
            state->board[x][y] = state->board[x][y - 1];
 c000df0:	e0bffe17 	ldw	r2,-8(fp)
 c000df4:	10c00017 	ldw	r3,0(r2)
 c000df8:	e0bffc17 	ldw	r2,-16(fp)
 c000dfc:	1085883a 	add	r2,r2,r2
 c000e00:	1085883a 	add	r2,r2,r2
 c000e04:	1885883a 	add	r2,r3,r2
 c000e08:	10c00017 	ldw	r3,0(r2)
 c000e0c:	e0bffd17 	ldw	r2,-12(fp)
 c000e10:	1887883a 	add	r3,r3,r2
 c000e14:	e0bffe17 	ldw	r2,-8(fp)
 c000e18:	11000017 	ldw	r4,0(r2)
 c000e1c:	e0bffc17 	ldw	r2,-16(fp)
 c000e20:	1085883a 	add	r2,r2,r2
 c000e24:	1085883a 	add	r2,r2,r2
 c000e28:	2085883a 	add	r2,r4,r2
 c000e2c:	11000017 	ldw	r4,0(r2)
 c000e30:	e0bffd17 	ldw	r2,-12(fp)
 c000e34:	10bfffc4 	addi	r2,r2,-1
 c000e38:	2085883a 	add	r2,r4,r2
 c000e3c:	10800003 	ldbu	r2,0(r2)
 c000e40:	18800005 	stb	r2,0(r3)
{
    int x, y;

    for (y = l; y > 0; --y)
    {
        for (x = 0; x < state->boardWidth; ++x)
 c000e44:	e0bffc17 	ldw	r2,-16(fp)
 c000e48:	10800044 	addi	r2,r2,1
 c000e4c:	e0bffc15 	stw	r2,-16(fp)
 c000e50:	e0bffe17 	ldw	r2,-8(fp)
 c000e54:	10800117 	ldw	r2,4(r2)
 c000e58:	e0fffc17 	ldw	r3,-16(fp)
 c000e5c:	18bfe416 	blt	r3,r2,c000df0 <__alt_data_end+0xfc000df0>

void TetrisClearLine(TetrisGameState* state, int l)
{
    int x, y;

    for (y = l; y > 0; --y)
 c000e60:	e0bffd17 	ldw	r2,-12(fp)
 c000e64:	10bfffc4 	addi	r2,r2,-1
 c000e68:	e0bffd15 	stw	r2,-12(fp)
 c000e6c:	e0bffd17 	ldw	r2,-12(fp)
 c000e70:	00bfdd16 	blt	zero,r2,c000de8 <__alt_data_end+0xfc000de8>
        {
            state->board[x][y] = state->board[x][y - 1];
        }
    }

    for (x = 0; x < state->boardWidth; ++x)
 c000e74:	e03ffc15 	stw	zero,-16(fp)
 c000e78:	00000c06 	br	c000eac <TetrisClearLine+0xe4>
    {
        state->board[x][0] = ' ';
 c000e7c:	e0bffe17 	ldw	r2,-8(fp)
 c000e80:	10c00017 	ldw	r3,0(r2)
 c000e84:	e0bffc17 	ldw	r2,-16(fp)
 c000e88:	1085883a 	add	r2,r2,r2
 c000e8c:	1085883a 	add	r2,r2,r2
 c000e90:	1885883a 	add	r2,r3,r2
 c000e94:	10800017 	ldw	r2,0(r2)
 c000e98:	00c00804 	movi	r3,32
 c000e9c:	10c00005 	stb	r3,0(r2)
        {
            state->board[x][y] = state->board[x][y - 1];
        }
    }

    for (x = 0; x < state->boardWidth; ++x)
 c000ea0:	e0bffc17 	ldw	r2,-16(fp)
 c000ea4:	10800044 	addi	r2,r2,1
 c000ea8:	e0bffc15 	stw	r2,-16(fp)
 c000eac:	e0bffe17 	ldw	r2,-8(fp)
 c000eb0:	10800117 	ldw	r2,4(r2)
 c000eb4:	e0fffc17 	ldw	r3,-16(fp)
 c000eb8:	18bff016 	blt	r3,r2,c000e7c <__alt_data_end+0xfc000e7c>
    {
        state->board[x][0] = ' ';
    }
}
 c000ebc:	0001883a 	nop
 c000ec0:	e037883a 	mov	sp,fp
 c000ec4:	df000017 	ldw	fp,0(sp)
 c000ec8:	dec00104 	addi	sp,sp,4
 c000ecc:	f800283a 	ret

0c000ed0 <TetrisCheckLineComplete>:

void TetrisCheckLineComplete(TetrisGameState* state)
{
 c000ed0:	defffa04 	addi	sp,sp,-24
 c000ed4:	dfc00515 	stw	ra,20(sp)
 c000ed8:	df000415 	stw	fp,16(sp)
 c000edc:	df000404 	addi	fp,sp,16
 c000ee0:	e13fff15 	stw	r4,-4(fp)
    int x, y, l;

    for (y = state->boardHeight - 1; y >= 0; --y)
 c000ee4:	e0bfff17 	ldw	r2,-4(fp)
 c000ee8:	10800217 	ldw	r2,8(r2)
 c000eec:	10bfffc4 	addi	r2,r2,-1
 c000ef0:	e0bffd15 	stw	r2,-12(fp)
 c000ef4:	00003406 	br	c000fc8 <TetrisCheckLineComplete+0xf8>
    {
        l = 1;
 c000ef8:	00800044 	movi	r2,1
 c000efc:	e0bffe15 	stw	r2,-8(fp)

        for (x = 0; x < state->boardWidth && l; ++x)
 c000f00:	e03ffc15 	stw	zero,-16(fp)
 c000f04:	00001306 	br	c000f54 <TetrisCheckLineComplete+0x84>
        {
            if (state->board[x][y] == ' ')
 c000f08:	e0bfff17 	ldw	r2,-4(fp)
 c000f0c:	10c00017 	ldw	r3,0(r2)
 c000f10:	e0bffc17 	ldw	r2,-16(fp)
 c000f14:	1085883a 	add	r2,r2,r2
 c000f18:	1085883a 	add	r2,r2,r2
 c000f1c:	1885883a 	add	r2,r3,r2
 c000f20:	10c00017 	ldw	r3,0(r2)
 c000f24:	e0bffd17 	ldw	r2,-12(fp)
 c000f28:	1885883a 	add	r2,r3,r2
 c000f2c:	10800003 	ldbu	r2,0(r2)
 c000f30:	10803fcc 	andi	r2,r2,255
 c000f34:	1080201c 	xori	r2,r2,128
 c000f38:	10bfe004 	addi	r2,r2,-128
 c000f3c:	10800818 	cmpnei	r2,r2,32
 c000f40:	1000011e 	bne	r2,zero,c000f48 <TetrisCheckLineComplete+0x78>
            //if (state->colorValue[x][y] == ' ')
            {
                l = 0;
 c000f44:	e03ffe15 	stw	zero,-8(fp)

    for (y = state->boardHeight - 1; y >= 0; --y)
    {
        l = 1;

        for (x = 0; x < state->boardWidth && l; ++x)
 c000f48:	e0bffc17 	ldw	r2,-16(fp)
 c000f4c:	10800044 	addi	r2,r2,1
 c000f50:	e0bffc15 	stw	r2,-16(fp)
 c000f54:	e0bfff17 	ldw	r2,-4(fp)
 c000f58:	10800117 	ldw	r2,4(r2)
 c000f5c:	e0fffc17 	ldw	r3,-16(fp)
 c000f60:	1880020e 	bge	r3,r2,c000f6c <TetrisCheckLineComplete+0x9c>
 c000f64:	e0bffe17 	ldw	r2,-8(fp)
 c000f68:	103fe71e 	bne	r2,zero,c000f08 <__alt_data_end+0xfc000f08>
            {
                l = 0;
            }
        }

        if (l)
 c000f6c:	e0bffe17 	ldw	r2,-8(fp)
 c000f70:	10001226 	beq	r2,zero,c000fbc <TetrisCheckLineComplete+0xec>
        {
            ++(state->completedLines);
 c000f74:	e0bfff17 	ldw	r2,-4(fp)
 c000f78:	10800417 	ldw	r2,16(r2)
 c000f7c:	10c00044 	addi	r3,r2,1
 c000f80:	e0bfff17 	ldw	r2,-4(fp)
 c000f84:	10c00415 	stw	r3,16(r2)
            TetrisClearLine(state, y);
 c000f88:	e17ffd17 	ldw	r5,-12(fp)
 c000f8c:	e13fff17 	ldw	r4,-4(fp)
 c000f90:	c000dc80 	call	c000dc8 <TetrisClearLine>
            printf("%d line(s) completed at %d\n\n", state->completedLines, y);
 c000f94:	e0bfff17 	ldw	r2,-4(fp)
 c000f98:	10800417 	ldw	r2,16(r2)
 c000f9c:	e1bffd17 	ldw	r6,-12(fp)
 c000fa0:	100b883a 	mov	r5,r2
 c000fa4:	010300b4 	movhi	r4,3074
 c000fa8:	2135da04 	addi	r4,r4,-10392
 c000fac:	c004fc80 	call	c004fc8 <printf>
            ++y;
 c000fb0:	e0bffd17 	ldw	r2,-12(fp)
 c000fb4:	10800044 	addi	r2,r2,1
 c000fb8:	e0bffd15 	stw	r2,-12(fp)

void TetrisCheckLineComplete(TetrisGameState* state)
{
    int x, y, l;

    for (y = state->boardHeight - 1; y >= 0; --y)
 c000fbc:	e0bffd17 	ldw	r2,-12(fp)
 c000fc0:	10bfffc4 	addi	r2,r2,-1
 c000fc4:	e0bffd15 	stw	r2,-12(fp)
 c000fc8:	e0bffd17 	ldw	r2,-12(fp)
 c000fcc:	103fca0e 	bge	r2,zero,c000ef8 <__alt_data_end+0xfc000ef8>
            TetrisClearLine(state, y);
            printf("%d line(s) completed at %d\n\n", state->completedLines, y);
            ++y;
        }
    }
}
 c000fd0:	0001883a 	nop
 c000fd4:	e037883a 	mov	sp,fp
 c000fd8:	dfc00117 	ldw	ra,4(sp)
 c000fdc:	df000017 	ldw	fp,0(sp)
 c000fe0:	dec00204 	addi	sp,sp,8
 c000fe4:	f800283a 	ret

0c000fe8 <TetrisInputLeft>:

void TetrisInputLeft(TetrisGameState* state)
{
 c000fe8:	defffd04 	addi	sp,sp,-12
 c000fec:	dfc00215 	stw	ra,8(sp)
 c000ff0:	df000115 	stw	fp,4(sp)
 c000ff4:	df000104 	addi	fp,sp,4
 c000ff8:	e13fff15 	stw	r4,-4(fp)
    --state->activeBlockX;
 c000ffc:	e0bfff17 	ldw	r2,-4(fp)
 c001000:	10800e17 	ldw	r2,56(r2)
 c001004:	10ffffc4 	addi	r3,r2,-1
 c001008:	e0bfff17 	ldw	r2,-4(fp)
 c00100c:	10c00e15 	stw	r3,56(r2)

    if (TetrisCheckCollision(state))
 c001010:	e13fff17 	ldw	r4,-4(fp)
 c001014:	c0006c00 	call	c0006c0 <TetrisCheckCollision>
 c001018:	10000526 	beq	r2,zero,c001030 <TetrisInputLeft+0x48>
    {
        ++state->activeBlockX;
 c00101c:	e0bfff17 	ldw	r2,-4(fp)
 c001020:	10800e17 	ldw	r2,56(r2)
 c001024:	10c00044 	addi	r3,r2,1
 c001028:	e0bfff17 	ldw	r2,-4(fp)
 c00102c:	10c00e15 	stw	r3,56(r2)
    }
}
 c001030:	0001883a 	nop
 c001034:	e037883a 	mov	sp,fp
 c001038:	dfc00117 	ldw	ra,4(sp)
 c00103c:	df000017 	ldw	fp,0(sp)
 c001040:	dec00204 	addi	sp,sp,8
 c001044:	f800283a 	ret

0c001048 <TetrisInputRight>:

void TetrisInputRight(TetrisGameState* state)
{
 c001048:	defffd04 	addi	sp,sp,-12
 c00104c:	dfc00215 	stw	ra,8(sp)
 c001050:	df000115 	stw	fp,4(sp)
 c001054:	df000104 	addi	fp,sp,4
 c001058:	e13fff15 	stw	r4,-4(fp)
    ++state->activeBlockX;
 c00105c:	e0bfff17 	ldw	r2,-4(fp)
 c001060:	10800e17 	ldw	r2,56(r2)
 c001064:	10c00044 	addi	r3,r2,1
 c001068:	e0bfff17 	ldw	r2,-4(fp)
 c00106c:	10c00e15 	stw	r3,56(r2)

    if (TetrisCheckCollision(state))
 c001070:	e13fff17 	ldw	r4,-4(fp)
 c001074:	c0006c00 	call	c0006c0 <TetrisCheckCollision>
 c001078:	10000526 	beq	r2,zero,c001090 <TetrisInputRight+0x48>
    {
        --state->activeBlockX;
 c00107c:	e0bfff17 	ldw	r2,-4(fp)
 c001080:	10800e17 	ldw	r2,56(r2)
 c001084:	10ffffc4 	addi	r3,r2,-1
 c001088:	e0bfff17 	ldw	r2,-4(fp)
 c00108c:	10c00e15 	stw	r3,56(r2)
    }
}
 c001090:	0001883a 	nop
 c001094:	e037883a 	mov	sp,fp
 c001098:	dfc00117 	ldw	ra,4(sp)
 c00109c:	df000017 	ldw	fp,0(sp)
 c0010a0:	dec00204 	addi	sp,sp,8
 c0010a4:	f800283a 	ret

0c0010a8 <TetrisMain>:

void TetrisMain(int boardWidth, int boardHeight)
{
 c0010a8:	deffeb04 	addi	sp,sp,-84
 c0010ac:	dfc01415 	stw	ra,80(sp)
 c0010b0:	df001315 	stw	fp,76(sp)
 c0010b4:	df001304 	addi	fp,sp,76
 c0010b8:	e13ffe15 	stw	r4,-8(fp)
 c0010bc:	e17fff15 	stw	r5,-4(fp)
    TetrisGameState state;

    TetrisInitialize(&state, boardWidth, boardHeight);
 c0010c0:	e1bfff17 	ldw	r6,-4(fp)
 c0010c4:	e17ffe17 	ldw	r5,-8(fp)
 c0010c8:	e13fed04 	addi	r4,fp,-76
 c0010cc:	c0003240 	call	c000324 <TetrisInitialize>
    TetrisCreateBlock(&state);
 c0010d0:	e13fed04 	addi	r4,fp,-76
 c0010d4:	c0008700 	call	c000870 <TetrisCreateBlock>

    while (!state.dead)
 c0010d8:	00002706 	br	c001178 <TetrisMain+0xd0>
    {
        TetrisPrintBoard(&state);
 c0010dc:	e13fed04 	addi	r4,fp,-76
 c0010e0:	c0004c00 	call	c0004c0 <TetrisPrintBoard>
        TetrisFallBlocks(&state);
 c0010e4:	e13fed04 	addi	r4,fp,-76
 c0010e8:	c000d580 	call	c000d58 <TetrisFallBlocks>
        TetrisCheckLineComplete(&state);
 c0010ec:	e13fed04 	addi	r4,fp,-76
 c0010f0:	c000ed00 	call	c000ed0 <TetrisCheckLineComplete>

        char cmd;
        scanf("%c", &cmd);
 c0010f4:	e0bffd04 	addi	r2,fp,-12
 c0010f8:	100b883a 	mov	r5,r2
 c0010fc:	010300b4 	movhi	r4,3074
 c001100:	2135e204 	addi	r4,r4,-10360
 c001104:	c0051c80 	call	c0051c8 <scanf>

        switch (cmd)
 c001108:	e0bffd03 	ldbu	r2,-12(fp)
 c00110c:	10803fcc 	andi	r2,r2,255
 c001110:	1080201c 	xori	r2,r2,128
 c001114:	10bfe004 	addi	r2,r2,-128
 c001118:	10c01920 	cmpeqi	r3,r2,100
 c00111c:	18000d1e 	bne	r3,zero,c001154 <TetrisMain+0xac>
 c001120:	10c01948 	cmpgei	r3,r2,101
 c001124:	1800031e 	bne	r3,zero,c001134 <TetrisMain+0x8c>
 c001128:	10801860 	cmpeqi	r2,r2,97
 c00112c:	1000061e 	bne	r2,zero,c001148 <TetrisMain+0xa0>
 c001130:	00001106 	br	c001178 <TetrisMain+0xd0>
 c001134:	10c01ce0 	cmpeqi	r3,r2,115
 c001138:	1800091e 	bne	r3,zero,c001160 <TetrisMain+0xb8>
 c00113c:	10801de0 	cmpeqi	r2,r2,119
 c001140:	10000a1e 	bne	r2,zero,c00116c <TetrisMain+0xc4>
 c001144:	00000c06 	br	c001178 <TetrisMain+0xd0>
        {
            case 'a':
            {
                TetrisInputLeft(&state);
 c001148:	e13fed04 	addi	r4,fp,-76
 c00114c:	c000fe80 	call	c000fe8 <TetrisInputLeft>
                break;
 c001150:	00000906 	br	c001178 <TetrisMain+0xd0>
            }

            case 'd':
            {
                TetrisInputRight(&state);
 c001154:	e13fed04 	addi	r4,fp,-76
 c001158:	c0010480 	call	c001048 <TetrisInputRight>
                break;
 c00115c:	00000606 	br	c001178 <TetrisMain+0xd0>
            }

            case 's':
            {
                TetrisFallBlocks(&state);
 c001160:	e13fed04 	addi	r4,fp,-76
 c001164:	c000d580 	call	c000d58 <TetrisFallBlocks>
                break;
 c001168:	00000306 	br	c001178 <TetrisMain+0xd0>
            }

            case 'w':
            {
                TetrisRotateBlock(&state);
 c00116c:	e13fed04 	addi	r4,fp,-76
 c001170:	c000ab80 	call	c000ab8 <TetrisRotateBlock>
                break;
 c001174:	0001883a 	nop
    TetrisGameState state;

    TetrisInitialize(&state, boardWidth, boardHeight);
    TetrisCreateBlock(&state);

    while (!state.dead)
 c001178:	e0bff017 	ldw	r2,-64(fp)
 c00117c:	103fd726 	beq	r2,zero,c0010dc <__alt_data_end+0xfc0010dc>
                break;
            }
        }
    }

    TetrisPrintBoard(&state);
 c001180:	e13fed04 	addi	r4,fp,-76
 c001184:	c0004c00 	call	c0004c0 <TetrisPrintBoard>
    printf("GAME OVER\n");
 c001188:	010300b4 	movhi	r4,3074
 c00118c:	2135e304 	addi	r4,r4,-10356
 c001190:	c0050e40 	call	c0050e4 <puts>

    TetrisCleanup(&state);
 c001194:	e13fed04 	addi	r4,fp,-76
 c001198:	c00043c0 	call	c00043c <TetrisCleanup>
}
 c00119c:	0001883a 	nop
 c0011a0:	e037883a 	mov	sp,fp
 c0011a4:	dfc00117 	ldw	ra,4(sp)
 c0011a8:	df000017 	ldw	fp,0(sp)
 c0011ac:	dec00204 	addi	sp,sp,8
 c0011b0:	f800283a 	ret

0c0011b4 <GetDriverandReport>:

static BYTE addr = 1; 				//hard-wired USB address
const char* const devclasses[] = { " Uninitialized", " HID Keyboard", " HID Mouse", " Mass storage" };


BYTE GetDriverandReport() {
 c0011b4:	defff604 	addi	sp,sp,-40
 c0011b8:	dfc00915 	stw	ra,36(sp)
 c0011bc:	df000815 	stw	fp,32(sp)
 c0011c0:	df000804 	addi	fp,sp,32
	BYTE i;
	BYTE rcode;
	BYTE device = 0xFF;
 c0011c4:	00bfffc4 	movi	r2,-1
 c0011c8:	e0bffd45 	stb	r2,-11(fp)
	BYTE tmpbyte;

	DEV_RECORD* tpl_ptr;
	printf("Reached USB_STATE_RUNNING (0x40)\n");
 c0011cc:	010300b4 	movhi	r4,3074
 c0011d0:	2135f904 	addi	r4,r4,-10268
 c0011d4:	c0050e40 	call	c0050e4 <puts>
	for (i = 1; i < USB_NUMDEVICES; i++) {
 c0011d8:	00800044 	movi	r2,1
 c0011dc:	e0bffd05 	stb	r2,-12(fp)
 c0011e0:	00001f06 	br	c001260 <GetDriverandReport+0xac>
		tpl_ptr = GetDevtable(i);
 c0011e4:	e0bffd03 	ldbu	r2,-12(fp)
 c0011e8:	1009883a 	mov	r4,r2
 c0011ec:	c0044cc0 	call	c0044cc <GetDevtable>
 c0011f0:	e0bffe15 	stw	r2,-8(fp)
		if (tpl_ptr->epinfo != NULL) {
 c0011f4:	e0bffe17 	ldw	r2,-8(fp)
 c0011f8:	10800017 	ldw	r2,0(r2)
 c0011fc:	10001526 	beq	r2,zero,c001254 <GetDriverandReport+0xa0>
			printf("Device: %d", i);
 c001200:	e0bffd03 	ldbu	r2,-12(fp)
 c001204:	100b883a 	mov	r5,r2
 c001208:	010300b4 	movhi	r4,3074
 c00120c:	21360204 	addi	r4,r4,-10232
 c001210:	c004fc80 	call	c004fc8 <printf>
			printf("%s \n", devclasses[tpl_ptr->devclass]);
 c001214:	e0bffe17 	ldw	r2,-8(fp)
 c001218:	10800103 	ldbu	r2,4(r2)
 c00121c:	10c03fcc 	andi	r3,r2,255
 c001220:	008300b4 	movhi	r2,3074
 c001224:	10b5f504 	addi	r2,r2,-10284
 c001228:	18c7883a 	add	r3,r3,r3
 c00122c:	18c7883a 	add	r3,r3,r3
 c001230:	10c5883a 	add	r2,r2,r3
 c001234:	10800017 	ldw	r2,0(r2)
 c001238:	100b883a 	mov	r5,r2
 c00123c:	010300b4 	movhi	r4,3074
 c001240:	21360504 	addi	r4,r4,-10220
 c001244:	c004fc80 	call	c004fc8 <printf>
			device = tpl_ptr->devclass;
 c001248:	e0bffe17 	ldw	r2,-8(fp)
 c00124c:	10800103 	ldbu	r2,4(r2)
 c001250:	e0bffd45 	stb	r2,-11(fp)
	BYTE device = 0xFF;
	BYTE tmpbyte;

	DEV_RECORD* tpl_ptr;
	printf("Reached USB_STATE_RUNNING (0x40)\n");
	for (i = 1; i < USB_NUMDEVICES; i++) {
 c001254:	e0bffd03 	ldbu	r2,-12(fp)
 c001258:	10800044 	addi	r2,r2,1
 c00125c:	e0bffd05 	stb	r2,-12(fp)
 c001260:	e0bffd03 	ldbu	r2,-12(fp)
 c001264:	10800230 	cmpltui	r2,r2,8
 c001268:	103fde1e 	bne	r2,zero,c0011e4 <__alt_data_end+0xfc0011e4>
			printf("%s \n", devclasses[tpl_ptr->devclass]);
			device = tpl_ptr->devclass;
		}
	}
	//Query rate and protocol
	rcode = XferGetIdle(addr, 0, hid_device.interface, 0, &tmpbyte);
 c00126c:	d0a00003 	ldbu	r2,-32768(gp)
 c001270:	11003fcc 	andi	r4,r2,255
 c001274:	d0a79f43 	ldbu	r2,-24963(gp)
 c001278:	10803fcc 	andi	r2,r2,255
 c00127c:	e0ffff44 	addi	r3,fp,-3
 c001280:	d8c00415 	stw	r3,16(sp)
 c001284:	00c00044 	movi	r3,1
 c001288:	d8c00315 	stw	r3,12(sp)
 c00128c:	d8800215 	stw	r2,8(sp)
 c001290:	d8000115 	stw	zero,4(sp)
 c001294:	d8000015 	stw	zero,0(sp)
 c001298:	01c00084 	movi	r7,2
 c00129c:	01802844 	movi	r6,161
 c0012a0:	000b883a 	mov	r5,zero
 c0012a4:	c0036f00 	call	c0036f0 <XferCtrlReq>
 c0012a8:	e0bfff05 	stb	r2,-4(fp)
	if (rcode) {   //error handling
 c0012ac:	e0bfff03 	ldbu	r2,-4(fp)
 c0012b0:	10000926 	beq	r2,zero,c0012d8 <GetDriverandReport+0x124>
		printf("GetIdle Error. Error code: ");
 c0012b4:	010300b4 	movhi	r4,3074
 c0012b8:	21360704 	addi	r4,r4,-10212
 c0012bc:	c004fc80 	call	c004fc8 <printf>
		printf("%x \n", rcode);
 c0012c0:	e0bfff03 	ldbu	r2,-4(fp)
 c0012c4:	100b883a 	mov	r5,r2
 c0012c8:	010300b4 	movhi	r4,3074
 c0012cc:	21360e04 	addi	r4,r4,-10184
 c0012d0:	c004fc80 	call	c004fc8 <printf>
 c0012d4:	00000906 	br	c0012fc <GetDriverandReport+0x148>
	} else {
		printf("Update rate: ");
 c0012d8:	010300b4 	movhi	r4,3074
 c0012dc:	21361004 	addi	r4,r4,-10176
 c0012e0:	c004fc80 	call	c004fc8 <printf>
		printf("%x \n", tmpbyte);
 c0012e4:	e0bfff43 	ldbu	r2,-3(fp)
 c0012e8:	10803fcc 	andi	r2,r2,255
 c0012ec:	100b883a 	mov	r5,r2
 c0012f0:	010300b4 	movhi	r4,3074
 c0012f4:	21360e04 	addi	r4,r4,-10184
 c0012f8:	c004fc80 	call	c004fc8 <printf>
	}
	printf("Protocol: ");
 c0012fc:	010300b4 	movhi	r4,3074
 c001300:	21361404 	addi	r4,r4,-10160
 c001304:	c004fc80 	call	c004fc8 <printf>
	rcode = XferGetProto(addr, 0, hid_device.interface, &tmpbyte);
 c001308:	d0a00003 	ldbu	r2,-32768(gp)
 c00130c:	11003fcc 	andi	r4,r2,255
 c001310:	d0a79f43 	ldbu	r2,-24963(gp)
 c001314:	10803fcc 	andi	r2,r2,255
 c001318:	e0ffff44 	addi	r3,fp,-3
 c00131c:	d8c00415 	stw	r3,16(sp)
 c001320:	00c00044 	movi	r3,1
 c001324:	d8c00315 	stw	r3,12(sp)
 c001328:	d8800215 	stw	r2,8(sp)
 c00132c:	d8000115 	stw	zero,4(sp)
 c001330:	d8000015 	stw	zero,0(sp)
 c001334:	01c000c4 	movi	r7,3
 c001338:	01802844 	movi	r6,161
 c00133c:	000b883a 	mov	r5,zero
 c001340:	c0036f00 	call	c0036f0 <XferCtrlReq>
 c001344:	e0bfff05 	stb	r2,-4(fp)
	if (rcode) {   //error handling
 c001348:	e0bfff03 	ldbu	r2,-4(fp)
 c00134c:	10000926 	beq	r2,zero,c001374 <GetDriverandReport+0x1c0>
		printf("GetProto Error. Error code ");
 c001350:	010300b4 	movhi	r4,3074
 c001354:	21361704 	addi	r4,r4,-10148
 c001358:	c004fc80 	call	c004fc8 <printf>
		printf("%x \n", rcode);
 c00135c:	e0bfff03 	ldbu	r2,-4(fp)
 c001360:	100b883a 	mov	r5,r2
 c001364:	010300b4 	movhi	r4,3074
 c001368:	21360e04 	addi	r4,r4,-10184
 c00136c:	c004fc80 	call	c004fc8 <printf>
 c001370:	00000606 	br	c00138c <GetDriverandReport+0x1d8>
	} else {
		printf("%d \n", tmpbyte);
 c001374:	e0bfff43 	ldbu	r2,-3(fp)
 c001378:	10803fcc 	andi	r2,r2,255
 c00137c:	100b883a 	mov	r5,r2
 c001380:	010300b4 	movhi	r4,3074
 c001384:	21361e04 	addi	r4,r4,-10120
 c001388:	c004fc80 	call	c004fc8 <printf>
	}
	return device;
 c00138c:	e0bffd43 	ldbu	r2,-11(fp)
}
 c001390:	e037883a 	mov	sp,fp
 c001394:	dfc00117 	ldw	ra,4(sp)
 c001398:	df000017 	ldw	fp,0(sp)
 c00139c:	dec00204 	addi	sp,sp,8
 c0013a0:	f800283a 	ret

0c0013a4 <setLED>:

void setLED(int LED) {
 c0013a4:	defffe04 	addi	sp,sp,-8
 c0013a8:	df000115 	stw	fp,4(sp)
 c0013ac:	df000104 	addi	fp,sp,4
 c0013b0:	e13fff15 	stw	r4,-4(fp)
	IOWR_ALTERA_AVALON_PIO_DATA(LEDS_PIO_BASE,
 c0013b4:	00806804 	movi	r2,416
 c0013b8:	10c00037 	ldwio	r3,0(r2)
 c0013bc:	01000044 	movi	r4,1
 c0013c0:	e0bfff17 	ldw	r2,-4(fp)
 c0013c4:	2084983a 	sll	r2,r4,r2
 c0013c8:	1886b03a 	or	r3,r3,r2
 c0013cc:	00806804 	movi	r2,416
 c0013d0:	10c00035 	stwio	r3,0(r2)
			(IORD_ALTERA_AVALON_PIO_DATA(LEDS_PIO_BASE) | (0x001 << LED)));
}
 c0013d4:	0001883a 	nop
 c0013d8:	e037883a 	mov	sp,fp
 c0013dc:	df000017 	ldw	fp,0(sp)
 c0013e0:	dec00104 	addi	sp,sp,4
 c0013e4:	f800283a 	ret

0c0013e8 <clearLED>:

void clearLED(int LED) {
 c0013e8:	defffe04 	addi	sp,sp,-8
 c0013ec:	df000115 	stw	fp,4(sp)
 c0013f0:	df000104 	addi	fp,sp,4
 c0013f4:	e13fff15 	stw	r4,-4(fp)
	IOWR_ALTERA_AVALON_PIO_DATA(LEDS_PIO_BASE,
 c0013f8:	00806804 	movi	r2,416
 c0013fc:	10c00037 	ldwio	r3,0(r2)
 c001400:	01000044 	movi	r4,1
 c001404:	e0bfff17 	ldw	r2,-4(fp)
 c001408:	2084983a 	sll	r2,r4,r2
 c00140c:	0084303a 	nor	r2,zero,r2
 c001410:	1886703a 	and	r3,r3,r2
 c001414:	00806804 	movi	r2,416
 c001418:	10c00035 	stwio	r3,0(r2)
			(IORD_ALTERA_AVALON_PIO_DATA(LEDS_PIO_BASE) & ~(0x001 << LED)));

}
 c00141c:	0001883a 	nop
 c001420:	e037883a 	mov	sp,fp
 c001424:	df000017 	ldw	fp,0(sp)
 c001428:	dec00104 	addi	sp,sp,4
 c00142c:	f800283a 	ret

0c001430 <printSignedHex0>:

void printSignedHex0(signed char value) {
 c001430:	defffc04 	addi	sp,sp,-16
 c001434:	dfc00315 	stw	ra,12(sp)
 c001438:	df000215 	stw	fp,8(sp)
 c00143c:	df000204 	addi	fp,sp,8
 c001440:	2005883a 	mov	r2,r4
 c001444:	e0bfff05 	stb	r2,-4(fp)
	BYTE tens = 0;
 c001448:	e03ffe05 	stb	zero,-8(fp)
	BYTE ones = 0;
 c00144c:	e03ffe45 	stb	zero,-7(fp)
	WORD pio_val = IORD_ALTERA_AVALON_PIO_DATA(HEX_DIGITS_PIO_BASE);
 c001450:	00805404 	movi	r2,336
 c001454:	10800037 	ldwio	r2,0(r2)
 c001458:	e0bffe8d 	sth	r2,-6(fp)
	if (value < 0) {
 c00145c:	e0bfff07 	ldb	r2,-4(fp)
 c001460:	1000060e 	bge	r2,zero,c00147c <printSignedHex0+0x4c>
		setLED(11);
 c001464:	010002c4 	movi	r4,11
 c001468:	c0013a40 	call	c0013a4 <setLED>
		value = -value;
 c00146c:	e0bfff03 	ldbu	r2,-4(fp)
 c001470:	0085c83a 	sub	r2,zero,r2
 c001474:	e0bfff05 	stb	r2,-4(fp)
 c001478:	00000206 	br	c001484 <printSignedHex0+0x54>
	} else {
		clearLED(11);
 c00147c:	010002c4 	movi	r4,11
 c001480:	c0013e80 	call	c0013e8 <clearLED>
	}
	//handled hundreds
	if (value / 100)
 c001484:	e0bfff03 	ldbu	r2,-4(fp)
 c001488:	108018c4 	addi	r2,r2,99
 c00148c:	10803fcc 	andi	r2,r2,255
 c001490:	108031f0 	cmpltui	r2,r2,199
 c001494:	1000031e 	bne	r2,zero,c0014a4 <printSignedHex0+0x74>
		setLED(13);
 c001498:	01000344 	movi	r4,13
 c00149c:	c0013a40 	call	c0013a4 <setLED>
 c0014a0:	00000206 	br	c0014ac <printSignedHex0+0x7c>
	else
		clearLED(13);
 c0014a4:	01000344 	movi	r4,13
 c0014a8:	c0013e80 	call	c0013e8 <clearLED>

	value = value % 100;
 c0014ac:	e0bfff07 	ldb	r2,-4(fp)
 c0014b0:	01401904 	movi	r5,100
 c0014b4:	1009883a 	mov	r4,r2
 c0014b8:	c00460c0 	call	c00460c <__modsi3>
 c0014bc:	e0bfff05 	stb	r2,-4(fp)
	tens = value / 10;
 c0014c0:	e0bfff07 	ldb	r2,-4(fp)
 c0014c4:	01400284 	movi	r5,10
 c0014c8:	1009883a 	mov	r4,r2
 c0014cc:	c0045880 	call	c004588 <__divsi3>
 c0014d0:	e0bffe05 	stb	r2,-8(fp)
	ones = value % 10;
 c0014d4:	e0bfff07 	ldb	r2,-4(fp)
 c0014d8:	01400284 	movi	r5,10
 c0014dc:	1009883a 	mov	r4,r2
 c0014e0:	c00460c0 	call	c00460c <__modsi3>
 c0014e4:	e0bffe45 	stb	r2,-7(fp)

	pio_val &= 0x00FF;
 c0014e8:	e0bffe8b 	ldhu	r2,-6(fp)
 c0014ec:	10803fcc 	andi	r2,r2,255
 c0014f0:	e0bffe8d 	sth	r2,-6(fp)
	pio_val |= (tens << 12);
 c0014f4:	e0bffe03 	ldbu	r2,-8(fp)
 c0014f8:	1004933a 	slli	r2,r2,12
 c0014fc:	1007883a 	mov	r3,r2
 c001500:	e0bffe8b 	ldhu	r2,-6(fp)
 c001504:	1884b03a 	or	r2,r3,r2
 c001508:	e0bffe8d 	sth	r2,-6(fp)
	pio_val |= (ones << 8);
 c00150c:	e0bffe43 	ldbu	r2,-7(fp)
 c001510:	1004923a 	slli	r2,r2,8
 c001514:	1007883a 	mov	r3,r2
 c001518:	e0bffe8b 	ldhu	r2,-6(fp)
 c00151c:	1884b03a 	or	r2,r3,r2
 c001520:	e0bffe8d 	sth	r2,-6(fp)

	IOWR_ALTERA_AVALON_PIO_DATA(HEX_DIGITS_PIO_BASE, pio_val);
 c001524:	e0fffe8b 	ldhu	r3,-6(fp)
 c001528:	00805404 	movi	r2,336
 c00152c:	10c00035 	stwio	r3,0(r2)
}
 c001530:	0001883a 	nop
 c001534:	e037883a 	mov	sp,fp
 c001538:	dfc00117 	ldw	ra,4(sp)
 c00153c:	df000017 	ldw	fp,0(sp)
 c001540:	dec00204 	addi	sp,sp,8
 c001544:	f800283a 	ret

0c001548 <printSignedHex1>:

void printSignedHex1(signed char value) {
 c001548:	defffb04 	addi	sp,sp,-20
 c00154c:	dfc00415 	stw	ra,16(sp)
 c001550:	df000315 	stw	fp,12(sp)
 c001554:	df000304 	addi	fp,sp,12
 c001558:	2005883a 	mov	r2,r4
 c00155c:	e0bfff05 	stb	r2,-4(fp)
	BYTE tens = 0;
 c001560:	e03ffd05 	stb	zero,-12(fp)
	BYTE ones = 0;
 c001564:	e03ffd45 	stb	zero,-11(fp)
	DWORD pio_val = IORD_ALTERA_AVALON_PIO_DATA(HEX_DIGITS_PIO_BASE);
 c001568:	00805404 	movi	r2,336
 c00156c:	10800037 	ldwio	r2,0(r2)
 c001570:	e0bffe15 	stw	r2,-8(fp)
	if (value < 0) {
 c001574:	e0bfff07 	ldb	r2,-4(fp)
 c001578:	1000060e 	bge	r2,zero,c001594 <printSignedHex1+0x4c>
		setLED(10);
 c00157c:	01000284 	movi	r4,10
 c001580:	c0013a40 	call	c0013a4 <setLED>
		value = -value;
 c001584:	e0bfff03 	ldbu	r2,-4(fp)
 c001588:	0085c83a 	sub	r2,zero,r2
 c00158c:	e0bfff05 	stb	r2,-4(fp)
 c001590:	00000206 	br	c00159c <printSignedHex1+0x54>
	} else {
		clearLED(10);
 c001594:	01000284 	movi	r4,10
 c001598:	c0013e80 	call	c0013e8 <clearLED>
	}
	//handled hundreds
	if (value / 100)
 c00159c:	e0bfff03 	ldbu	r2,-4(fp)
 c0015a0:	108018c4 	addi	r2,r2,99
 c0015a4:	10803fcc 	andi	r2,r2,255
 c0015a8:	108031f0 	cmpltui	r2,r2,199
 c0015ac:	1000031e 	bne	r2,zero,c0015bc <printSignedHex1+0x74>
		setLED(12);
 c0015b0:	01000304 	movi	r4,12
 c0015b4:	c0013a40 	call	c0013a4 <setLED>
 c0015b8:	00000206 	br	c0015c4 <printSignedHex1+0x7c>
	else
		clearLED(12);
 c0015bc:	01000304 	movi	r4,12
 c0015c0:	c0013e80 	call	c0013e8 <clearLED>

	value = value % 100;
 c0015c4:	e0bfff07 	ldb	r2,-4(fp)
 c0015c8:	01401904 	movi	r5,100
 c0015cc:	1009883a 	mov	r4,r2
 c0015d0:	c00460c0 	call	c00460c <__modsi3>
 c0015d4:	e0bfff05 	stb	r2,-4(fp)
	tens = value / 10;
 c0015d8:	e0bfff07 	ldb	r2,-4(fp)
 c0015dc:	01400284 	movi	r5,10
 c0015e0:	1009883a 	mov	r4,r2
 c0015e4:	c0045880 	call	c004588 <__divsi3>
 c0015e8:	e0bffd05 	stb	r2,-12(fp)
	ones = value % 10;
 c0015ec:	e0bfff07 	ldb	r2,-4(fp)
 c0015f0:	01400284 	movi	r5,10
 c0015f4:	1009883a 	mov	r4,r2
 c0015f8:	c00460c0 	call	c00460c <__modsi3>
 c0015fc:	e0bffd45 	stb	r2,-11(fp)
	tens = value / 10;
 c001600:	e0bfff07 	ldb	r2,-4(fp)
 c001604:	01400284 	movi	r5,10
 c001608:	1009883a 	mov	r4,r2
 c00160c:	c0045880 	call	c004588 <__divsi3>
 c001610:	e0bffd05 	stb	r2,-12(fp)
	ones = value % 10;
 c001614:	e0bfff07 	ldb	r2,-4(fp)
 c001618:	01400284 	movi	r5,10
 c00161c:	1009883a 	mov	r4,r2
 c001620:	c00460c0 	call	c00460c <__modsi3>
 c001624:	e0bffd45 	stb	r2,-11(fp)

	pio_val &= 0xFF00;
 c001628:	e0bffe17 	ldw	r2,-8(fp)
 c00162c:	10bfc00c 	andi	r2,r2,65280
 c001630:	e0bffe15 	stw	r2,-8(fp)
	pio_val |= (tens << 4);
 c001634:	e0bffd03 	ldbu	r2,-12(fp)
 c001638:	1004913a 	slli	r2,r2,4
 c00163c:	1007883a 	mov	r3,r2
 c001640:	e0bffe17 	ldw	r2,-8(fp)
 c001644:	10c4b03a 	or	r2,r2,r3
 c001648:	e0bffe15 	stw	r2,-8(fp)
	pio_val |= (ones << 0);
 c00164c:	e0bffd43 	ldbu	r2,-11(fp)
 c001650:	e0fffe17 	ldw	r3,-8(fp)
 c001654:	1884b03a 	or	r2,r3,r2
 c001658:	e0bffe15 	stw	r2,-8(fp)

	IOWR_ALTERA_AVALON_PIO_DATA(HEX_DIGITS_PIO_BASE, pio_val);
 c00165c:	e0fffe17 	ldw	r3,-8(fp)
 c001660:	00805404 	movi	r2,336
 c001664:	10c00035 	stwio	r3,0(r2)
}
 c001668:	0001883a 	nop
 c00166c:	e037883a 	mov	sp,fp
 c001670:	dfc00117 	ldw	ra,4(sp)
 c001674:	df000017 	ldw	fp,0(sp)
 c001678:	dec00204 	addi	sp,sp,8
 c00167c:	f800283a 	ret

0c001680 <setKeycode>:

void setKeycode(WORD keycode) {
 c001680:	defffe04 	addi	sp,sp,-8
 c001684:	df000115 	stw	fp,4(sp)
 c001688:	df000104 	addi	fp,sp,4
 c00168c:	2005883a 	mov	r2,r4
 c001690:	e0bfff0d 	sth	r2,-4(fp)
	IOWR_ALTERA_AVALON_PIO_DATA(0x00000160, keycode);
 c001694:	e0ffff0b 	ldhu	r3,-4(fp)
 c001698:	00805804 	movi	r2,352
 c00169c:	10c00035 	stwio	r3,0(r2)
}
 c0016a0:	0001883a 	nop
 c0016a4:	e037883a 	mov	sp,fp
 c0016a8:	df000017 	ldw	fp,0(sp)
 c0016ac:	dec00104 	addi	sp,sp,4
 c0016b0:	f800283a 	ret

0c0016b4 <keyInput>:



void keyInput() {
 c0016b4:	deffe604 	addi	sp,sp,-104
 c0016b8:	dfc01915 	stw	ra,100(sp)
 c0016bc:	df001815 	stw	fp,96(sp)
 c0016c0:	df001804 	addi	fp,sp,96
	TetrisGameState state;

    TetrisInitialize(&state, 10, 24);
 c0016c4:	e0bfec04 	addi	r2,fp,-80
 c0016c8:	01800604 	movi	r6,24
 c0016cc:	01400284 	movi	r5,10
 c0016d0:	1009883a 	mov	r4,r2
 c0016d4:	c0003240 	call	c000324 <TetrisInitialize>
    TetrisCreateBlock(&state);
 c0016d8:	e0bfec04 	addi	r2,fp,-80
 c0016dc:	1009883a 	mov	r4,r2
 c0016e0:	c0008700 	call	c000870 <TetrisCreateBlock>

	BYTE rcode;
	BOOT_MOUSE_REPORT buf;		//USB mouse report
	BOOT_KBD_REPORT kbdbuf;

	BYTE runningdebugflag = 0;//flag to dump out a bunch of information when we first get to USB_STATE_RUNNING
 c0016e4:	e03fe805 	stb	zero,-96(fp)
	BYTE errorflag = 0; //flag once we get an error device so we don't keep dumping out state info
 c0016e8:	e03fe845 	stb	zero,-95(fp)
	BYTE device;
	WORD keycode;

	printf("initializing MAX3421E...\n");
 c0016ec:	010300b4 	movhi	r4,3074
 c0016f0:	21362004 	addi	r4,r4,-10112
 c0016f4:	c0050e40 	call	c0050e4 <puts>
	MAX3421E_init();
 c0016f8:	c0034f80 	call	c0034f8 <MAX3421E_init>
	printf("initializing USB...\n");
 c0016fc:	010300b4 	movhi	r4,3074
 c001700:	21362704 	addi	r4,r4,-10084
 c001704:	c0050e40 	call	c0050e4 <puts>
	USB_init();
 c001708:	c003ca40 	call	c003ca4 <USB_init>
	int count = 0;
 c00170c:	e03fe915 	stw	zero,-92(fp)
	while (!state.dead) {
 c001710:	0000de06 	br	c001a8c <keyInput+0x3d8>

        //TetrisPrintBoard(&state);
		count++;
 c001714:	e0bfe917 	ldw	r2,-92(fp)
 c001718:	10800044 	addi	r2,r2,1
 c00171c:	e0bfe915 	stw	r2,-92(fp)
		if (count %2 == 0) {
 c001720:	e0bfe917 	ldw	r2,-92(fp)
 c001724:	1080004c 	andi	r2,r2,1
 c001728:	1000041e 	bne	r2,zero,c00173c <keyInput+0x88>
			//printf("cout %d", count);
			count = 0;
 c00172c:	e03fe915 	stw	zero,-92(fp)
			TetrisFallBlocks(&state);
 c001730:	e0bfec04 	addi	r2,fp,-80
 c001734:	1009883a 	mov	r4,r2
 c001738:	c000d580 	call	c000d58 <TetrisFallBlocks>
		}
		paintScreen(&state);
 c00173c:	e0bfec04 	addi	r2,fp,-80
 c001740:	1009883a 	mov	r4,r2
 c001744:	c001aac0 	call	c001aac <paintScreen>
		TetrisCheckLineComplete(&state);
 c001748:	e0bfec04 	addi	r2,fp,-80
 c00174c:	1009883a 	mov	r4,r2
 c001750:	c000ed00 	call	c000ed0 <TetrisCheckLineComplete>

		//printf(".");
		MAX3421E_Task();
 c001754:	c00358c0 	call	c00358c <MAX3421E_Task>
		USB_Task();
 c001758:	c003d3c0 	call	c003d3c <USB_Task>
		//usleep (500000);
		if (GetUsbTaskState() == USB_STATE_RUNNING) {
 c00175c:	c0044ac0 	call	c0044ac <GetUsbTaskState>
 c001760:	10803fcc 	andi	r2,r2,255
 c001764:	10801018 	cmpnei	r2,r2,64
 c001768:	1000a91e 	bne	r2,zero,c001a10 <keyInput+0x35c>
			if (!runningdebugflag) {
 c00176c:	e0bfe803 	ldbu	r2,-96(fp)
 c001770:	1000071e 	bne	r2,zero,c001790 <keyInput+0xdc>
				runningdebugflag = 1;
 c001774:	00800044 	movi	r2,1
 c001778:	e0bfe805 	stb	r2,-96(fp)
				setLED(9);
 c00177c:	01000244 	movi	r4,9
 c001780:	c0013a40 	call	c0013a4 <setLED>
				device = GetDriverandReport();
 c001784:	c0011b40 	call	c0011b4 <GetDriverandReport>
 c001788:	e0bfe885 	stb	r2,-94(fp)
 c00178c:	0000bf06 	br	c001a8c <keyInput+0x3d8>
			} else if (device == 1) {
 c001790:	e0bfe883 	ldbu	r2,-94(fp)
 c001794:	10800058 	cmpnei	r2,r2,1
 c001798:	1000bc1e 	bne	r2,zero,c001a8c <keyInput+0x3d8>
				//run keyboard debug polling
				rcode = kbdPoll(&kbdbuf);
 c00179c:	e0bffe04 	addi	r2,fp,-8
 c0017a0:	1009883a 	mov	r4,r2
 c0017a4:	c002dec0 	call	c002dec <kbdPoll>
 c0017a8:	e0bfeb05 	stb	r2,-84(fp)
				if (rcode == hrNAK) {
 c0017ac:	e0bfeb03 	ldbu	r2,-84(fp)
 c0017b0:	10800118 	cmpnei	r2,r2,4
 c0017b4:	1000011e 	bne	r2,zero,c0017bc <keyInput+0x108>
					continue; //NAK means no new data
 c0017b8:	0000b406 	br	c001a8c <keyInput+0x3d8>
				} else if (rcode) {
 c0017bc:	e0bfeb03 	ldbu	r2,-84(fp)
 c0017c0:	10000926 	beq	r2,zero,c0017e8 <keyInput+0x134>
					printf("Rcode: ");
 c0017c4:	010300b4 	movhi	r4,3074
 c0017c8:	21362c04 	addi	r4,r4,-10064
 c0017cc:	c004fc80 	call	c004fc8 <printf>
					printf("%x \n", rcode);
 c0017d0:	e0bfeb03 	ldbu	r2,-84(fp)
 c0017d4:	100b883a 	mov	r5,r2
 c0017d8:	010300b4 	movhi	r4,3074
 c0017dc:	21360e04 	addi	r4,r4,-10184
 c0017e0:	c004fc80 	call	c004fc8 <printf>
					continue;
 c0017e4:	0000a906 	br	c001a8c <keyInput+0x3d8>
				}
				//printf("keycodes: ");
				for (int i = 0; i < 6; i++) {
 c0017e8:	e03fea15 	stw	zero,-88(fp)
 c0017ec:	00007406 	br	c0019c0 <keyInput+0x30c>
					if (kbdbuf.keycode[i] != 0) {
 c0017f0:	e0fffe84 	addi	r3,fp,-6
 c0017f4:	e0bfea17 	ldw	r2,-88(fp)
 c0017f8:	1885883a 	add	r2,r3,r2
 c0017fc:	10800003 	ldbu	r2,0(r2)
 c001800:	10803fcc 	andi	r2,r2,255
 c001804:	10006b26 	beq	r2,zero,c0019b4 <keyInput+0x300>
						//printf("%x - ", kbdbuf.keycode[i]);
						if (kbdbuf.keycode[i] == 26 || kbdbuf.keycode[i] == 82) { //W
 c001808:	e0fffe84 	addi	r3,fp,-6
 c00180c:	e0bfea17 	ldw	r2,-88(fp)
 c001810:	1885883a 	add	r2,r3,r2
 c001814:	10800003 	ldbu	r2,0(r2)
 c001818:	10803fcc 	andi	r2,r2,255
 c00181c:	108006a0 	cmpeqi	r2,r2,26
 c001820:	1000071e 	bne	r2,zero,c001840 <keyInput+0x18c>
 c001824:	e0fffe84 	addi	r3,fp,-6
 c001828:	e0bfea17 	ldw	r2,-88(fp)
 c00182c:	1885883a 	add	r2,r3,r2
 c001830:	10800003 	ldbu	r2,0(r2)
 c001834:	10803fcc 	andi	r2,r2,255
 c001838:	10801498 	cmpnei	r2,r2,82
 c00183c:	1000071e 	bne	r2,zero,c00185c <keyInput+0x1a8>
							printf("W - ");
 c001840:	010300b4 	movhi	r4,3074
 c001844:	21362e04 	addi	r4,r4,-10056
 c001848:	c004fc80 	call	c004fc8 <printf>
			                TetrisRotateBlock(&state);
 c00184c:	e0bfec04 	addi	r2,fp,-80
 c001850:	1009883a 	mov	r4,r2
 c001854:	c000ab80 	call	c000ab8 <TetrisRotateBlock>
 c001858:	00005606 	br	c0019b4 <keyInput+0x300>
						} else if (kbdbuf.keycode[i] == 4 || kbdbuf.keycode[i] == 80) { //A
 c00185c:	e0fffe84 	addi	r3,fp,-6
 c001860:	e0bfea17 	ldw	r2,-88(fp)
 c001864:	1885883a 	add	r2,r3,r2
 c001868:	10800003 	ldbu	r2,0(r2)
 c00186c:	10803fcc 	andi	r2,r2,255
 c001870:	10800120 	cmpeqi	r2,r2,4
 c001874:	1000071e 	bne	r2,zero,c001894 <keyInput+0x1e0>
 c001878:	e0fffe84 	addi	r3,fp,-6
 c00187c:	e0bfea17 	ldw	r2,-88(fp)
 c001880:	1885883a 	add	r2,r3,r2
 c001884:	10800003 	ldbu	r2,0(r2)
 c001888:	10803fcc 	andi	r2,r2,255
 c00188c:	10801418 	cmpnei	r2,r2,80
 c001890:	1000071e 	bne	r2,zero,c0018b0 <keyInput+0x1fc>
							printf("A - ");
 c001894:	010300b4 	movhi	r4,3074
 c001898:	21363004 	addi	r4,r4,-10048
 c00189c:	c004fc80 	call	c004fc8 <printf>
			                TetrisInputLeft(&state);
 c0018a0:	e0bfec04 	addi	r2,fp,-80
 c0018a4:	1009883a 	mov	r4,r2
 c0018a8:	c000fe80 	call	c000fe8 <TetrisInputLeft>
 c0018ac:	00004106 	br	c0019b4 <keyInput+0x300>
						} else if (kbdbuf.keycode[i] == 22 || kbdbuf.keycode[i] == 81) { //S
 c0018b0:	e0fffe84 	addi	r3,fp,-6
 c0018b4:	e0bfea17 	ldw	r2,-88(fp)
 c0018b8:	1885883a 	add	r2,r3,r2
 c0018bc:	10800003 	ldbu	r2,0(r2)
 c0018c0:	10803fcc 	andi	r2,r2,255
 c0018c4:	108005a0 	cmpeqi	r2,r2,22
 c0018c8:	1000071e 	bne	r2,zero,c0018e8 <keyInput+0x234>
 c0018cc:	e0fffe84 	addi	r3,fp,-6
 c0018d0:	e0bfea17 	ldw	r2,-88(fp)
 c0018d4:	1885883a 	add	r2,r3,r2
 c0018d8:	10800003 	ldbu	r2,0(r2)
 c0018dc:	10803fcc 	andi	r2,r2,255
 c0018e0:	10801458 	cmpnei	r2,r2,81
 c0018e4:	1000071e 	bne	r2,zero,c001904 <keyInput+0x250>
							printf("S - ");
 c0018e8:	010300b4 	movhi	r4,3074
 c0018ec:	21363204 	addi	r4,r4,-10040
 c0018f0:	c004fc80 	call	c004fc8 <printf>
			                TetrisFallBlocks(&state);
 c0018f4:	e0bfec04 	addi	r2,fp,-80
 c0018f8:	1009883a 	mov	r4,r2
 c0018fc:	c000d580 	call	c000d58 <TetrisFallBlocks>
 c001900:	00002c06 	br	c0019b4 <keyInput+0x300>
						} else if (kbdbuf.keycode[i] == 7 || kbdbuf.keycode[i] == 79) { //D
 c001904:	e0fffe84 	addi	r3,fp,-6
 c001908:	e0bfea17 	ldw	r2,-88(fp)
 c00190c:	1885883a 	add	r2,r3,r2
 c001910:	10800003 	ldbu	r2,0(r2)
 c001914:	10803fcc 	andi	r2,r2,255
 c001918:	108001e0 	cmpeqi	r2,r2,7
 c00191c:	1000071e 	bne	r2,zero,c00193c <keyInput+0x288>
 c001920:	e0fffe84 	addi	r3,fp,-6
 c001924:	e0bfea17 	ldw	r2,-88(fp)
 c001928:	1885883a 	add	r2,r3,r2
 c00192c:	10800003 	ldbu	r2,0(r2)
 c001930:	10803fcc 	andi	r2,r2,255
 c001934:	108013d8 	cmpnei	r2,r2,79
 c001938:	1000071e 	bne	r2,zero,c001958 <keyInput+0x2a4>
							printf("D - ");
 c00193c:	010300b4 	movhi	r4,3074
 c001940:	21363404 	addi	r4,r4,-10032
 c001944:	c004fc80 	call	c004fc8 <printf>
			                TetrisInputRight(&state);
 c001948:	e0bfec04 	addi	r2,fp,-80
 c00194c:	1009883a 	mov	r4,r2
 c001950:	c0010480 	call	c001048 <TetrisInputRight>
 c001954:	00001706 	br	c0019b4 <keyInput+0x300>
						} else if (kbdbuf.keycode[i] == 41) { //esc
 c001958:	e0fffe84 	addi	r3,fp,-6
 c00195c:	e0bfea17 	ldw	r2,-88(fp)
 c001960:	1885883a 	add	r2,r3,r2
 c001964:	10800003 	ldbu	r2,0(r2)
 c001968:	10803fcc 	andi	r2,r2,255
 c00196c:	10800a58 	cmpnei	r2,r2,41
 c001970:	1000061e 	bne	r2,zero,c00198c <keyInput+0x2d8>
							state.dead = 1;
 c001974:	00800044 	movi	r2,1
 c001978:	e0bfef15 	stw	r2,-68(fp)
							printf("end game");
 c00197c:	010300b4 	movhi	r4,3074
 c001980:	21363604 	addi	r4,r4,-10024
 c001984:	c004fc80 	call	c004fc8 <printf>
 c001988:	00000a06 	br	c0019b4 <keyInput+0x300>
						} else if (kbdbuf.keycode[i] == 40) { //enter
 c00198c:	e0fffe84 	addi	r3,fp,-6
 c001990:	e0bfea17 	ldw	r2,-88(fp)
 c001994:	1885883a 	add	r2,r3,r2
 c001998:	10800003 	ldbu	r2,0(r2)
 c00199c:	10803fcc 	andi	r2,r2,255
 c0019a0:	10800a18 	cmpnei	r2,r2,40
 c0019a4:	1000031e 	bne	r2,zero,c0019b4 <keyInput+0x300>
							printf("enter");
 c0019a8:	010300b4 	movhi	r4,3074
 c0019ac:	21363904 	addi	r4,r4,-10012
 c0019b0:	c004fc80 	call	c004fc8 <printf>
					printf("Rcode: ");
					printf("%x \n", rcode);
					continue;
				}
				//printf("keycodes: ");
				for (int i = 0; i < 6; i++) {
 c0019b4:	e0bfea17 	ldw	r2,-88(fp)
 c0019b8:	10800044 	addi	r2,r2,1
 c0019bc:	e0bfea15 	stw	r2,-88(fp)
 c0019c0:	e0bfea17 	ldw	r2,-88(fp)
 c0019c4:	10800190 	cmplti	r2,r2,6
 c0019c8:	103f891e 	bne	r2,zero,c0017f0 <__alt_data_end+0xfc0017f0>
						}
					}
				}


				setKeycode(kbdbuf.keycode[0]);
 c0019cc:	e0bffe83 	ldbu	r2,-6(fp)
 c0019d0:	10803fcc 	andi	r2,r2,255
 c0019d4:	1009883a 	mov	r4,r2
 c0019d8:	c0016800 	call	c001680 <setKeycode>
				printSignedHex0(kbdbuf.keycode[0]);
 c0019dc:	e0bffe83 	ldbu	r2,-6(fp)
 c0019e0:	10803fcc 	andi	r2,r2,255
 c0019e4:	1080201c 	xori	r2,r2,128
 c0019e8:	10bfe004 	addi	r2,r2,-128
 c0019ec:	1009883a 	mov	r4,r2
 c0019f0:	c0014300 	call	c001430 <printSignedHex0>
				printSignedHex1(kbdbuf.keycode[1]);
 c0019f4:	e0bffec3 	ldbu	r2,-5(fp)
 c0019f8:	10803fcc 	andi	r2,r2,255
 c0019fc:	1080201c 	xori	r2,r2,128
 c001a00:	10bfe004 	addi	r2,r2,-128
 c001a04:	1009883a 	mov	r4,r2
 c001a08:	c0015480 	call	c001548 <printSignedHex1>
 c001a0c:	00001f06 	br	c001a8c <keyInput+0x3d8>
			}
		} else if (GetUsbTaskState() == USB_STATE_ERROR) {
 c001a10:	c0044ac0 	call	c0044ac <GetUsbTaskState>
 c001a14:	10803fcc 	andi	r2,r2,255
 c001a18:	10803fd8 	cmpnei	r2,r2,255
 c001a1c:	10000a1e 	bne	r2,zero,c001a48 <keyInput+0x394>
			if (!errorflag) {
 c001a20:	e0bfe843 	ldbu	r2,-95(fp)
 c001a24:	1000191e 	bne	r2,zero,c001a8c <keyInput+0x3d8>
				errorflag = 1;
 c001a28:	00800044 	movi	r2,1
 c001a2c:	e0bfe845 	stb	r2,-95(fp)
				clearLED(9);
 c001a30:	01000244 	movi	r4,9
 c001a34:	c0013e80 	call	c0013e8 <clearLED>
				printf("USB Error State\n");
 c001a38:	010300b4 	movhi	r4,3074
 c001a3c:	21363b04 	addi	r4,r4,-10004
 c001a40:	c0050e40 	call	c0050e4 <puts>
 c001a44:	00001106 	br	c001a8c <keyInput+0x3d8>
				//print out string descriptor here
			}
		} else { //not in USB running state

			printf("USB task state: ");
 c001a48:	010300b4 	movhi	r4,3074
 c001a4c:	21363f04 	addi	r4,r4,-9988
 c001a50:	c004fc80 	call	c004fc8 <printf>
			printf("%x\n", GetUsbTaskState());
 c001a54:	c0044ac0 	call	c0044ac <GetUsbTaskState>
 c001a58:	10803fcc 	andi	r2,r2,255
 c001a5c:	100b883a 	mov	r5,r2
 c001a60:	010300b4 	movhi	r4,3074
 c001a64:	21364404 	addi	r4,r4,-9968
 c001a68:	c004fc80 	call	c004fc8 <printf>
			if (runningdebugflag) {	//previously running, reset USB hardware just to clear out any funky state, HS/FS etc
 c001a6c:	e0bfe803 	ldbu	r2,-96(fp)
 c001a70:	10000326 	beq	r2,zero,c001a80 <keyInput+0x3cc>
				runningdebugflag = 0;
 c001a74:	e03fe805 	stb	zero,-96(fp)
				MAX3421E_init();
 c001a78:	c0034f80 	call	c0034f8 <MAX3421E_init>
				USB_init();
 c001a7c:	c003ca40 	call	c003ca4 <USB_init>
			}
			errorflag = 0;
 c001a80:	e03fe845 	stb	zero,-95(fp)
			clearLED(9);
 c001a84:	01000244 	movi	r4,9
 c001a88:	c0013e80 	call	c0013e8 <clearLED>
	printf("initializing MAX3421E...\n");
	MAX3421E_init();
	printf("initializing USB...\n");
	USB_init();
	int count = 0;
	while (!state.dead) {
 c001a8c:	e0bfef17 	ldw	r2,-68(fp)
 c001a90:	103f2026 	beq	r2,zero,c001714 <__alt_data_end+0xfc001714>
			}
			errorflag = 0;
			clearLED(9);
		}
	}
}
 c001a94:	0001883a 	nop
 c001a98:	e037883a 	mov	sp,fp
 c001a9c:	dfc00117 	ldw	ra,4(sp)
 c001aa0:	df000017 	ldw	fp,0(sp)
 c001aa4:	dec00204 	addi	sp,sp,8
 c001aa8:	f800283a 	ret

0c001aac <paintScreen>:


void paintScreen(TetrisGameState* state) {
 c001aac:	defff904 	addi	sp,sp,-28
 c001ab0:	dfc00615 	stw	ra,24(sp)
 c001ab4:	df000515 	stw	fp,20(sp)
 c001ab8:	dc400415 	stw	r17,16(sp)
 c001abc:	dc000315 	stw	r16,12(sp)
 c001ac0:	df000504 	addi	fp,sp,20
 c001ac4:	e13ffd15 	stw	r4,-12(fp)
    int x, y;

    for (x = 0; x < 30; ++x)
 c001ac8:	e03ffb15 	stw	zero,-20(fp)
 c001acc:	00000306 	br	c001adc <paintScreen+0x30>
 c001ad0:	e0bffb17 	ldw	r2,-20(fp)
 c001ad4:	10800044 	addi	r2,r2,1
 c001ad8:	e0bffb15 	stw	r2,-20(fp)
 c001adc:	e0bffb17 	ldw	r2,-20(fp)
 c001ae0:	10800790 	cmplti	r2,r2,30
 c001ae4:	103ffa1e 	bne	r2,zero,c001ad0 <__alt_data_end+0xfc001ad0>
        //printf("\n");
    }

    //printf("%d line(s) completed\n\n", state->completedLines);

    for (y = 0; y < state->boardHeight; ++y)
 c001ae8:	e03ffc15 	stw	zero,-16(fp)
 c001aec:	00005f06 	br	c001c6c <paintScreen+0x1c0>
    {
        //printf("|");

        for (x = 0; x < state->boardWidth; ++x)
 c001af0:	e03ffb15 	stw	zero,-20(fp)
 c001af4:	00005606 	br	c001c50 <paintScreen+0x1a4>
        {
            if (x >= state->activeBlockX &&                              //
 c001af8:	e0bffd17 	ldw	r2,-12(fp)
 c001afc:	10800e17 	ldw	r2,56(r2)
 c001b00:	e0fffb17 	ldw	r3,-20(fp)
 c001b04:	18802f16 	blt	r3,r2,c001bc4 <paintScreen+0x118>
                y >= state->activeBlockY &&                              //
 c001b08:	e0bffd17 	ldw	r2,-12(fp)
 c001b0c:	10800f17 	ldw	r2,60(r2)
    {
        //printf("|");

        for (x = 0; x < state->boardWidth; ++x)
        {
            if (x >= state->activeBlockX &&                              //
 c001b10:	e0fffc17 	ldw	r3,-16(fp)
 c001b14:	18802b16 	blt	r3,r2,c001bc4 <paintScreen+0x118>
                y >= state->activeBlockY &&                              //
                x < (state->activeBlockX + state->activeBlock.width) &&  //
 c001b18:	e0bffd17 	ldw	r2,-12(fp)
 c001b1c:	10c00e17 	ldw	r3,56(r2)
 c001b20:	e0bffd17 	ldw	r2,-12(fp)
 c001b24:	10800517 	ldw	r2,20(r2)
 c001b28:	1885883a 	add	r2,r3,r2
        //printf("|");

        for (x = 0; x < state->boardWidth; ++x)
        {
            if (x >= state->activeBlockX &&                              //
                y >= state->activeBlockY &&                              //
 c001b2c:	e0fffb17 	ldw	r3,-20(fp)
 c001b30:	1880240e 	bge	r3,r2,c001bc4 <paintScreen+0x118>
                x < (state->activeBlockX + state->activeBlock.width) &&  //
                y < (state->activeBlockY + state->activeBlock.height) && //
 c001b34:	e0bffd17 	ldw	r2,-12(fp)
 c001b38:	10c00f17 	ldw	r3,60(r2)
 c001b3c:	e0bffd17 	ldw	r2,-12(fp)
 c001b40:	10800617 	ldw	r2,24(r2)
 c001b44:	1885883a 	add	r2,r3,r2

        for (x = 0; x < state->boardWidth; ++x)
        {
            if (x >= state->activeBlockX &&                              //
                y >= state->activeBlockY &&                              //
                x < (state->activeBlockX + state->activeBlock.width) &&  //
 c001b48:	e0fffc17 	ldw	r3,-16(fp)
 c001b4c:	18801d0e 	bge	r3,r2,c001bc4 <paintScreen+0x118>
                y < (state->activeBlockY + state->activeBlock.height) && //
                state->activeBlock.data[y - state->activeBlockY]
 c001b50:	e0bffd17 	ldw	r2,-12(fp)
 c001b54:	10800f17 	ldw	r2,60(r2)
 c001b58:	e0fffc17 	ldw	r3,-16(fp)
 c001b5c:	1889c83a 	sub	r4,r3,r2
                                       [x - state->activeBlockX] != ' ')
 c001b60:	e0bffd17 	ldw	r2,-12(fp)
 c001b64:	10800e17 	ldw	r2,56(r2)
 c001b68:	e0fffb17 	ldw	r3,-20(fp)
 c001b6c:	18a1c83a 	sub	r16,r3,r2
 c001b70:	e47ffd17 	ldw	r17,-12(fp)
 c001b74:	01400144 	movi	r5,5
 c001b78:	c00473c0 	call	c00473c <__mulsi3>
 c001b7c:	8885883a 	add	r2,r17,r2
 c001b80:	1405883a 	add	r2,r2,r16
 c001b84:	10800704 	addi	r2,r2,28
 c001b88:	10800003 	ldbu	r2,0(r2)
        for (x = 0; x < state->boardWidth; ++x)
        {
            if (x >= state->activeBlockX &&                              //
                y >= state->activeBlockY &&                              //
                x < (state->activeBlockX + state->activeBlock.width) &&  //
                y < (state->activeBlockY + state->activeBlock.height) && //
 c001b8c:	10803fcc 	andi	r2,r2,255
 c001b90:	1080201c 	xori	r2,r2,128
 c001b94:	10bfe004 	addi	r2,r2,-128
 c001b98:	10800820 	cmpeqi	r2,r2,32
 c001b9c:	1000091e 	bne	r2,zero,c001bc4 <paintScreen+0x118>
                state->activeBlock.data[y - state->activeBlockY]
                                       [x - state->activeBlockX] != ' ')
            {
            	VGADrawColorBox(20+x,10+y,2);
 c001ba0:	e0bffb17 	ldw	r2,-20(fp)
 c001ba4:	10c00504 	addi	r3,r2,20
 c001ba8:	e0bffc17 	ldw	r2,-16(fp)
 c001bac:	10800284 	addi	r2,r2,10
 c001bb0:	01800084 	movi	r6,2
 c001bb4:	100b883a 	mov	r5,r2
 c001bb8:	1809883a 	mov	r4,r3
 c001bbc:	c0023f00 	call	c0023f0 <VGADrawColorBox>
                y >= state->activeBlockY &&                              //
                x < (state->activeBlockX + state->activeBlock.width) &&  //
                y < (state->activeBlockY + state->activeBlock.height) && //
                state->activeBlock.data[y - state->activeBlockY]
                                       [x - state->activeBlockX] != ' ')
            {
 c001bc0:	00002006 	br	c001c44 <paintScreen+0x198>
            	VGADrawColorBox(20+x,10+y,2);
            }
            else
            {
                if(state->board[x][y] == ' ') VGADrawColorBox(20+x,10+y,11);
 c001bc4:	e0bffd17 	ldw	r2,-12(fp)
 c001bc8:	10c00017 	ldw	r3,0(r2)
 c001bcc:	e0bffb17 	ldw	r2,-20(fp)
 c001bd0:	1085883a 	add	r2,r2,r2
 c001bd4:	1085883a 	add	r2,r2,r2
 c001bd8:	1885883a 	add	r2,r3,r2
 c001bdc:	10c00017 	ldw	r3,0(r2)
 c001be0:	e0bffc17 	ldw	r2,-16(fp)
 c001be4:	1885883a 	add	r2,r3,r2
 c001be8:	10800003 	ldbu	r2,0(r2)
 c001bec:	10803fcc 	andi	r2,r2,255
 c001bf0:	1080201c 	xori	r2,r2,128
 c001bf4:	10bfe004 	addi	r2,r2,-128
 c001bf8:	10800818 	cmpnei	r2,r2,32
 c001bfc:	1000091e 	bne	r2,zero,c001c24 <paintScreen+0x178>
 c001c00:	e0bffb17 	ldw	r2,-20(fp)
 c001c04:	10c00504 	addi	r3,r2,20
 c001c08:	e0bffc17 	ldw	r2,-16(fp)
 c001c0c:	10800284 	addi	r2,r2,10
 c001c10:	018002c4 	movi	r6,11
 c001c14:	100b883a 	mov	r5,r2
 c001c18:	1809883a 	mov	r4,r3
 c001c1c:	c0023f00 	call	c0023f0 <VGADrawColorBox>
 c001c20:	00000806 	br	c001c44 <paintScreen+0x198>
                else VGADrawColorBox(20+x,10+y,2);
 c001c24:	e0bffb17 	ldw	r2,-20(fp)
 c001c28:	10c00504 	addi	r3,r2,20
 c001c2c:	e0bffc17 	ldw	r2,-16(fp)
 c001c30:	10800284 	addi	r2,r2,10
 c001c34:	01800084 	movi	r6,2
 c001c38:	100b883a 	mov	r5,r2
 c001c3c:	1809883a 	mov	r4,r3
 c001c40:	c0023f00 	call	c0023f0 <VGADrawColorBox>

    for (y = 0; y < state->boardHeight; ++y)
    {
        //printf("|");

        for (x = 0; x < state->boardWidth; ++x)
 c001c44:	e0bffb17 	ldw	r2,-20(fp)
 c001c48:	10800044 	addi	r2,r2,1
 c001c4c:	e0bffb15 	stw	r2,-20(fp)
 c001c50:	e0bffd17 	ldw	r2,-12(fp)
 c001c54:	10800117 	ldw	r2,4(r2)
 c001c58:	e0fffb17 	ldw	r3,-20(fp)
 c001c5c:	18bfa616 	blt	r3,r2,c001af8 <__alt_data_end+0xfc001af8>
        //printf("\n");
    }

    //printf("%d line(s) completed\n\n", state->completedLines);

    for (y = 0; y < state->boardHeight; ++y)
 c001c60:	e0bffc17 	ldw	r2,-16(fp)
 c001c64:	10800044 	addi	r2,r2,1
 c001c68:	e0bffc15 	stw	r2,-16(fp)
 c001c6c:	e0bffd17 	ldw	r2,-12(fp)
 c001c70:	10800217 	ldw	r2,8(r2)
 c001c74:	e0fffc17 	ldw	r3,-16(fp)
 c001c78:	18bf9d16 	blt	r3,r2,c001af0 <__alt_data_end+0xfc001af0>
                else VGADrawColorBox(20+x,10+y,2);
            }
        }
    }

}
 c001c7c:	0001883a 	nop
 c001c80:	e6fffe04 	addi	sp,fp,-8
 c001c84:	dfc00317 	ldw	ra,12(sp)
 c001c88:	df000217 	ldw	fp,8(sp)
 c001c8c:	dc400117 	ldw	r17,4(sp)
 c001c90:	dc000017 	ldw	r16,0(sp)
 c001c94:	dec00404 	addi	sp,sp,16
 c001c98:	f800283a 	ret

0c001c9c <main>:

#define COLUMNS 80
#define ROWS 60
#include "text_mode_vga_color.h"

int main() {
 c001c9c:	defffa04 	addi	sp,sp,-24
 c001ca0:	dfc00515 	stw	ra,20(sp)
 c001ca4:	df000415 	stw	fp,16(sp)
 c001ca8:	df000404 	addi	fp,sp,16
	screenVGAinitializer();
 c001cac:	c00203c0 	call	c00203c <screenVGAinitializer>
	for (int i = 0; i < 80; i++) {
 c001cb0:	e03ffc15 	stw	zero,-16(fp)
 c001cb4:	00000b06 	br	c001ce4 <main+0x48>
		VGADrawColorBox(i,0,15);
 c001cb8:	018003c4 	movi	r6,15
 c001cbc:	000b883a 	mov	r5,zero
 c001cc0:	e13ffc17 	ldw	r4,-16(fp)
 c001cc4:	c0023f00 	call	c0023f0 <VGADrawColorBox>
		VGADrawColorBox(i,59,15);
 c001cc8:	018003c4 	movi	r6,15
 c001ccc:	01400ec4 	movi	r5,59
 c001cd0:	e13ffc17 	ldw	r4,-16(fp)
 c001cd4:	c0023f00 	call	c0023f0 <VGADrawColorBox>
#define ROWS 60
#include "text_mode_vga_color.h"

int main() {
	screenVGAinitializer();
	for (int i = 0; i < 80; i++) {
 c001cd8:	e0bffc17 	ldw	r2,-16(fp)
 c001cdc:	10800044 	addi	r2,r2,1
 c001ce0:	e0bffc15 	stw	r2,-16(fp)
 c001ce4:	e0bffc17 	ldw	r2,-16(fp)
 c001ce8:	10801410 	cmplti	r2,r2,80
 c001cec:	103ff21e 	bne	r2,zero,c001cb8 <__alt_data_end+0xfc001cb8>
		VGADrawColorBox(i,0,15);
		VGADrawColorBox(i,59,15);
	}
	for (int i = 0; i < 60; i++) {
 c001cf0:	e03ffd15 	stw	zero,-12(fp)
 c001cf4:	00000b06 	br	c001d24 <main+0x88>
		VGADrawColorBox(0,i,15);
 c001cf8:	018003c4 	movi	r6,15
 c001cfc:	e17ffd17 	ldw	r5,-12(fp)
 c001d00:	0009883a 	mov	r4,zero
 c001d04:	c0023f00 	call	c0023f0 <VGADrawColorBox>
		VGADrawColorBox(79,i,15);
 c001d08:	018003c4 	movi	r6,15
 c001d0c:	e17ffd17 	ldw	r5,-12(fp)
 c001d10:	010013c4 	movi	r4,79
 c001d14:	c0023f00 	call	c0023f0 <VGADrawColorBox>
	screenVGAinitializer();
	for (int i = 0; i < 80; i++) {
		VGADrawColorBox(i,0,15);
		VGADrawColorBox(i,59,15);
	}
	for (int i = 0; i < 60; i++) {
 c001d18:	e0bffd17 	ldw	r2,-12(fp)
 c001d1c:	10800044 	addi	r2,r2,1
 c001d20:	e0bffd15 	stw	r2,-12(fp)
 c001d24:	e0bffd17 	ldw	r2,-12(fp)
 c001d28:	10800f10 	cmplti	r2,r2,60
 c001d2c:	103ff21e 	bne	r2,zero,c001cf8 <__alt_data_end+0xfc001cf8>
		VGADrawColorBox(0,i,15);
		VGADrawColorBox(79,i,15);
	}
	for (int i = 20; i < 20+10; i++) {
 c001d30:	00800504 	movi	r2,20
 c001d34:	e0bffe15 	stw	r2,-8(fp)
 c001d38:	00001406 	br	c001d8c <main+0xf0>
		for (int j = 10; j < 10+24; j++) {
 c001d3c:	00800284 	movi	r2,10
 c001d40:	e0bfff15 	stw	r2,-4(fp)
 c001d44:	00000b06 	br	c001d74 <main+0xd8>
			VGADrawColorBox(i,j,11);
 c001d48:	018002c4 	movi	r6,11
 c001d4c:	e17fff17 	ldw	r5,-4(fp)
 c001d50:	e13ffe17 	ldw	r4,-8(fp)
 c001d54:	c0023f00 	call	c0023f0 <VGADrawColorBox>
			VGADrawColorBox(i,j,11);
 c001d58:	018002c4 	movi	r6,11
 c001d5c:	e17fff17 	ldw	r5,-4(fp)
 c001d60:	e13ffe17 	ldw	r4,-8(fp)
 c001d64:	c0023f00 	call	c0023f0 <VGADrawColorBox>
	for (int i = 0; i < 60; i++) {
		VGADrawColorBox(0,i,15);
		VGADrawColorBox(79,i,15);
	}
	for (int i = 20; i < 20+10; i++) {
		for (int j = 10; j < 10+24; j++) {
 c001d68:	e0bfff17 	ldw	r2,-4(fp)
 c001d6c:	10800044 	addi	r2,r2,1
 c001d70:	e0bfff15 	stw	r2,-4(fp)
 c001d74:	e0bfff17 	ldw	r2,-4(fp)
 c001d78:	10800890 	cmplti	r2,r2,34
 c001d7c:	103ff21e 	bne	r2,zero,c001d48 <__alt_data_end+0xfc001d48>
	}
	for (int i = 0; i < 60; i++) {
		VGADrawColorBox(0,i,15);
		VGADrawColorBox(79,i,15);
	}
	for (int i = 20; i < 20+10; i++) {
 c001d80:	e0bffe17 	ldw	r2,-8(fp)
 c001d84:	10800044 	addi	r2,r2,1
 c001d88:	e0bffe15 	stw	r2,-8(fp)
 c001d8c:	e0bffe17 	ldw	r2,-8(fp)
 c001d90:	10800790 	cmplti	r2,r2,30
 c001d94:	103fe91e 	bne	r2,zero,c001d3c <__alt_data_end+0xfc001d3c>
			VGADrawColorBox(i,j,11);
			VGADrawColorBox(i,j,11);
		}
	}

	keyInput();
 c001d98:	c0016b40 	call	c0016b4 <keyInput>
	return 1;
 c001d9c:	00800044 	movi	r2,1
}
 c001da0:	e037883a 	mov	sp,fp
 c001da4:	dfc00117 	ldw	ra,4(sp)
 c001da8:	df000017 	ldw	fp,0(sp)
 c001dac:	dec00204 	addi	sp,sp,8
 c001db0:	f800283a 	ret

0c001db4 <textVGAColorClr>:
#include <string.h>
#include <alt_types.h>
#include "text_mode_vga_color.h"

void textVGAColorClr()
{
 c001db4:	defffe04 	addi	sp,sp,-8
 c001db8:	df000115 	stw	fp,4(sp)
 c001dbc:	df000104 	addi	fp,sp,4
	for (int i = 0; i<(ROWS*COLUMNS) * 2; i++)
 c001dc0:	e03fff15 	stw	zero,-4(fp)
 c001dc4:	00000706 	br	c001de4 <textVGAColorClr+0x30>
	{
		vga_ctrl->VRAM[i] = 0x00;
 c001dc8:	d0e00217 	ldw	r3,-32760(gp)
 c001dcc:	e0bfff17 	ldw	r2,-4(fp)
 c001dd0:	1885883a 	add	r2,r3,r2
 c001dd4:	10000005 	stb	zero,0(r2)
#include <alt_types.h>
#include "text_mode_vga_color.h"

void textVGAColorClr()
{
	for (int i = 0; i<(ROWS*COLUMNS) * 2; i++)
 c001dd8:	e0bfff17 	ldw	r2,-4(fp)
 c001ddc:	10800044 	addi	r2,r2,1
 c001de0:	e0bfff15 	stw	r2,-4(fp)
 c001de4:	e0bfff17 	ldw	r2,-4(fp)
 c001de8:	10896010 	cmplti	r2,r2,9600
 c001dec:	103ff61e 	bne	r2,zero,c001dc8 <__alt_data_end+0xfc001dc8>
	{
		vga_ctrl->VRAM[i] = 0x00;
	}
}
 c001df0:	0001883a 	nop
 c001df4:	e037883a 	mov	sp,fp
 c001df8:	df000017 	ldw	fp,0(sp)
 c001dfc:	dec00104 	addi	sp,sp,4
 c001e00:	f800283a 	ret

0c001e04 <textVGADrawColorText>:

void textVGADrawColorText(char* str, int x, int y, alt_u8 background, alt_u8 foreground)
{
 c001e04:	defff704 	addi	sp,sp,-36
 c001e08:	dfc00815 	stw	ra,32(sp)
 c001e0c:	df000715 	stw	fp,28(sp)
 c001e10:	dc000615 	stw	r16,24(sp)
 c001e14:	df000704 	addi	fp,sp,28
 c001e18:	e13ffa15 	stw	r4,-24(fp)
 c001e1c:	e17ffb15 	stw	r5,-20(fp)
 c001e20:	e1bffc15 	stw	r6,-16(fp)
 c001e24:	3807883a 	mov	r3,r7
 c001e28:	e0800217 	ldw	r2,8(fp)
 c001e2c:	e0fffd05 	stb	r3,-12(fp)
 c001e30:	e0bffe05 	stb	r2,-8(fp)
	int i = 0;
 c001e34:	e03ff915 	stw	zero,-28(fp)
	while (str[i]!=0)
 c001e38:	00002706 	br	c001ed8 <textVGADrawColorText+0xd4>
	{
		vga_ctrl->VRAM[(y*COLUMNS + x + i) * 2] = foreground << 4 | background;
 c001e3c:	d4200217 	ldw	r16,-32760(gp)
 c001e40:	01401404 	movi	r5,80
 c001e44:	e13ffc17 	ldw	r4,-16(fp)
 c001e48:	c00473c0 	call	c00473c <__mulsi3>
 c001e4c:	1007883a 	mov	r3,r2
 c001e50:	e0bffb17 	ldw	r2,-20(fp)
 c001e54:	1887883a 	add	r3,r3,r2
 c001e58:	e0bff917 	ldw	r2,-28(fp)
 c001e5c:	1885883a 	add	r2,r3,r2
 c001e60:	1085883a 	add	r2,r2,r2
 c001e64:	1009883a 	mov	r4,r2
 c001e68:	e0bffe03 	ldbu	r2,-8(fp)
 c001e6c:	1004913a 	slli	r2,r2,4
 c001e70:	1007883a 	mov	r3,r2
 c001e74:	e0bffd03 	ldbu	r2,-12(fp)
 c001e78:	1884b03a 	or	r2,r3,r2
 c001e7c:	1007883a 	mov	r3,r2
 c001e80:	8105883a 	add	r2,r16,r4
 c001e84:	10c00005 	stb	r3,0(r2)
		vga_ctrl->VRAM[(y*COLUMNS + x + i) * 2 + 1] = str[i];
 c001e88:	d4200217 	ldw	r16,-32760(gp)
 c001e8c:	01401404 	movi	r5,80
 c001e90:	e13ffc17 	ldw	r4,-16(fp)
 c001e94:	c00473c0 	call	c00473c <__mulsi3>
 c001e98:	1007883a 	mov	r3,r2
 c001e9c:	e0bffb17 	ldw	r2,-20(fp)
 c001ea0:	1887883a 	add	r3,r3,r2
 c001ea4:	e0bff917 	ldw	r2,-28(fp)
 c001ea8:	1885883a 	add	r2,r3,r2
 c001eac:	1085883a 	add	r2,r2,r2
 c001eb0:	10800044 	addi	r2,r2,1
 c001eb4:	e0fff917 	ldw	r3,-28(fp)
 c001eb8:	e13ffa17 	ldw	r4,-24(fp)
 c001ebc:	20c7883a 	add	r3,r4,r3
 c001ec0:	18c00003 	ldbu	r3,0(r3)
 c001ec4:	8085883a 	add	r2,r16,r2
 c001ec8:	10c00005 	stb	r3,0(r2)
		i++;
 c001ecc:	e0bff917 	ldw	r2,-28(fp)
 c001ed0:	10800044 	addi	r2,r2,1
 c001ed4:	e0bff915 	stw	r2,-28(fp)
}

void textVGADrawColorText(char* str, int x, int y, alt_u8 background, alt_u8 foreground)
{
	int i = 0;
	while (str[i]!=0)
 c001ed8:	e0bff917 	ldw	r2,-28(fp)
 c001edc:	e0fffa17 	ldw	r3,-24(fp)
 c001ee0:	1885883a 	add	r2,r3,r2
 c001ee4:	10800003 	ldbu	r2,0(r2)
 c001ee8:	10803fcc 	andi	r2,r2,255
 c001eec:	1080201c 	xori	r2,r2,128
 c001ef0:	10bfe004 	addi	r2,r2,-128
 c001ef4:	103fd11e 	bne	r2,zero,c001e3c <__alt_data_end+0xfc001e3c>
	{
		vga_ctrl->VRAM[(y*COLUMNS + x + i) * 2] = foreground << 4 | background;
		vga_ctrl->VRAM[(y*COLUMNS + x + i) * 2 + 1] = str[i];
		i++;
	}
}
 c001ef8:	0001883a 	nop
 c001efc:	e6ffff04 	addi	sp,fp,-4
 c001f00:	dfc00217 	ldw	ra,8(sp)
 c001f04:	df000117 	ldw	fp,4(sp)
 c001f08:	dc000017 	ldw	r16,0(sp)
 c001f0c:	dec00304 	addi	sp,sp,12
 c001f10:	f800283a 	ret

0c001f14 <setColorPalette>:

void setColorPalette (alt_u8 color, alt_u8 red, alt_u8 green, alt_u8 blue)
{
 c001f14:	defff904 	addi	sp,sp,-28
 c001f18:	df000615 	stw	fp,24(sp)
 c001f1c:	df000604 	addi	fp,sp,24
 c001f20:	2011883a 	mov	r8,r4
 c001f24:	2809883a 	mov	r4,r5
 c001f28:	3007883a 	mov	r3,r6
 c001f2c:	3805883a 	mov	r2,r7
 c001f30:	e23ffc05 	stb	r8,-16(fp)
 c001f34:	e13ffd05 	stb	r4,-12(fp)
 c001f38:	e0fffe05 	stb	r3,-8(fp)
 c001f3c:	e0bfff05 	stb	r2,-4(fp)
	alt_u32 shifts;
	alt_u32 original;
	original = vga_ctrl->palette[color/2];
 c001f40:	d0e00217 	ldw	r3,-32760(gp)
 c001f44:	e0bffc03 	ldbu	r2,-16(fp)
 c001f48:	1004d07a 	srli	r2,r2,1
 c001f4c:	10803fcc 	andi	r2,r2,255
 c001f50:	10830004 	addi	r2,r2,3072
 c001f54:	1085883a 	add	r2,r2,r2
 c001f58:	1085883a 	add	r2,r2,r2
 c001f5c:	1885883a 	add	r2,r3,r2
 c001f60:	10800017 	ldw	r2,0(r2)
 c001f64:	e0bffb15 	stw	r2,-20(fp)
	shifts = red;
 c001f68:	e0bffd03 	ldbu	r2,-12(fp)
 c001f6c:	e0bffa15 	stw	r2,-24(fp)
	shifts = shifts << 4;
 c001f70:	e0bffa17 	ldw	r2,-24(fp)
 c001f74:	1004913a 	slli	r2,r2,4
 c001f78:	e0bffa15 	stw	r2,-24(fp)
	shifts = shifts | green;
 c001f7c:	e0bffe03 	ldbu	r2,-8(fp)
 c001f80:	e0fffa17 	ldw	r3,-24(fp)
 c001f84:	1884b03a 	or	r2,r3,r2
 c001f88:	e0bffa15 	stw	r2,-24(fp)
	shifts = shifts << 4;
 c001f8c:	e0bffa17 	ldw	r2,-24(fp)
 c001f90:	1004913a 	slli	r2,r2,4
 c001f94:	e0bffa15 	stw	r2,-24(fp)
	shifts = shifts | blue;
 c001f98:	e0bfff03 	ldbu	r2,-4(fp)
 c001f9c:	e0fffa17 	ldw	r3,-24(fp)
 c001fa0:	1884b03a 	or	r2,r3,r2
 c001fa4:	e0bffa15 	stw	r2,-24(fp)
	if (color %2 ==0){
 c001fa8:	e0bffc03 	ldbu	r2,-16(fp)
 c001fac:	1080004c 	andi	r2,r2,1
 c001fb0:	10803fcc 	andi	r2,r2,255
 c001fb4:	1000081e 	bne	r2,zero,c001fd8 <setColorPalette+0xc4>
		original = original & 0xFFFFE000;
 c001fb8:	e0fffb17 	ldw	r3,-20(fp)
 c001fbc:	00b80004 	movi	r2,-8192
 c001fc0:	1884703a 	and	r2,r3,r2
 c001fc4:	e0bffb15 	stw	r2,-20(fp)
		shifts = shifts << 1;
 c001fc8:	e0bffa17 	ldw	r2,-24(fp)
 c001fcc:	1085883a 	add	r2,r2,r2
 c001fd0:	e0bffa15 	stw	r2,-24(fp)
 c001fd4:	00000606 	br	c001ff0 <setColorPalette+0xdc>
	} else {
		original = original & 0x00001FFF;
 c001fd8:	e0bffb17 	ldw	r2,-20(fp)
 c001fdc:	1087ffcc 	andi	r2,r2,8191
 c001fe0:	e0bffb15 	stw	r2,-20(fp)
		shifts = shifts << 13;
 c001fe4:	e0bffa17 	ldw	r2,-24(fp)
 c001fe8:	1004937a 	slli	r2,r2,13
 c001fec:	e0bffa15 	stw	r2,-24(fp)
	}
	original = original | shifts;
 c001ff0:	e0fffb17 	ldw	r3,-20(fp)
 c001ff4:	e0bffa17 	ldw	r2,-24(fp)
 c001ff8:	1884b03a 	or	r2,r3,r2
 c001ffc:	e0bffb15 	stw	r2,-20(fp)
	vga_ctrl->palette[color/2] = original;
 c002000:	d0e00217 	ldw	r3,-32760(gp)
 c002004:	e0bffc03 	ldbu	r2,-16(fp)
 c002008:	1004d07a 	srli	r2,r2,1
 c00200c:	10803fcc 	andi	r2,r2,255
 c002010:	10830004 	addi	r2,r2,3072
 c002014:	1085883a 	add	r2,r2,r2
 c002018:	1085883a 	add	r2,r2,r2
 c00201c:	1885883a 	add	r2,r3,r2
 c002020:	e0fffb17 	ldw	r3,-20(fp)
 c002024:	10c00015 	stw	r3,0(r2)
}
 c002028:	0001883a 	nop
 c00202c:	e037883a 	mov	sp,fp
 c002030:	df000017 	ldw	fp,0(sp)
 c002034:	dec00104 	addi	sp,sp,4
 c002038:	f800283a 	ret

0c00203c <screenVGAinitializer>:

void screenVGAinitializer() {
 c00203c:	defff904 	addi	sp,sp,-28
 c002040:	dfc00615 	stw	ra,24(sp)
 c002044:	df000515 	stw	fp,20(sp)
 c002048:	dcc00415 	stw	r19,16(sp)
 c00204c:	dc800315 	stw	r18,12(sp)
 c002050:	dc400215 	stw	r17,8(sp)
 c002054:	dc000115 	stw	r16,4(sp)
 c002058:	df000504 	addi	fp,sp,20
	textVGAColorClr();
 c00205c:	c001db40 	call	c001db4 <textVGAColorClr>
	//initialize palette
	for (int i = 0; i < 16; i++)
 c002060:	e03ffb15 	stw	zero,-20(fp)
 c002064:	00002806 	br	c002108 <screenVGAinitializer+0xcc>
	{
		setColorPalette (i, colors[i].red, colors[i].green, colors[i].blue);
 c002068:	e0bffb17 	ldw	r2,-20(fp)
 c00206c:	14403fcc 	andi	r17,r2,255
 c002070:	040300b4 	movhi	r16,3074
 c002074:	8438a604 	addi	r16,r16,-7528
 c002078:	e0bffb17 	ldw	r2,-20(fp)
 c00207c:	014005c4 	movi	r5,23
 c002080:	1009883a 	mov	r4,r2
 c002084:	c00473c0 	call	c00473c <__mulsi3>
 c002088:	8085883a 	add	r2,r16,r2
 c00208c:	10800504 	addi	r2,r2,20
 c002090:	10800003 	ldbu	r2,0(r2)
 c002094:	14803fcc 	andi	r18,r2,255
 c002098:	040300b4 	movhi	r16,3074
 c00209c:	8438a604 	addi	r16,r16,-7528
 c0020a0:	e0bffb17 	ldw	r2,-20(fp)
 c0020a4:	014005c4 	movi	r5,23
 c0020a8:	1009883a 	mov	r4,r2
 c0020ac:	c00473c0 	call	c00473c <__mulsi3>
 c0020b0:	8085883a 	add	r2,r16,r2
 c0020b4:	10800544 	addi	r2,r2,21
 c0020b8:	10800003 	ldbu	r2,0(r2)
 c0020bc:	14c03fcc 	andi	r19,r2,255
 c0020c0:	040300b4 	movhi	r16,3074
 c0020c4:	8438a604 	addi	r16,r16,-7528
 c0020c8:	e0bffb17 	ldw	r2,-20(fp)
 c0020cc:	014005c4 	movi	r5,23
 c0020d0:	1009883a 	mov	r4,r2
 c0020d4:	c00473c0 	call	c00473c <__mulsi3>
 c0020d8:	8085883a 	add	r2,r16,r2
 c0020dc:	10800584 	addi	r2,r2,22
 c0020e0:	10800003 	ldbu	r2,0(r2)
 c0020e4:	10803fcc 	andi	r2,r2,255
 c0020e8:	100f883a 	mov	r7,r2
 c0020ec:	980d883a 	mov	r6,r19
 c0020f0:	900b883a 	mov	r5,r18
 c0020f4:	8809883a 	mov	r4,r17
 c0020f8:	c001f140 	call	c001f14 <setColorPalette>
}

void screenVGAinitializer() {
	textVGAColorClr();
	//initialize palette
	for (int i = 0; i < 16; i++)
 c0020fc:	e0bffb17 	ldw	r2,-20(fp)
 c002100:	10800044 	addi	r2,r2,1
 c002104:	e0bffb15 	stw	r2,-20(fp)
 c002108:	e0bffb17 	ldw	r2,-20(fp)
 c00210c:	10800410 	cmplti	r2,r2,16
 c002110:	103fd51e 	bne	r2,zero,c002068 <__alt_data_end+0xfc002068>
	{
		setColorPalette (i, colors[i].red, colors[i].green, colors[i].blue);
	}

}
 c002114:	0001883a 	nop
 c002118:	e6fffc04 	addi	sp,fp,-16
 c00211c:	dfc00517 	ldw	ra,20(sp)
 c002120:	df000417 	ldw	fp,16(sp)
 c002124:	dcc00317 	ldw	r19,12(sp)
 c002128:	dc800217 	ldw	r18,8(sp)
 c00212c:	dc400117 	ldw	r17,4(sp)
 c002130:	dc000017 	ldw	r16,0(sp)
 c002134:	dec00604 	addi	sp,sp,24
 c002138:	f800283a 	ret

0c00213c <textVGAColorScreenSaver>:

void textVGAColorScreenSaver()
{
 c00213c:	deffde04 	addi	sp,sp,-136
 c002140:	dfc02115 	stw	ra,132(sp)
 c002144:	df002015 	stw	fp,128(sp)
 c002148:	dcc01f15 	stw	r19,124(sp)
 c00214c:	dc801e15 	stw	r18,120(sp)
 c002150:	dc401d15 	stw	r17,116(sp)
 c002154:	dc001c15 	stw	r16,112(sp)
 c002158:	df002004 	addi	fp,sp,128
	//This is the function you call for your week 2 demo
	int flag = 0;
 c00215c:	e03fe415 	stw	zero,-112(fp)
	char color_string[80];
    int fg, bg, x, y;
	textVGAColorClr();
 c002160:	c001db40 	call	c001db4 <textVGAColorClr>
	//initialize palette
	for (int i = 0; i < 16; i++)
 c002164:	e03fe315 	stw	zero,-116(fp)
 c002168:	00002806 	br	c00220c <textVGAColorScreenSaver+0xd0>
	{
		setColorPalette (i, colors[i].red, colors[i].green, colors[i].blue);
 c00216c:	e0bfe317 	ldw	r2,-116(fp)
 c002170:	14403fcc 	andi	r17,r2,255
 c002174:	040300b4 	movhi	r16,3074
 c002178:	8438a604 	addi	r16,r16,-7528
 c00217c:	e0bfe317 	ldw	r2,-116(fp)
 c002180:	014005c4 	movi	r5,23
 c002184:	1009883a 	mov	r4,r2
 c002188:	c00473c0 	call	c00473c <__mulsi3>
 c00218c:	8085883a 	add	r2,r16,r2
 c002190:	10800504 	addi	r2,r2,20
 c002194:	10800003 	ldbu	r2,0(r2)
 c002198:	14803fcc 	andi	r18,r2,255
 c00219c:	040300b4 	movhi	r16,3074
 c0021a0:	8438a604 	addi	r16,r16,-7528
 c0021a4:	e0bfe317 	ldw	r2,-116(fp)
 c0021a8:	014005c4 	movi	r5,23
 c0021ac:	1009883a 	mov	r4,r2
 c0021b0:	c00473c0 	call	c00473c <__mulsi3>
 c0021b4:	8085883a 	add	r2,r16,r2
 c0021b8:	10800544 	addi	r2,r2,21
 c0021bc:	10800003 	ldbu	r2,0(r2)
 c0021c0:	14c03fcc 	andi	r19,r2,255
 c0021c4:	040300b4 	movhi	r16,3074
 c0021c8:	8438a604 	addi	r16,r16,-7528
 c0021cc:	e0bfe317 	ldw	r2,-116(fp)
 c0021d0:	014005c4 	movi	r5,23
 c0021d4:	1009883a 	mov	r4,r2
 c0021d8:	c00473c0 	call	c00473c <__mulsi3>
 c0021dc:	8085883a 	add	r2,r16,r2
 c0021e0:	10800584 	addi	r2,r2,22
 c0021e4:	10800003 	ldbu	r2,0(r2)
 c0021e8:	10803fcc 	andi	r2,r2,255
 c0021ec:	100f883a 	mov	r7,r2
 c0021f0:	980d883a 	mov	r6,r19
 c0021f4:	900b883a 	mov	r5,r18
 c0021f8:	8809883a 	mov	r4,r17
 c0021fc:	c001f140 	call	c001f14 <setColorPalette>
	int flag = 0;
	char color_string[80];
    int fg, bg, x, y;
	textVGAColorClr();
	//initialize palette
	for (int i = 0; i < 16; i++)
 c002200:	e0bfe317 	ldw	r2,-116(fp)
 c002204:	10800044 	addi	r2,r2,1
 c002208:	e0bfe315 	stw	r2,-116(fp)
 c00220c:	e0bfe317 	ldw	r2,-116(fp)
 c002210:	10800410 	cmplti	r2,r2,16
 c002214:	103fd51e 	bne	r2,zero,c00216c <__alt_data_end+0xfc00216c>
	{
		setColorPalette (i, colors[i].red, colors[i].green, colors[i].blue);
	}
	int count =0;
 c002218:	e03fe515 	stw	zero,-108(fp)
	while (1) {
	//for(int y = 0; y < COLUMNS; y++){
		fg = rand() % 16;
 c00221c:	c0051100 	call	c005110 <rand>
 c002220:	1007883a 	mov	r3,r2
 c002224:	00a00034 	movhi	r2,32768
 c002228:	108003c4 	addi	r2,r2,15
 c00222c:	1884703a 	and	r2,r3,r2
 c002230:	1000040e 	bge	r2,zero,c002244 <textVGAColorScreenSaver+0x108>
 c002234:	10bfffc4 	addi	r2,r2,-1
 c002238:	00fffc04 	movi	r3,-16
 c00223c:	10c4b03a 	or	r2,r2,r3
 c002240:	10800044 	addi	r2,r2,1
 c002244:	e0bfe115 	stw	r2,-124(fp)
		bg = rand() % 16;
 c002248:	c0051100 	call	c005110 <rand>
 c00224c:	1007883a 	mov	r3,r2
 c002250:	00a00034 	movhi	r2,32768
 c002254:	108003c4 	addi	r2,r2,15
 c002258:	1884703a 	and	r2,r3,r2
 c00225c:	1000040e 	bge	r2,zero,c002270 <textVGAColorScreenSaver+0x134>
 c002260:	10bfffc4 	addi	r2,r2,-1
 c002264:	00fffc04 	movi	r3,-16
 c002268:	10c4b03a 	or	r2,r2,r3
 c00226c:	10800044 	addi	r2,r2,1
 c002270:	e0bfe215 	stw	r2,-120(fp)
		while (fg == bg)
 c002274:	00001606 	br	c0022d0 <textVGAColorScreenSaver+0x194>
		{
			fg = rand() % 16;
 c002278:	c0051100 	call	c005110 <rand>
 c00227c:	1007883a 	mov	r3,r2
 c002280:	00a00034 	movhi	r2,32768
 c002284:	108003c4 	addi	r2,r2,15
 c002288:	1884703a 	and	r2,r3,r2
 c00228c:	1000040e 	bge	r2,zero,c0022a0 <textVGAColorScreenSaver+0x164>
 c002290:	10bfffc4 	addi	r2,r2,-1
 c002294:	00fffc04 	movi	r3,-16
 c002298:	10c4b03a 	or	r2,r2,r3
 c00229c:	10800044 	addi	r2,r2,1
 c0022a0:	e0bfe115 	stw	r2,-124(fp)
			bg = rand() % 16;
 c0022a4:	c0051100 	call	c005110 <rand>
 c0022a8:	1007883a 	mov	r3,r2
 c0022ac:	00a00034 	movhi	r2,32768
 c0022b0:	108003c4 	addi	r2,r2,15
 c0022b4:	1884703a 	and	r2,r3,r2
 c0022b8:	1000040e 	bge	r2,zero,c0022cc <textVGAColorScreenSaver+0x190>
 c0022bc:	10bfffc4 	addi	r2,r2,-1
 c0022c0:	00fffc04 	movi	r3,-16
 c0022c4:	10c4b03a 	or	r2,r2,r3
 c0022c8:	10800044 	addi	r2,r2,1
 c0022cc:	e0bfe215 	stw	r2,-120(fp)
	int count =0;
	while (1) {
	//for(int y = 0; y < COLUMNS; y++){
		fg = rand() % 16;
		bg = rand() % 16;
		while (fg == bg)
 c0022d0:	e0ffe117 	ldw	r3,-124(fp)
 c0022d4:	e0bfe217 	ldw	r2,-120(fp)
 c0022d8:	18bfe726 	beq	r3,r2,c002278 <__alt_data_end+0xfc002278>
		{
			fg = rand() % 16;
			bg = rand() % 16;
		}
		//sprintf(color_string," ttttttt ");
		sprintf(color_string, "Drawing %s text with %s background", colors[fg].name, colors[bg].name);
 c0022dc:	014005c4 	movi	r5,23
 c0022e0:	e13fe117 	ldw	r4,-124(fp)
 c0022e4:	c00473c0 	call	c00473c <__mulsi3>
 c0022e8:	1007883a 	mov	r3,r2
 c0022ec:	008300b4 	movhi	r2,3074
 c0022f0:	10b8a604 	addi	r2,r2,-7528
 c0022f4:	18a1883a 	add	r16,r3,r2
 c0022f8:	014005c4 	movi	r5,23
 c0022fc:	e13fe217 	ldw	r4,-120(fp)
 c002300:	c00473c0 	call	c00473c <__mulsi3>
 c002304:	1007883a 	mov	r3,r2
 c002308:	008300b4 	movhi	r2,3074
 c00230c:	10b8a604 	addi	r2,r2,-7528
 c002310:	1887883a 	add	r3,r3,r2
 c002314:	e0bfe804 	addi	r2,fp,-96
 c002318:	180f883a 	mov	r7,r3
 c00231c:	800d883a 	mov	r6,r16
 c002320:	014300b4 	movhi	r5,3074
 c002324:	29764504 	addi	r5,r5,-9964
 c002328:	1009883a 	mov	r4,r2
 c00232c:	c00528c0 	call	c00528c <sprintf>
		x = rand() % (ROWS-strlen(color_string));
 c002330:	c0051100 	call	c005110 <rand>
 c002334:	1021883a 	mov	r16,r2
 c002338:	e0bfe804 	addi	r2,fp,-96
 c00233c:	1009883a 	mov	r4,r2
 c002340:	c0052f80 	call	c0052f8 <strlen>
 c002344:	1007883a 	mov	r3,r2
 c002348:	00800f04 	movi	r2,60
 c00234c:	10c5c83a 	sub	r2,r2,r3
 c002350:	100b883a 	mov	r5,r2
 c002354:	8009883a 	mov	r4,r16
 c002358:	c0046e40 	call	c0046e4 <__umodsi3>
 c00235c:	e0bfe615 	stw	r2,-104(fp)
		y = rand() % 60;
 c002360:	c0051100 	call	c005110 <rand>
 c002364:	01400f04 	movi	r5,60
 c002368:	1009883a 	mov	r4,r2
 c00236c:	c00460c0 	call	c00460c <__modsi3>
 c002370:	e0bfe715 	stw	r2,-100(fp)
		if (y %2==0) {
 c002374:	e0bfe717 	ldw	r2,-100(fp)
 c002378:	1080004c 	andi	r2,r2,1
 c00237c:	1000181e 	bne	r2,zero,c0023e0 <textVGAColorScreenSaver+0x2a4>
			textVGADrawColorText (color_string, x, y, bg, fg);
 c002380:	e0bfe217 	ldw	r2,-120(fp)
 c002384:	11003fcc 	andi	r4,r2,255
 c002388:	e0bfe117 	ldw	r2,-124(fp)
 c00238c:	10803fcc 	andi	r2,r2,255
 c002390:	e0ffe804 	addi	r3,fp,-96
 c002394:	d8800015 	stw	r2,0(sp)
 c002398:	200f883a 	mov	r7,r4
 c00239c:	e1bfe717 	ldw	r6,-100(fp)
 c0023a0:	e17fe617 	ldw	r5,-104(fp)
 c0023a4:	1809883a 	mov	r4,r3
 c0023a8:	c001e040 	call	c001e04 <textVGADrawColorText>
			textVGADrawColorText (color_string, x, y+1, bg, fg);
 c0023ac:	e0bfe717 	ldw	r2,-100(fp)
 c0023b0:	11000044 	addi	r4,r2,1
 c0023b4:	e0bfe217 	ldw	r2,-120(fp)
 c0023b8:	11403fcc 	andi	r5,r2,255
 c0023bc:	e0bfe117 	ldw	r2,-124(fp)
 c0023c0:	10803fcc 	andi	r2,r2,255
 c0023c4:	e0ffe804 	addi	r3,fp,-96
 c0023c8:	d8800015 	stw	r2,0(sp)
 c0023cc:	280f883a 	mov	r7,r5
 c0023d0:	200d883a 	mov	r6,r4
 c0023d4:	e17fe617 	ldw	r5,-104(fp)
 c0023d8:	1809883a 	mov	r4,r3
 c0023dc:	c001e040 	call	c001e04 <textVGADrawColorText>

		}
		usleep (100000);
 c0023e0:	010000b4 	movhi	r4,2
 c0023e4:	2121a804 	addi	r4,r4,-31072
 c0023e8:	c01b5480 	call	c01b548 <usleep>
	//}
	}
 c0023ec:	003f8b06 	br	c00221c <__alt_data_end+0xfc00221c>

0c0023f0 <VGADrawColorBox>:
	//VGADrawColorBox(2,2,15,0);
	//VGADrawColorBox(ROWS/2,COLUMNS/2,3,0);
}

void VGADrawColorBox(int x, int y, alt_u8 background)
{
 c0023f0:	defffa04 	addi	sp,sp,-24
 c0023f4:	dfc00515 	stw	ra,20(sp)
 c0023f8:	df000415 	stw	fp,16(sp)
 c0023fc:	dc000315 	stw	r16,12(sp)
 c002400:	df000404 	addi	fp,sp,16
 c002404:	e13ffc15 	stw	r4,-16(fp)
 c002408:	e17ffd15 	stw	r5,-12(fp)
 c00240c:	3005883a 	mov	r2,r6
 c002410:	e0bffe05 	stb	r2,-8(fp)
	vga_ctrl->VRAM[(y*COLUMNS + x) * 2] = 0 << 4 | background;
 c002414:	d4200217 	ldw	r16,-32760(gp)
 c002418:	01401404 	movi	r5,80
 c00241c:	e13ffd17 	ldw	r4,-12(fp)
 c002420:	c00473c0 	call	c00473c <__mulsi3>
 c002424:	1007883a 	mov	r3,r2
 c002428:	e0bffc17 	ldw	r2,-16(fp)
 c00242c:	1885883a 	add	r2,r3,r2
 c002430:	1085883a 	add	r2,r2,r2
 c002434:	8085883a 	add	r2,r16,r2
 c002438:	e0fffe03 	ldbu	r3,-8(fp)
 c00243c:	10c00005 	stb	r3,0(r2)
}
 c002440:	0001883a 	nop
 c002444:	e6ffff04 	addi	sp,fp,-4
 c002448:	dfc00217 	ldw	ra,8(sp)
 c00244c:	df000117 	ldw	fp,4(sp)
 c002450:	dc000017 	ldw	r16,0(sp)
 c002454:	dec00304 	addi	sp,sp,12
 c002458:	f800283a 	ret

0c00245c <VGAwriteText>:

void VGAwriteText(int x, int y, int colorFG, int colorBG, char text[]) {
 c00245c:	defff904 	addi	sp,sp,-28
 c002460:	dfc00615 	stw	ra,24(sp)
 c002464:	df000515 	stw	fp,20(sp)
 c002468:	df000504 	addi	fp,sp,20
 c00246c:	e13ffc15 	stw	r4,-16(fp)
 c002470:	e17ffd15 	stw	r5,-12(fp)
 c002474:	e1bffe15 	stw	r6,-8(fp)
 c002478:	e1ffff15 	stw	r7,-4(fp)
		textVGADrawColorText (text, x, (y/2)*2, colorBG, colorFG);
 c00247c:	e0bffd17 	ldw	r2,-12(fp)
 c002480:	1006d7fa 	srli	r3,r2,31
 c002484:	1885883a 	add	r2,r3,r2
 c002488:	1005d07a 	srai	r2,r2,1
 c00248c:	1085883a 	add	r2,r2,r2
 c002490:	1009883a 	mov	r4,r2
 c002494:	e0bfff17 	ldw	r2,-4(fp)
 c002498:	10c03fcc 	andi	r3,r2,255
 c00249c:	e0bffe17 	ldw	r2,-8(fp)
 c0024a0:	10803fcc 	andi	r2,r2,255
 c0024a4:	d8800015 	stw	r2,0(sp)
 c0024a8:	180f883a 	mov	r7,r3
 c0024ac:	200d883a 	mov	r6,r4
 c0024b0:	e17ffc17 	ldw	r5,-16(fp)
 c0024b4:	e1000217 	ldw	r4,8(fp)
 c0024b8:	c001e040 	call	c001e04 <textVGADrawColorText>
		textVGADrawColorText (text, x, (y/2)*2+1, colorBG, colorFG);
 c0024bc:	e0bffd17 	ldw	r2,-12(fp)
 c0024c0:	1006d7fa 	srli	r3,r2,31
 c0024c4:	1885883a 	add	r2,r3,r2
 c0024c8:	1005d07a 	srai	r2,r2,1
 c0024cc:	1085883a 	add	r2,r2,r2
 c0024d0:	10c00044 	addi	r3,r2,1
 c0024d4:	e0bfff17 	ldw	r2,-4(fp)
 c0024d8:	11003fcc 	andi	r4,r2,255
 c0024dc:	e0bffe17 	ldw	r2,-8(fp)
 c0024e0:	10803fcc 	andi	r2,r2,255
 c0024e4:	d8800015 	stw	r2,0(sp)
 c0024e8:	200f883a 	mov	r7,r4
 c0024ec:	180d883a 	mov	r6,r3
 c0024f0:	e17ffc17 	ldw	r5,-16(fp)
 c0024f4:	e1000217 	ldw	r4,8(fp)
 c0024f8:	c001e040 	call	c001e04 <textVGADrawColorText>
}
 c0024fc:	0001883a 	nop
 c002500:	e037883a 	mov	sp,fp
 c002504:	dfc00117 	ldw	ra,4(sp)
 c002508:	df000017 	ldw	fp,0(sp)
 c00250c:	dec00204 	addi	sp,sp,8
 c002510:	f800283a 	ret

0c002514 <HIDMProbe>:
 c002514:	defff204 	addi	sp,sp,-56
 c002518:	dfc00d15 	stw	ra,52(sp)
 c00251c:	df000c15 	stw	fp,48(sp)
 c002520:	df000c04 	addi	fp,sp,48
 c002524:	2005883a 	mov	r2,r4
 c002528:	e17fff15 	stw	r5,-4(fp)
 c00252c:	e0bffe05 	stb	r2,-8(fp)
 c002530:	008300b4 	movhi	r2,3074
 c002534:	10878004 	addi	r2,r2,7680
 c002538:	e0bffa15 	stw	r2,-24(fp)
 c00253c:	008300b4 	movhi	r2,3074
 c002540:	10878004 	addi	r2,r2,7680
 c002544:	e0bffb15 	stw	r2,-20(fp)
 c002548:	e0fffe03 	ldbu	r3,-8(fp)
 c00254c:	008300b4 	movhi	r2,3074
 c002550:	10878004 	addi	r2,r2,7680
 c002554:	d8800415 	stw	r2,16(sp)
 c002558:	00800244 	movi	r2,9
 c00255c:	d8800315 	stw	r2,12(sp)
 c002560:	d8000215 	stw	zero,8(sp)
 c002564:	00800084 	movi	r2,2
 c002568:	d8800115 	stw	r2,4(sp)
 c00256c:	d8000015 	stw	zero,0(sp)
 c002570:	01c00184 	movi	r7,6
 c002574:	01802004 	movi	r6,128
 c002578:	000b883a 	mov	r5,zero
 c00257c:	1809883a 	mov	r4,r3
 c002580:	c0036f00 	call	c0036f0 <XferCtrlReq>
 c002584:	e0bffc05 	stb	r2,-16(fp)
 c002588:	e0bffc03 	ldbu	r2,-16(fp)
 c00258c:	10000226 	beq	r2,zero,c002598 <HIDMProbe+0x84>
 c002590:	0005883a 	mov	r2,zero
 c002594:	0000dc06 	br	c002908 <HIDMProbe+0x3f4>
 c002598:	e0bffa17 	ldw	r2,-24(fp)
 c00259c:	1080008b 	ldhu	r2,2(r2)
 c0025a0:	10bfffcc 	andi	r2,r2,65535
 c0025a4:	10804070 	cmpltui	r2,r2,257
 c0025a8:	1000031e 	bne	r2,zero,c0025b8 <HIDMProbe+0xa4>
 c0025ac:	00804004 	movi	r2,256
 c0025b0:	e0bff90d 	sth	r2,-28(fp)
 c0025b4:	00000306 	br	c0025c4 <HIDMProbe+0xb0>
 c0025b8:	e0bffa17 	ldw	r2,-24(fp)
 c0025bc:	1080008b 	ldhu	r2,2(r2)
 c0025c0:	e0bff90d 	sth	r2,-28(fp)
 c0025c4:	e13ffe03 	ldbu	r4,-8(fp)
 c0025c8:	e0fff90b 	ldhu	r3,-28(fp)
 c0025cc:	008300b4 	movhi	r2,3074
 c0025d0:	10878004 	addi	r2,r2,7680
 c0025d4:	d8800415 	stw	r2,16(sp)
 c0025d8:	d8c00315 	stw	r3,12(sp)
 c0025dc:	d8000215 	stw	zero,8(sp)
 c0025e0:	00800084 	movi	r2,2
 c0025e4:	d8800115 	stw	r2,4(sp)
 c0025e8:	d8000015 	stw	zero,0(sp)
 c0025ec:	01c00184 	movi	r7,6
 c0025f0:	01802004 	movi	r6,128
 c0025f4:	000b883a 	mov	r5,zero
 c0025f8:	c0036f00 	call	c0036f0 <XferCtrlReq>
 c0025fc:	e0bffc05 	stb	r2,-16(fp)
 c002600:	e0bffc03 	ldbu	r2,-16(fp)
 c002604:	10000226 	beq	r2,zero,c002610 <HIDMProbe+0xfc>
 c002608:	0005883a 	mov	r2,zero
 c00260c:	0000be06 	br	c002908 <HIDMProbe+0x3f4>
 c002610:	e0bffa17 	ldw	r2,-24(fp)
 c002614:	10800143 	ldbu	r2,5(r2)
 c002618:	e0bffc45 	stb	r2,-15(fp)
 c00261c:	0000b306 	br	c0028ec <HIDMProbe+0x3d8>
 c002620:	e0bffa17 	ldw	r2,-24(fp)
 c002624:	10800043 	ldbu	r2,1(r2)
 c002628:	10803fcc 	andi	r2,r2,255
 c00262c:	10800120 	cmpeqi	r2,r2,4
 c002630:	1000091e 	bne	r2,zero,c002658 <HIDMProbe+0x144>
 c002634:	e0bffa17 	ldw	r2,-24(fp)
 c002638:	10800003 	ldbu	r2,0(r2)
 c00263c:	10803fcc 	andi	r2,r2,255
 c002640:	e0fffb17 	ldw	r3,-20(fp)
 c002644:	1885883a 	add	r2,r3,r2
 c002648:	e0bffb15 	stw	r2,-20(fp)
 c00264c:	e0bffb17 	ldw	r2,-20(fp)
 c002650:	e0bffa15 	stw	r2,-24(fp)
 c002654:	0000a506 	br	c0028ec <HIDMProbe+0x3d8>
 c002658:	e0bffa17 	ldw	r2,-24(fp)
 c00265c:	10800143 	ldbu	r2,5(r2)
 c002660:	e0bffc85 	stb	r2,-14(fp)
 c002664:	e0bffa17 	ldw	r2,-24(fp)
 c002668:	10800183 	ldbu	r2,6(r2)
 c00266c:	e0bffcc5 	stb	r2,-13(fp)
 c002670:	e0bffa17 	ldw	r2,-24(fp)
 c002674:	108001c3 	ldbu	r2,7(r2)
 c002678:	e0bffd05 	stb	r2,-12(fp)
 c00267c:	e0bffc83 	ldbu	r2,-14(fp)
 c002680:	108000d8 	cmpnei	r2,r2,3
 c002684:	1000971e 	bne	r2,zero,c0028e4 <HIDMProbe+0x3d0>
 c002688:	e0bffcc3 	ldbu	r2,-13(fp)
 c00268c:	10800058 	cmpnei	r2,r2,1
 c002690:	1000941e 	bne	r2,zero,c0028e4 <HIDMProbe+0x3d0>
 c002694:	e0bffd03 	ldbu	r2,-12(fp)
 c002698:	10800098 	cmpnei	r2,r2,2
 c00269c:	1000911e 	bne	r2,zero,c0028e4 <HIDMProbe+0x3d0>
 c0026a0:	e0fffe03 	ldbu	r3,-8(fp)
 c0026a4:	008300b4 	movhi	r2,3074
 c0026a8:	1087c004 	addi	r2,r2,7936
 c0026ac:	180690fa 	slli	r3,r3,3
 c0026b0:	10c5883a 	add	r2,r2,r3
 c0026b4:	10800104 	addi	r2,r2,4
 c0026b8:	00c00084 	movi	r3,2
 c0026bc:	10c00005 	stb	r3,0(r2)
 c0026c0:	e0fffe03 	ldbu	r3,-8(fp)
 c0026c4:	008300b4 	movhi	r2,3074
 c0026c8:	1087c004 	addi	r2,r2,7936
 c0026cc:	180690fa 	slli	r3,r3,3
 c0026d0:	10c5883a 	add	r2,r2,r3
 c0026d4:	10800017 	ldw	r2,0(r2)
 c0026d8:	1080008b 	ldhu	r2,2(r2)
 c0026dc:	e0bffd45 	stb	r2,-11(fp)
 c0026e0:	c002d240 	call	c002d24 <HID_init>
 c0026e4:	e0fffe03 	ldbu	r3,-8(fp)
 c0026e8:	008300b4 	movhi	r2,3074
 c0026ec:	1087c004 	addi	r2,r2,7936
 c0026f0:	180690fa 	slli	r3,r3,3
 c0026f4:	10c7883a 	add	r3,r2,r3
 c0026f8:	008300b4 	movhi	r2,3074
 c0026fc:	10876c04 	addi	r2,r2,7600
 c002700:	18800015 	stw	r2,0(r3)
 c002704:	e0fffe03 	ldbu	r3,-8(fp)
 c002708:	008300b4 	movhi	r2,3074
 c00270c:	1087c004 	addi	r2,r2,7936
 c002710:	180690fa 	slli	r3,r3,3
 c002714:	10c5883a 	add	r2,r2,r3
 c002718:	10800017 	ldw	r2,0(r2)
 c00271c:	e0fffd43 	ldbu	r3,-11(fp)
 c002720:	10c0008d 	sth	r3,2(r2)
 c002724:	e0bffa17 	ldw	r2,-24(fp)
 c002728:	10800083 	ldbu	r2,2(r2)
 c00272c:	d0a79f45 	stb	r2,-24963(gp)
 c002730:	e0bffe03 	ldbu	r2,-8(fp)
 c002734:	d0a79f05 	stb	r2,-24964(gp)
 c002738:	e0bffa17 	ldw	r2,-24(fp)
 c00273c:	10800003 	ldbu	r2,0(r2)
 c002740:	10803fcc 	andi	r2,r2,255
 c002744:	e0fffb17 	ldw	r3,-20(fp)
 c002748:	1885883a 	add	r2,r3,r2
 c00274c:	e0bffb15 	stw	r2,-20(fp)
 c002750:	e0bffb17 	ldw	r2,-20(fp)
 c002754:	e0bffa15 	stw	r2,-24(fp)
 c002758:	00005b06 	br	c0028c8 <HIDMProbe+0x3b4>
 c00275c:	e0bffa17 	ldw	r2,-24(fp)
 c002760:	10800043 	ldbu	r2,1(r2)
 c002764:	10803fcc 	andi	r2,r2,255
 c002768:	10800160 	cmpeqi	r2,r2,5
 c00276c:	1000091e 	bne	r2,zero,c002794 <HIDMProbe+0x280>
 c002770:	e0bffa17 	ldw	r2,-24(fp)
 c002774:	10800003 	ldbu	r2,0(r2)
 c002778:	10803fcc 	andi	r2,r2,255
 c00277c:	e0fffb17 	ldw	r3,-20(fp)
 c002780:	1885883a 	add	r2,r3,r2
 c002784:	e0bffb15 	stw	r2,-20(fp)
 c002788:	e0bffb17 	ldw	r2,-20(fp)
 c00278c:	e0bffa15 	stw	r2,-24(fp)
 c002790:	00004d06 	br	c0028c8 <HIDMProbe+0x3b4>
 c002794:	e0fffe03 	ldbu	r3,-8(fp)
 c002798:	008300b4 	movhi	r2,3074
 c00279c:	1087c004 	addi	r2,r2,7936
 c0027a0:	180690fa 	slli	r3,r3,3
 c0027a4:	10c5883a 	add	r2,r2,r3
 c0027a8:	10800017 	ldw	r2,0(r2)
 c0027ac:	10800204 	addi	r2,r2,8
 c0027b0:	e0fffa17 	ldw	r3,-24(fp)
 c0027b4:	18c00083 	ldbu	r3,2(r3)
 c0027b8:	10c00005 	stb	r3,0(r2)
 c0027bc:	e0fffe03 	ldbu	r3,-8(fp)
 c0027c0:	008300b4 	movhi	r2,3074
 c0027c4:	1087c004 	addi	r2,r2,7936
 c0027c8:	180690fa 	slli	r3,r3,3
 c0027cc:	10c5883a 	add	r2,r2,r3
 c0027d0:	10800017 	ldw	r2,0(r2)
 c0027d4:	10800204 	addi	r2,r2,8
 c0027d8:	e0fffa17 	ldw	r3,-24(fp)
 c0027dc:	18c000c3 	ldbu	r3,3(r3)
 c0027e0:	10c00045 	stb	r3,1(r2)
 c0027e4:	e0fffe03 	ldbu	r3,-8(fp)
 c0027e8:	008300b4 	movhi	r2,3074
 c0027ec:	1087c004 	addi	r2,r2,7936
 c0027f0:	180690fa 	slli	r3,r3,3
 c0027f4:	10c5883a 	add	r2,r2,r3
 c0027f8:	10800017 	ldw	r2,0(r2)
 c0027fc:	10800204 	addi	r2,r2,8
 c002800:	e0fffa17 	ldw	r3,-24(fp)
 c002804:	18c0010b 	ldhu	r3,4(r3)
 c002808:	10c0008d 	sth	r3,2(r2)
 c00280c:	e0fffe03 	ldbu	r3,-8(fp)
 c002810:	008300b4 	movhi	r2,3074
 c002814:	1087c004 	addi	r2,r2,7936
 c002818:	180690fa 	slli	r3,r3,3
 c00281c:	10c5883a 	add	r2,r2,r3
 c002820:	10800017 	ldw	r2,0(r2)
 c002824:	10800204 	addi	r2,r2,8
 c002828:	e0fffa17 	ldw	r3,-24(fp)
 c00282c:	18c00183 	ldbu	r3,6(r3)
 c002830:	10c00105 	stb	r3,4(r2)
 c002834:	e0fffe03 	ldbu	r3,-8(fp)
 c002838:	e0bffc43 	ldbu	r2,-15(fp)
 c00283c:	d8000415 	stw	zero,16(sp)
 c002840:	d8000315 	stw	zero,12(sp)
 c002844:	d8000215 	stw	zero,8(sp)
 c002848:	d8000115 	stw	zero,4(sp)
 c00284c:	d8800015 	stw	r2,0(sp)
 c002850:	01c00244 	movi	r7,9
 c002854:	000d883a 	mov	r6,zero
 c002858:	000b883a 	mov	r5,zero
 c00285c:	1809883a 	mov	r4,r3
 c002860:	c0036f00 	call	c0036f0 <XferCtrlReq>
 c002864:	e0bffc05 	stb	r2,-16(fp)
 c002868:	e0bffc03 	ldbu	r2,-16(fp)
 c00286c:	10000226 	beq	r2,zero,c002878 <HIDMProbe+0x364>
 c002870:	0005883a 	mov	r2,zero
 c002874:	00002406 	br	c002908 <HIDMProbe+0x3f4>
 c002878:	e0fffe03 	ldbu	r3,-8(fp)
 c00287c:	d0a79f43 	ldbu	r2,-24963(gp)
 c002880:	10803fcc 	andi	r2,r2,255
 c002884:	d8000415 	stw	zero,16(sp)
 c002888:	d8000315 	stw	zero,12(sp)
 c00288c:	d8800215 	stw	r2,8(sp)
 c002890:	d8000115 	stw	zero,4(sp)
 c002894:	d8000015 	stw	zero,0(sp)
 c002898:	01c002c4 	movi	r7,11
 c00289c:	01800844 	movi	r6,33
 c0028a0:	000b883a 	mov	r5,zero
 c0028a4:	1809883a 	mov	r4,r3
 c0028a8:	c0036f00 	call	c0036f0 <XferCtrlReq>
 c0028ac:	e0bffc05 	stb	r2,-16(fp)
 c0028b0:	e0bffc03 	ldbu	r2,-16(fp)
 c0028b4:	10000226 	beq	r2,zero,c0028c0 <HIDMProbe+0x3ac>
 c0028b8:	0005883a 	mov	r2,zero
 c0028bc:	00001206 	br	c002908 <HIDMProbe+0x3f4>
 c0028c0:	00800044 	movi	r2,1
 c0028c4:	00001006 	br	c002908 <HIDMProbe+0x3f4>
 c0028c8:	e0fff90b 	ldhu	r3,-28(fp)
 c0028cc:	008300b4 	movhi	r2,3074
 c0028d0:	10878004 	addi	r2,r2,7680
 c0028d4:	1885883a 	add	r2,r3,r2
 c0028d8:	e0fffb17 	ldw	r3,-20(fp)
 c0028dc:	18bf9f36 	bltu	r3,r2,c00275c <__alt_data_end+0xfc00275c>
 c0028e0:	00000206 	br	c0028ec <HIDMProbe+0x3d8>
 c0028e4:	0005883a 	mov	r2,zero
 c0028e8:	00000706 	br	c002908 <HIDMProbe+0x3f4>
 c0028ec:	e0fff90b 	ldhu	r3,-28(fp)
 c0028f0:	008300b4 	movhi	r2,3074
 c0028f4:	10878004 	addi	r2,r2,7680
 c0028f8:	1885883a 	add	r2,r3,r2
 c0028fc:	e0fffb17 	ldw	r3,-20(fp)
 c002900:	18bf4736 	bltu	r3,r2,c002620 <__alt_data_end+0xfc002620>
 c002904:	0005883a 	mov	r2,zero
 c002908:	e037883a 	mov	sp,fp
 c00290c:	dfc00117 	ldw	ra,4(sp)
 c002910:	df000017 	ldw	fp,0(sp)
 c002914:	dec00204 	addi	sp,sp,8
 c002918:	f800283a 	ret

0c00291c <HIDKProbe>:
 c00291c:	defff204 	addi	sp,sp,-56
 c002920:	dfc00d15 	stw	ra,52(sp)
 c002924:	df000c15 	stw	fp,48(sp)
 c002928:	df000c04 	addi	fp,sp,48
 c00292c:	2005883a 	mov	r2,r4
 c002930:	e17fff15 	stw	r5,-4(fp)
 c002934:	e0bffe05 	stb	r2,-8(fp)
 c002938:	008300b4 	movhi	r2,3074
 c00293c:	10878004 	addi	r2,r2,7680
 c002940:	e0bffa15 	stw	r2,-24(fp)
 c002944:	008300b4 	movhi	r2,3074
 c002948:	10878004 	addi	r2,r2,7680
 c00294c:	e0bffb15 	stw	r2,-20(fp)
 c002950:	e0fffe03 	ldbu	r3,-8(fp)
 c002954:	008300b4 	movhi	r2,3074
 c002958:	10878004 	addi	r2,r2,7680
 c00295c:	d8800415 	stw	r2,16(sp)
 c002960:	00800244 	movi	r2,9
 c002964:	d8800315 	stw	r2,12(sp)
 c002968:	d8000215 	stw	zero,8(sp)
 c00296c:	00800084 	movi	r2,2
 c002970:	d8800115 	stw	r2,4(sp)
 c002974:	d8000015 	stw	zero,0(sp)
 c002978:	01c00184 	movi	r7,6
 c00297c:	01802004 	movi	r6,128
 c002980:	000b883a 	mov	r5,zero
 c002984:	1809883a 	mov	r4,r3
 c002988:	c0036f00 	call	c0036f0 <XferCtrlReq>
 c00298c:	e0bffc05 	stb	r2,-16(fp)
 c002990:	e0bffc03 	ldbu	r2,-16(fp)
 c002994:	10000226 	beq	r2,zero,c0029a0 <HIDKProbe+0x84>
 c002998:	0005883a 	mov	r2,zero
 c00299c:	0000dc06 	br	c002d10 <HIDKProbe+0x3f4>
 c0029a0:	e0bffa17 	ldw	r2,-24(fp)
 c0029a4:	1080008b 	ldhu	r2,2(r2)
 c0029a8:	10bfffcc 	andi	r2,r2,65535
 c0029ac:	10804070 	cmpltui	r2,r2,257
 c0029b0:	1000031e 	bne	r2,zero,c0029c0 <HIDKProbe+0xa4>
 c0029b4:	00804004 	movi	r2,256
 c0029b8:	e0bff90d 	sth	r2,-28(fp)
 c0029bc:	00000306 	br	c0029cc <HIDKProbe+0xb0>
 c0029c0:	e0bffa17 	ldw	r2,-24(fp)
 c0029c4:	1080008b 	ldhu	r2,2(r2)
 c0029c8:	e0bff90d 	sth	r2,-28(fp)
 c0029cc:	e13ffe03 	ldbu	r4,-8(fp)
 c0029d0:	e0fff90b 	ldhu	r3,-28(fp)
 c0029d4:	008300b4 	movhi	r2,3074
 c0029d8:	10878004 	addi	r2,r2,7680
 c0029dc:	d8800415 	stw	r2,16(sp)
 c0029e0:	d8c00315 	stw	r3,12(sp)
 c0029e4:	d8000215 	stw	zero,8(sp)
 c0029e8:	00800084 	movi	r2,2
 c0029ec:	d8800115 	stw	r2,4(sp)
 c0029f0:	d8000015 	stw	zero,0(sp)
 c0029f4:	01c00184 	movi	r7,6
 c0029f8:	01802004 	movi	r6,128
 c0029fc:	000b883a 	mov	r5,zero
 c002a00:	c0036f00 	call	c0036f0 <XferCtrlReq>
 c002a04:	e0bffc05 	stb	r2,-16(fp)
 c002a08:	e0bffc03 	ldbu	r2,-16(fp)
 c002a0c:	10000226 	beq	r2,zero,c002a18 <HIDKProbe+0xfc>
 c002a10:	0005883a 	mov	r2,zero
 c002a14:	0000be06 	br	c002d10 <HIDKProbe+0x3f4>
 c002a18:	e0bffa17 	ldw	r2,-24(fp)
 c002a1c:	10800143 	ldbu	r2,5(r2)
 c002a20:	e0bffc45 	stb	r2,-15(fp)
 c002a24:	0000b306 	br	c002cf4 <HIDKProbe+0x3d8>
 c002a28:	e0bffa17 	ldw	r2,-24(fp)
 c002a2c:	10800043 	ldbu	r2,1(r2)
 c002a30:	10803fcc 	andi	r2,r2,255
 c002a34:	10800120 	cmpeqi	r2,r2,4
 c002a38:	1000091e 	bne	r2,zero,c002a60 <HIDKProbe+0x144>
 c002a3c:	e0bffa17 	ldw	r2,-24(fp)
 c002a40:	10800003 	ldbu	r2,0(r2)
 c002a44:	10803fcc 	andi	r2,r2,255
 c002a48:	e0fffb17 	ldw	r3,-20(fp)
 c002a4c:	1885883a 	add	r2,r3,r2
 c002a50:	e0bffb15 	stw	r2,-20(fp)
 c002a54:	e0bffb17 	ldw	r2,-20(fp)
 c002a58:	e0bffa15 	stw	r2,-24(fp)
 c002a5c:	0000a506 	br	c002cf4 <HIDKProbe+0x3d8>
 c002a60:	e0bffa17 	ldw	r2,-24(fp)
 c002a64:	10800143 	ldbu	r2,5(r2)
 c002a68:	e0bffc85 	stb	r2,-14(fp)
 c002a6c:	e0bffa17 	ldw	r2,-24(fp)
 c002a70:	10800183 	ldbu	r2,6(r2)
 c002a74:	e0bffcc5 	stb	r2,-13(fp)
 c002a78:	e0bffa17 	ldw	r2,-24(fp)
 c002a7c:	108001c3 	ldbu	r2,7(r2)
 c002a80:	e0bffd05 	stb	r2,-12(fp)
 c002a84:	e0bffc83 	ldbu	r2,-14(fp)
 c002a88:	108000d8 	cmpnei	r2,r2,3
 c002a8c:	1000971e 	bne	r2,zero,c002cec <HIDKProbe+0x3d0>
 c002a90:	e0bffcc3 	ldbu	r2,-13(fp)
 c002a94:	10800058 	cmpnei	r2,r2,1
 c002a98:	1000941e 	bne	r2,zero,c002cec <HIDKProbe+0x3d0>
 c002a9c:	e0bffd03 	ldbu	r2,-12(fp)
 c002aa0:	10800058 	cmpnei	r2,r2,1
 c002aa4:	1000911e 	bne	r2,zero,c002cec <HIDKProbe+0x3d0>
 c002aa8:	e0fffe03 	ldbu	r3,-8(fp)
 c002aac:	008300b4 	movhi	r2,3074
 c002ab0:	1087c004 	addi	r2,r2,7936
 c002ab4:	180690fa 	slli	r3,r3,3
 c002ab8:	10c5883a 	add	r2,r2,r3
 c002abc:	10800104 	addi	r2,r2,4
 c002ac0:	00c00044 	movi	r3,1
 c002ac4:	10c00005 	stb	r3,0(r2)
 c002ac8:	e0fffe03 	ldbu	r3,-8(fp)
 c002acc:	008300b4 	movhi	r2,3074
 c002ad0:	1087c004 	addi	r2,r2,7936
 c002ad4:	180690fa 	slli	r3,r3,3
 c002ad8:	10c5883a 	add	r2,r2,r3
 c002adc:	10800017 	ldw	r2,0(r2)
 c002ae0:	1080008b 	ldhu	r2,2(r2)
 c002ae4:	e0bffd45 	stb	r2,-11(fp)
 c002ae8:	c002d240 	call	c002d24 <HID_init>
 c002aec:	e0fffe03 	ldbu	r3,-8(fp)
 c002af0:	008300b4 	movhi	r2,3074
 c002af4:	1087c004 	addi	r2,r2,7936
 c002af8:	180690fa 	slli	r3,r3,3
 c002afc:	10c7883a 	add	r3,r2,r3
 c002b00:	008300b4 	movhi	r2,3074
 c002b04:	10876c04 	addi	r2,r2,7600
 c002b08:	18800015 	stw	r2,0(r3)
 c002b0c:	e0fffe03 	ldbu	r3,-8(fp)
 c002b10:	008300b4 	movhi	r2,3074
 c002b14:	1087c004 	addi	r2,r2,7936
 c002b18:	180690fa 	slli	r3,r3,3
 c002b1c:	10c5883a 	add	r2,r2,r3
 c002b20:	10800017 	ldw	r2,0(r2)
 c002b24:	e0fffd43 	ldbu	r3,-11(fp)
 c002b28:	10c0008d 	sth	r3,2(r2)
 c002b2c:	e0bffa17 	ldw	r2,-24(fp)
 c002b30:	10800083 	ldbu	r2,2(r2)
 c002b34:	d0a79f45 	stb	r2,-24963(gp)
 c002b38:	e0bffe03 	ldbu	r2,-8(fp)
 c002b3c:	d0a79f05 	stb	r2,-24964(gp)
 c002b40:	e0bffa17 	ldw	r2,-24(fp)
 c002b44:	10800003 	ldbu	r2,0(r2)
 c002b48:	10803fcc 	andi	r2,r2,255
 c002b4c:	e0fffb17 	ldw	r3,-20(fp)
 c002b50:	1885883a 	add	r2,r3,r2
 c002b54:	e0bffb15 	stw	r2,-20(fp)
 c002b58:	e0bffb17 	ldw	r2,-20(fp)
 c002b5c:	e0bffa15 	stw	r2,-24(fp)
 c002b60:	00005b06 	br	c002cd0 <HIDKProbe+0x3b4>
 c002b64:	e0bffa17 	ldw	r2,-24(fp)
 c002b68:	10800043 	ldbu	r2,1(r2)
 c002b6c:	10803fcc 	andi	r2,r2,255
 c002b70:	10800160 	cmpeqi	r2,r2,5
 c002b74:	1000091e 	bne	r2,zero,c002b9c <HIDKProbe+0x280>
 c002b78:	e0bffa17 	ldw	r2,-24(fp)
 c002b7c:	10800003 	ldbu	r2,0(r2)
 c002b80:	10803fcc 	andi	r2,r2,255
 c002b84:	e0fffb17 	ldw	r3,-20(fp)
 c002b88:	1885883a 	add	r2,r3,r2
 c002b8c:	e0bffb15 	stw	r2,-20(fp)
 c002b90:	e0bffb17 	ldw	r2,-20(fp)
 c002b94:	e0bffa15 	stw	r2,-24(fp)
 c002b98:	00004d06 	br	c002cd0 <HIDKProbe+0x3b4>
 c002b9c:	e0fffe03 	ldbu	r3,-8(fp)
 c002ba0:	008300b4 	movhi	r2,3074
 c002ba4:	1087c004 	addi	r2,r2,7936
 c002ba8:	180690fa 	slli	r3,r3,3
 c002bac:	10c5883a 	add	r2,r2,r3
 c002bb0:	10800017 	ldw	r2,0(r2)
 c002bb4:	10800204 	addi	r2,r2,8
 c002bb8:	e0fffa17 	ldw	r3,-24(fp)
 c002bbc:	18c00083 	ldbu	r3,2(r3)
 c002bc0:	10c00005 	stb	r3,0(r2)
 c002bc4:	e0fffe03 	ldbu	r3,-8(fp)
 c002bc8:	008300b4 	movhi	r2,3074
 c002bcc:	1087c004 	addi	r2,r2,7936
 c002bd0:	180690fa 	slli	r3,r3,3
 c002bd4:	10c5883a 	add	r2,r2,r3
 c002bd8:	10800017 	ldw	r2,0(r2)
 c002bdc:	10800204 	addi	r2,r2,8
 c002be0:	e0fffa17 	ldw	r3,-24(fp)
 c002be4:	18c000c3 	ldbu	r3,3(r3)
 c002be8:	10c00045 	stb	r3,1(r2)
 c002bec:	e0fffe03 	ldbu	r3,-8(fp)
 c002bf0:	008300b4 	movhi	r2,3074
 c002bf4:	1087c004 	addi	r2,r2,7936
 c002bf8:	180690fa 	slli	r3,r3,3
 c002bfc:	10c5883a 	add	r2,r2,r3
 c002c00:	10800017 	ldw	r2,0(r2)
 c002c04:	10800204 	addi	r2,r2,8
 c002c08:	e0fffa17 	ldw	r3,-24(fp)
 c002c0c:	18c0010b 	ldhu	r3,4(r3)
 c002c10:	10c0008d 	sth	r3,2(r2)
 c002c14:	e0fffe03 	ldbu	r3,-8(fp)
 c002c18:	008300b4 	movhi	r2,3074
 c002c1c:	1087c004 	addi	r2,r2,7936
 c002c20:	180690fa 	slli	r3,r3,3
 c002c24:	10c5883a 	add	r2,r2,r3
 c002c28:	10800017 	ldw	r2,0(r2)
 c002c2c:	10800204 	addi	r2,r2,8
 c002c30:	e0fffa17 	ldw	r3,-24(fp)
 c002c34:	18c00183 	ldbu	r3,6(r3)
 c002c38:	10c00105 	stb	r3,4(r2)
 c002c3c:	e0fffe03 	ldbu	r3,-8(fp)
 c002c40:	e0bffc43 	ldbu	r2,-15(fp)
 c002c44:	d8000415 	stw	zero,16(sp)
 c002c48:	d8000315 	stw	zero,12(sp)
 c002c4c:	d8000215 	stw	zero,8(sp)
 c002c50:	d8000115 	stw	zero,4(sp)
 c002c54:	d8800015 	stw	r2,0(sp)
 c002c58:	01c00244 	movi	r7,9
 c002c5c:	000d883a 	mov	r6,zero
 c002c60:	000b883a 	mov	r5,zero
 c002c64:	1809883a 	mov	r4,r3
 c002c68:	c0036f00 	call	c0036f0 <XferCtrlReq>
 c002c6c:	e0bffc05 	stb	r2,-16(fp)
 c002c70:	e0bffc03 	ldbu	r2,-16(fp)
 c002c74:	10000226 	beq	r2,zero,c002c80 <HIDKProbe+0x364>
 c002c78:	0005883a 	mov	r2,zero
 c002c7c:	00002406 	br	c002d10 <HIDKProbe+0x3f4>
 c002c80:	e0fffe03 	ldbu	r3,-8(fp)
 c002c84:	d0a79f43 	ldbu	r2,-24963(gp)
 c002c88:	10803fcc 	andi	r2,r2,255
 c002c8c:	d8000415 	stw	zero,16(sp)
 c002c90:	d8000315 	stw	zero,12(sp)
 c002c94:	d8800215 	stw	r2,8(sp)
 c002c98:	d8000115 	stw	zero,4(sp)
 c002c9c:	d8000015 	stw	zero,0(sp)
 c002ca0:	01c002c4 	movi	r7,11
 c002ca4:	01800844 	movi	r6,33
 c002ca8:	000b883a 	mov	r5,zero
 c002cac:	1809883a 	mov	r4,r3
 c002cb0:	c0036f00 	call	c0036f0 <XferCtrlReq>
 c002cb4:	e0bffc05 	stb	r2,-16(fp)
 c002cb8:	e0bffc03 	ldbu	r2,-16(fp)
 c002cbc:	10000226 	beq	r2,zero,c002cc8 <HIDKProbe+0x3ac>
 c002cc0:	0005883a 	mov	r2,zero
 c002cc4:	00001206 	br	c002d10 <HIDKProbe+0x3f4>
 c002cc8:	00800044 	movi	r2,1
 c002ccc:	00001006 	br	c002d10 <HIDKProbe+0x3f4>
 c002cd0:	e0fff90b 	ldhu	r3,-28(fp)
 c002cd4:	008300b4 	movhi	r2,3074
 c002cd8:	10878004 	addi	r2,r2,7680
 c002cdc:	1885883a 	add	r2,r3,r2
 c002ce0:	e0fffb17 	ldw	r3,-20(fp)
 c002ce4:	18bf9f36 	bltu	r3,r2,c002b64 <__alt_data_end+0xfc002b64>
 c002ce8:	00000206 	br	c002cf4 <HIDKProbe+0x3d8>
 c002cec:	0005883a 	mov	r2,zero
 c002cf0:	00000706 	br	c002d10 <HIDKProbe+0x3f4>
 c002cf4:	e0fff90b 	ldhu	r3,-28(fp)
 c002cf8:	008300b4 	movhi	r2,3074
 c002cfc:	10878004 	addi	r2,r2,7680
 c002d00:	1885883a 	add	r2,r3,r2
 c002d04:	e0fffb17 	ldw	r3,-20(fp)
 c002d08:	18bf4736 	bltu	r3,r2,c002a28 <__alt_data_end+0xfc002a28>
 c002d0c:	0005883a 	mov	r2,zero
 c002d10:	e037883a 	mov	sp,fp
 c002d14:	dfc00117 	ldw	ra,4(sp)
 c002d18:	df000017 	ldw	fp,0(sp)
 c002d1c:	dec00204 	addi	sp,sp,8
 c002d20:	f800283a 	ret

0c002d24 <HID_init>:
 c002d24:	deffff04 	addi	sp,sp,-4
 c002d28:	df000015 	stw	fp,0(sp)
 c002d2c:	d839883a 	mov	fp,sp
 c002d30:	008300b4 	movhi	r2,3074
 c002d34:	10876c04 	addi	r2,r2,7600
 c002d38:	00c01004 	movi	r3,64
 c002d3c:	10c00345 	stb	r3,13(r2)
 c002d40:	008300b4 	movhi	r2,3074
 c002d44:	10876c04 	addi	r2,r2,7600
 c002d48:	00c00404 	movi	r3,16
 c002d4c:	10c00385 	stb	r3,14(r2)
 c002d50:	0001883a 	nop
 c002d54:	e037883a 	mov	sp,fp
 c002d58:	df000017 	ldw	fp,0(sp)
 c002d5c:	dec00104 	addi	sp,sp,4
 c002d60:	f800283a 	ret

0c002d64 <mousePoll>:
 c002d64:	defffb04 	addi	sp,sp,-20
 c002d68:	dfc00415 	stw	ra,16(sp)
 c002d6c:	df000315 	stw	fp,12(sp)
 c002d70:	df000304 	addi	fp,sp,12
 c002d74:	e13fff15 	stw	r4,-4(fp)
 c002d78:	d0a79f03 	ldbu	r2,-24964(gp)
 c002d7c:	10803fcc 	andi	r2,r2,255
 c002d80:	100b883a 	mov	r5,r2
 c002d84:	01003804 	movi	r4,224
 c002d88:	c002f400 	call	c002f40 <MAXreg_wr>
 c002d8c:	d0a79f03 	ldbu	r2,-24964(gp)
 c002d90:	11003fcc 	andi	r4,r2,255
 c002d94:	d0a79f03 	ldbu	r2,-24964(gp)
 c002d98:	10c03fcc 	andi	r3,r2,255
 c002d9c:	008300b4 	movhi	r2,3074
 c002da0:	1087c004 	addi	r2,r2,7936
 c002da4:	180690fa 	slli	r3,r3,3
 c002da8:	10c5883a 	add	r2,r2,r3
 c002dac:	10800017 	ldw	r2,0(r2)
 c002db0:	10800204 	addi	r2,r2,8
 c002db4:	1080008b 	ldhu	r2,2(r2)
 c002db8:	10803fcc 	andi	r2,r2,255
 c002dbc:	d8800015 	stw	r2,0(sp)
 c002dc0:	e1ffff17 	ldw	r7,-4(fp)
 c002dc4:	01800204 	movi	r6,8
 c002dc8:	01400044 	movi	r5,1
 c002dcc:	c003b140 	call	c003b14 <XferInTransfer>
 c002dd0:	e0bffe05 	stb	r2,-8(fp)
 c002dd4:	e0bffe03 	ldbu	r2,-8(fp)
 c002dd8:	e037883a 	mov	sp,fp
 c002ddc:	dfc00117 	ldw	ra,4(sp)
 c002de0:	df000017 	ldw	fp,0(sp)
 c002de4:	dec00204 	addi	sp,sp,8
 c002de8:	f800283a 	ret

0c002dec <kbdPoll>:
 c002dec:	defffb04 	addi	sp,sp,-20
 c002df0:	dfc00415 	stw	ra,16(sp)
 c002df4:	df000315 	stw	fp,12(sp)
 c002df8:	df000304 	addi	fp,sp,12
 c002dfc:	e13fff15 	stw	r4,-4(fp)
 c002e00:	d0a79f03 	ldbu	r2,-24964(gp)
 c002e04:	10803fcc 	andi	r2,r2,255
 c002e08:	100b883a 	mov	r5,r2
 c002e0c:	01003804 	movi	r4,224
 c002e10:	c002f400 	call	c002f40 <MAXreg_wr>
 c002e14:	d0a79f03 	ldbu	r2,-24964(gp)
 c002e18:	11003fcc 	andi	r4,r2,255
 c002e1c:	d0a79f03 	ldbu	r2,-24964(gp)
 c002e20:	10c03fcc 	andi	r3,r2,255
 c002e24:	008300b4 	movhi	r2,3074
 c002e28:	1087c004 	addi	r2,r2,7936
 c002e2c:	180690fa 	slli	r3,r3,3
 c002e30:	10c5883a 	add	r2,r2,r3
 c002e34:	10800017 	ldw	r2,0(r2)
 c002e38:	10800204 	addi	r2,r2,8
 c002e3c:	1080008b 	ldhu	r2,2(r2)
 c002e40:	10803fcc 	andi	r2,r2,255
 c002e44:	d8800015 	stw	r2,0(sp)
 c002e48:	e1ffff17 	ldw	r7,-4(fp)
 c002e4c:	01800204 	movi	r6,8
 c002e50:	01400044 	movi	r5,1
 c002e54:	c003b140 	call	c003b14 <XferInTransfer>
 c002e58:	e0bffe05 	stb	r2,-8(fp)
 c002e5c:	e0bffe03 	ldbu	r2,-8(fp)
 c002e60:	e037883a 	mov	sp,fp
 c002e64:	dfc00117 	ldw	ra,4(sp)
 c002e68:	df000017 	ldw	fp,0(sp)
 c002e6c:	dec00204 	addi	sp,sp,8
 c002e70:	f800283a 	ret

0c002e74 <HIDMEventHandler>:
 c002e74:	defffb04 	addi	sp,sp,-20
 c002e78:	df000415 	stw	fp,16(sp)
 c002e7c:	df000404 	addi	fp,sp,16
 c002e80:	2007883a 	mov	r3,r4
 c002e84:	2805883a 	mov	r2,r5
 c002e88:	e1bffe15 	stw	r6,-8(fp)
 c002e8c:	e1ffff15 	stw	r7,-4(fp)
 c002e90:	e0fffc05 	stb	r3,-16(fp)
 c002e94:	e0bffd05 	stb	r2,-12(fp)
 c002e98:	0005883a 	mov	r2,zero
 c002e9c:	e037883a 	mov	sp,fp
 c002ea0:	df000017 	ldw	fp,0(sp)
 c002ea4:	dec00104 	addi	sp,sp,4
 c002ea8:	f800283a 	ret

0c002eac <HIDKEventHandler>:
 c002eac:	defffb04 	addi	sp,sp,-20
 c002eb0:	df000415 	stw	fp,16(sp)
 c002eb4:	df000404 	addi	fp,sp,16
 c002eb8:	2007883a 	mov	r3,r4
 c002ebc:	2805883a 	mov	r2,r5
 c002ec0:	e1bffe15 	stw	r6,-8(fp)
 c002ec4:	e1ffff15 	stw	r7,-4(fp)
 c002ec8:	e0fffc05 	stb	r3,-16(fp)
 c002ecc:	e0bffd05 	stb	r2,-12(fp)
 c002ed0:	0005883a 	mov	r2,zero
 c002ed4:	e037883a 	mov	sp,fp
 c002ed8:	df000017 	ldw	fp,0(sp)
 c002edc:	dec00104 	addi	sp,sp,4
 c002ee0:	f800283a 	ret

0c002ee4 <SPI_init>:
 c002ee4:	defffc04 	addi	sp,sp,-16
 c002ee8:	df000315 	stw	fp,12(sp)
 c002eec:	df000304 	addi	fp,sp,12
 c002ef0:	2807883a 	mov	r3,r5
 c002ef4:	3005883a 	mov	r2,r6
 c002ef8:	e13ffd05 	stb	r4,-12(fp)
 c002efc:	e0fffe05 	stb	r3,-8(fp)
 c002f00:	e0bfff05 	stb	r2,-4(fp)
 c002f04:	0001883a 	nop
 c002f08:	e037883a 	mov	sp,fp
 c002f0c:	df000017 	ldw	fp,0(sp)
 c002f10:	dec00104 	addi	sp,sp,4
 c002f14:	f800283a 	ret

0c002f18 <SPI_wr>:
 c002f18:	defffe04 	addi	sp,sp,-8
 c002f1c:	df000115 	stw	fp,4(sp)
 c002f20:	df000104 	addi	fp,sp,4
 c002f24:	2005883a 	mov	r2,r4
 c002f28:	e0bfff05 	stb	r2,-4(fp)
 c002f2c:	0001883a 	nop
 c002f30:	e037883a 	mov	sp,fp
 c002f34:	df000017 	ldw	fp,0(sp)
 c002f38:	dec00104 	addi	sp,sp,4
 c002f3c:	f800283a 	ret

0c002f40 <MAXreg_wr>:
 c002f40:	defff704 	addi	sp,sp,-36
 c002f44:	dfc00815 	stw	ra,32(sp)
 c002f48:	df000715 	stw	fp,28(sp)
 c002f4c:	df000704 	addi	fp,sp,28
 c002f50:	2007883a 	mov	r3,r4
 c002f54:	2805883a 	mov	r2,r5
 c002f58:	e0fffe05 	stb	r3,-8(fp)
 c002f5c:	e0bfff05 	stb	r2,-4(fp)
 c002f60:	e0bffe03 	ldbu	r2,-8(fp)
 c002f64:	10800084 	addi	r2,r2,2
 c002f68:	e0bffd05 	stb	r2,-12(fp)
 c002f6c:	e0bfff03 	ldbu	r2,-4(fp)
 c002f70:	e0bffd45 	stb	r2,-11(fp)
 c002f74:	e0bffd04 	addi	r2,fp,-12
 c002f78:	d8000215 	stw	zero,8(sp)
 c002f7c:	d8000115 	stw	zero,4(sp)
 c002f80:	d8000015 	stw	zero,0(sp)
 c002f84:	100f883a 	mov	r7,r2
 c002f88:	01800084 	movi	r6,2
 c002f8c:	000b883a 	mov	r5,zero
 c002f90:	01003004 	movi	r4,192
 c002f94:	c01c1ec0 	call	c01c1ec <alt_avalon_spi_command>
 c002f98:	e0bffc15 	stw	r2,-16(fp)
 c002f9c:	e0bffc17 	ldw	r2,-16(fp)
 c002fa0:	1000030e 	bge	r2,zero,c002fb0 <MAXreg_wr+0x70>
 c002fa4:	010300b4 	movhi	r4,3074
 c002fa8:	21364e04 	addi	r4,r4,-9928
 c002fac:	c01aec80 	call	c01aec8 <alt_printf>
 c002fb0:	0001883a 	nop
 c002fb4:	e037883a 	mov	sp,fp
 c002fb8:	dfc00117 	ldw	ra,4(sp)
 c002fbc:	df000017 	ldw	fp,0(sp)
 c002fc0:	dec00204 	addi	sp,sp,8
 c002fc4:	f800283a 	ret

0c002fc8 <MAXbytes_wr>:
 c002fc8:	defff304 	addi	sp,sp,-52
 c002fcc:	dfc00c15 	stw	ra,48(sp)
 c002fd0:	df000b15 	stw	fp,44(sp)
 c002fd4:	dc000a15 	stw	r16,40(sp)
 c002fd8:	df000b04 	addi	fp,sp,44
 c002fdc:	201b883a 	mov	r13,r4
 c002fe0:	2809883a 	mov	r4,r5
 c002fe4:	e1bffe15 	stw	r6,-8(fp)
 c002fe8:	e37ffc05 	stb	r13,-16(fp)
 c002fec:	e13ffd05 	stb	r4,-12(fp)
 c002ff0:	d809883a 	mov	r4,sp
 c002ff4:	2021883a 	mov	r16,r4
 c002ff8:	e13ffd03 	ldbu	r4,-12(fp)
 c002ffc:	21000044 	addi	r4,r4,1
 c003000:	217fffc4 	addi	r5,r4,-1
 c003004:	e17ff915 	stw	r5,-28(fp)
 c003008:	200b883a 	mov	r5,r4
 c00300c:	2817883a 	mov	r11,r5
 c003010:	0019883a 	mov	r12,zero
 c003014:	580ad77a 	srli	r5,r11,29
 c003018:	601090fa 	slli	r8,r12,3
 c00301c:	2a10b03a 	or	r8,r5,r8
 c003020:	580e90fa 	slli	r7,r11,3
 c003024:	200b883a 	mov	r5,r4
 c003028:	2813883a 	mov	r9,r5
 c00302c:	0015883a 	mov	r10,zero
 c003030:	480ad77a 	srli	r5,r9,29
 c003034:	500690fa 	slli	r3,r10,3
 c003038:	28c6b03a 	or	r3,r5,r3
 c00303c:	480490fa 	slli	r2,r9,3
 c003040:	2005883a 	mov	r2,r4
 c003044:	108000c4 	addi	r2,r2,3
 c003048:	1004d0ba 	srli	r2,r2,2
 c00304c:	1085883a 	add	r2,r2,r2
 c003050:	1085883a 	add	r2,r2,r2
 c003054:	d8b7c83a 	sub	sp,sp,r2
 c003058:	d8800304 	addi	r2,sp,12
 c00305c:	1005883a 	mov	r2,r2
 c003060:	e0bffa15 	stw	r2,-24(fp)
 c003064:	e0bffc03 	ldbu	r2,-16(fp)
 c003068:	10800084 	addi	r2,r2,2
 c00306c:	1007883a 	mov	r3,r2
 c003070:	e0bffa17 	ldw	r2,-24(fp)
 c003074:	10c00005 	stb	r3,0(r2)
 c003078:	00800044 	movi	r2,1
 c00307c:	e0bff815 	stw	r2,-32(fp)
 c003080:	00000c06 	br	c0030b4 <MAXbytes_wr+0xec>
 c003084:	e0bff817 	ldw	r2,-32(fp)
 c003088:	10bfffc4 	addi	r2,r2,-1
 c00308c:	e0fffe17 	ldw	r3,-8(fp)
 c003090:	1885883a 	add	r2,r3,r2
 c003094:	10c00003 	ldbu	r3,0(r2)
 c003098:	e13ffa17 	ldw	r4,-24(fp)
 c00309c:	e0bff817 	ldw	r2,-32(fp)
 c0030a0:	2085883a 	add	r2,r4,r2
 c0030a4:	10c00005 	stb	r3,0(r2)
 c0030a8:	e0bff817 	ldw	r2,-32(fp)
 c0030ac:	10800044 	addi	r2,r2,1
 c0030b0:	e0bff815 	stw	r2,-32(fp)
 c0030b4:	e0fffd03 	ldbu	r3,-12(fp)
 c0030b8:	e0bff817 	ldw	r2,-32(fp)
 c0030bc:	18bff10e 	bge	r3,r2,c003084 <__alt_data_end+0xfc003084>
 c0030c0:	e0bffd03 	ldbu	r2,-12(fp)
 c0030c4:	10800044 	addi	r2,r2,1
 c0030c8:	1007883a 	mov	r3,r2
 c0030cc:	e0bffa17 	ldw	r2,-24(fp)
 c0030d0:	d8000215 	stw	zero,8(sp)
 c0030d4:	d8000115 	stw	zero,4(sp)
 c0030d8:	d8000015 	stw	zero,0(sp)
 c0030dc:	100f883a 	mov	r7,r2
 c0030e0:	180d883a 	mov	r6,r3
 c0030e4:	000b883a 	mov	r5,zero
 c0030e8:	01003004 	movi	r4,192
 c0030ec:	c01c1ec0 	call	c01c1ec <alt_avalon_spi_command>
 c0030f0:	e0bffb15 	stw	r2,-20(fp)
 c0030f4:	e0bffb17 	ldw	r2,-20(fp)
 c0030f8:	1000030e 	bge	r2,zero,c003108 <MAXbytes_wr+0x140>
 c0030fc:	010300b4 	movhi	r4,3074
 c003100:	21364e04 	addi	r4,r4,-9928
 c003104:	c01aec80 	call	c01aec8 <alt_printf>
 c003108:	e0bffd03 	ldbu	r2,-12(fp)
 c00310c:	e0fffe17 	ldw	r3,-8(fp)
 c003110:	1885883a 	add	r2,r3,r2
 c003114:	8037883a 	mov	sp,r16
 c003118:	e6ffff04 	addi	sp,fp,-4
 c00311c:	dfc00217 	ldw	ra,8(sp)
 c003120:	df000117 	ldw	fp,4(sp)
 c003124:	dc000017 	ldw	r16,0(sp)
 c003128:	dec00304 	addi	sp,sp,12
 c00312c:	f800283a 	ret

0c003130 <MAXreg_rd>:
 c003130:	defff804 	addi	sp,sp,-32
 c003134:	dfc00715 	stw	ra,28(sp)
 c003138:	df000615 	stw	fp,24(sp)
 c00313c:	df000604 	addi	fp,sp,24
 c003140:	2005883a 	mov	r2,r4
 c003144:	e0bfff05 	stb	r2,-4(fp)
 c003148:	e0ffff04 	addi	r3,fp,-4
 c00314c:	d8000215 	stw	zero,8(sp)
 c003150:	e0bffe04 	addi	r2,fp,-8
 c003154:	d8800115 	stw	r2,4(sp)
 c003158:	00800044 	movi	r2,1
 c00315c:	d8800015 	stw	r2,0(sp)
 c003160:	180f883a 	mov	r7,r3
 c003164:	01800044 	movi	r6,1
 c003168:	000b883a 	mov	r5,zero
 c00316c:	01003004 	movi	r4,192
 c003170:	c01c1ec0 	call	c01c1ec <alt_avalon_spi_command>
 c003174:	e0bffd15 	stw	r2,-12(fp)
 c003178:	e0bffd17 	ldw	r2,-12(fp)
 c00317c:	1000030e 	bge	r2,zero,c00318c <MAXreg_rd+0x5c>
 c003180:	010300b4 	movhi	r4,3074
 c003184:	21364e04 	addi	r4,r4,-9928
 c003188:	c01aec80 	call	c01aec8 <alt_printf>
 c00318c:	e0bffe03 	ldbu	r2,-8(fp)
 c003190:	e037883a 	mov	sp,fp
 c003194:	dfc00117 	ldw	ra,4(sp)
 c003198:	df000017 	ldw	fp,0(sp)
 c00319c:	dec00204 	addi	sp,sp,8
 c0031a0:	f800283a 	ret

0c0031a4 <MAXbytes_rd>:
 c0031a4:	defff404 	addi	sp,sp,-48
 c0031a8:	dfc00b15 	stw	ra,44(sp)
 c0031ac:	df000a15 	stw	fp,40(sp)
 c0031b0:	dc000915 	stw	r16,36(sp)
 c0031b4:	df000a04 	addi	fp,sp,40
 c0031b8:	201b883a 	mov	r13,r4
 c0031bc:	2809883a 	mov	r4,r5
 c0031c0:	e1bffe15 	stw	r6,-8(fp)
 c0031c4:	e37ffc05 	stb	r13,-16(fp)
 c0031c8:	e13ffd05 	stb	r4,-12(fp)
 c0031cc:	d809883a 	mov	r4,sp
 c0031d0:	2021883a 	mov	r16,r4
 c0031d4:	e13ffd03 	ldbu	r4,-12(fp)
 c0031d8:	21403fcc 	andi	r5,r4,255
 c0031dc:	297fffc4 	addi	r5,r5,-1
 c0031e0:	e17ff915 	stw	r5,-28(fp)
 c0031e4:	21403fcc 	andi	r5,r4,255
 c0031e8:	2817883a 	mov	r11,r5
 c0031ec:	0019883a 	mov	r12,zero
 c0031f0:	580ad77a 	srli	r5,r11,29
 c0031f4:	601090fa 	slli	r8,r12,3
 c0031f8:	2a10b03a 	or	r8,r5,r8
 c0031fc:	580e90fa 	slli	r7,r11,3
 c003200:	21403fcc 	andi	r5,r4,255
 c003204:	2813883a 	mov	r9,r5
 c003208:	0015883a 	mov	r10,zero
 c00320c:	480ad77a 	srli	r5,r9,29
 c003210:	500690fa 	slli	r3,r10,3
 c003214:	28c6b03a 	or	r3,r5,r3
 c003218:	480490fa 	slli	r2,r9,3
 c00321c:	20803fcc 	andi	r2,r4,255
 c003220:	108000c4 	addi	r2,r2,3
 c003224:	1004d0ba 	srli	r2,r2,2
 c003228:	1085883a 	add	r2,r2,r2
 c00322c:	1085883a 	add	r2,r2,r2
 c003230:	d8b7c83a 	sub	sp,sp,r2
 c003234:	d8800304 	addi	r2,sp,12
 c003238:	1005883a 	mov	r2,r2
 c00323c:	e0bffa15 	stw	r2,-24(fp)
 c003240:	e0bffd03 	ldbu	r2,-12(fp)
 c003244:	e13ffc04 	addi	r4,fp,-16
 c003248:	d8000215 	stw	zero,8(sp)
 c00324c:	e0fffe17 	ldw	r3,-8(fp)
 c003250:	d8c00115 	stw	r3,4(sp)
 c003254:	d8800015 	stw	r2,0(sp)
 c003258:	200f883a 	mov	r7,r4
 c00325c:	01800044 	movi	r6,1
 c003260:	000b883a 	mov	r5,zero
 c003264:	01003004 	movi	r4,192
 c003268:	c01c1ec0 	call	c01c1ec <alt_avalon_spi_command>
 c00326c:	e0bffb15 	stw	r2,-20(fp)
 c003270:	e0bffb17 	ldw	r2,-20(fp)
 c003274:	1000030e 	bge	r2,zero,c003284 <MAXbytes_rd+0xe0>
 c003278:	010300b4 	movhi	r4,3074
 c00327c:	21364e04 	addi	r4,r4,-9928
 c003280:	c01aec80 	call	c01aec8 <alt_printf>
 c003284:	e0bffd03 	ldbu	r2,-12(fp)
 c003288:	e0fffe17 	ldw	r3,-8(fp)
 c00328c:	1885883a 	add	r2,r3,r2
 c003290:	8037883a 	mov	sp,r16
 c003294:	e6ffff04 	addi	sp,fp,-4
 c003298:	dfc00217 	ldw	ra,8(sp)
 c00329c:	df000117 	ldw	fp,4(sp)
 c0032a0:	dc000017 	ldw	r16,0(sp)
 c0032a4:	dec00304 	addi	sp,sp,12
 c0032a8:	f800283a 	ret

0c0032ac <MAX3421E_reset>:
 c0032ac:	defffd04 	addi	sp,sp,-12
 c0032b0:	dfc00215 	stw	ra,8(sp)
 c0032b4:	df000115 	stw	fp,4(sp)
 c0032b8:	df000104 	addi	fp,sp,4
 c0032bc:	0007883a 	mov	r3,zero
 c0032c0:	00805804 	movi	r2,352
 c0032c4:	10c00035 	stwio	r3,0(r2)
 c0032c8:	010003f4 	movhi	r4,15
 c0032cc:	21109004 	addi	r4,r4,16960
 c0032d0:	c01b5480 	call	c01b548 <usleep>
 c0032d4:	00c00044 	movi	r3,1
 c0032d8:	00805804 	movi	r2,352
 c0032dc:	10c00035 	stwio	r3,0(r2)
 c0032e0:	e03fff05 	stb	zero,-4(fp)
 c0032e4:	01400804 	movi	r5,32
 c0032e8:	01001e04 	movi	r4,120
 c0032ec:	c002f400 	call	c002f40 <MAXreg_wr>
 c0032f0:	000b883a 	mov	r5,zero
 c0032f4:	01001e04 	movi	r4,120
 c0032f8:	c002f400 	call	c002f40 <MAXreg_wr>
 c0032fc:	00000806 	br	c003320 <MAX3421E_reset+0x74>
 c003300:	e0bfff03 	ldbu	r2,-4(fp)
 c003304:	10800044 	addi	r2,r2,1
 c003308:	e0bfff05 	stb	r2,-4(fp)
 c00330c:	e0bfff03 	ldbu	r2,-4(fp)
 c003310:	1000031e 	bne	r2,zero,c003320 <MAX3421E_reset+0x74>
 c003314:	010300b4 	movhi	r4,3074
 c003318:	21365004 	addi	r4,r4,-9920
 c00331c:	c004fc80 	call	c004fc8 <printf>
 c003320:	01001a04 	movi	r4,104
 c003324:	c0031300 	call	c003130 <MAXreg_rd>
 c003328:	10803fcc 	andi	r2,r2,255
 c00332c:	1080004c 	andi	r2,r2,1
 c003330:	103ff326 	beq	r2,zero,c003300 <__alt_data_end+0xfc003300>
 c003334:	0001883a 	nop
 c003338:	e037883a 	mov	sp,fp
 c00333c:	dfc00117 	ldw	ra,4(sp)
 c003340:	df000017 	ldw	fp,0(sp)
 c003344:	dec00204 	addi	sp,sp,8
 c003348:	f800283a 	ret

0c00334c <Vbus_power>:
 c00334c:	defffe04 	addi	sp,sp,-8
 c003350:	df000115 	stw	fp,4(sp)
 c003354:	df000104 	addi	fp,sp,4
 c003358:	e13fff15 	stw	r4,-4(fp)
 c00335c:	00800044 	movi	r2,1
 c003360:	e037883a 	mov	sp,fp
 c003364:	df000017 	ldw	fp,0(sp)
 c003368:	dec00104 	addi	sp,sp,4
 c00336c:	f800283a 	ret

0c003370 <MAX_busprobe>:
 c003370:	defffd04 	addi	sp,sp,-12
 c003374:	dfc00215 	stw	ra,8(sp)
 c003378:	df000115 	stw	fp,4(sp)
 c00337c:	df000104 	addi	fp,sp,4
 c003380:	01003e04 	movi	r4,248
 c003384:	c0031300 	call	c003130 <MAXreg_rd>
 c003388:	e0bfff05 	stb	r2,-4(fp)
 c00338c:	e0ffff03 	ldbu	r3,-4(fp)
 c003390:	00bff004 	movi	r2,-64
 c003394:	1884703a 	and	r2,r3,r2
 c003398:	e0bfff05 	stb	r2,-4(fp)
 c00339c:	e0bfff03 	ldbu	r2,-4(fp)
 c0033a0:	10c01020 	cmpeqi	r3,r2,64
 c0033a4:	1800221e 	bne	r3,zero,c003430 <MAX_busprobe+0xc0>
 c0033a8:	10c01048 	cmpgei	r3,r2,65
 c0033ac:	1800021e 	bne	r3,zero,c0033b8 <MAX_busprobe+0x48>
 c0033b0:	10003b26 	beq	r2,zero,c0034a0 <MAX_busprobe+0x130>
 c0033b4:	00004a06 	br	c0034e0 <MAX_busprobe+0x170>
 c0033b8:	10c02020 	cmpeqi	r3,r2,128
 c0033bc:	1800031e 	bne	r3,zero,c0033cc <MAX_busprobe+0x5c>
 c0033c0:	10803020 	cmpeqi	r2,r2,192
 c0033c4:	1000331e 	bne	r2,zero,c003494 <MAX_busprobe+0x124>
 c0033c8:	00004506 	br	c0034e0 <MAX_busprobe+0x170>
 c0033cc:	d0a00503 	ldbu	r2,-32748(gp)
 c0033d0:	10803fcc 	andi	r2,r2,255
 c0033d4:	108004e0 	cmpeqi	r2,r2,19
 c0033d8:	10003e1e 	bne	r2,zero,c0034d4 <MAX_busprobe+0x164>
 c0033dc:	01003604 	movi	r4,216
 c0033e0:	c0031300 	call	c003130 <MAXreg_rd>
 c0033e4:	10803fcc 	andi	r2,r2,255
 c0033e8:	1080008c 	andi	r2,r2,2
 c0033ec:	1000071e 	bne	r2,zero,c00340c <MAX_busprobe+0x9c>
 c0033f0:	01403244 	movi	r5,201
 c0033f4:	01003604 	movi	r4,216
 c0033f8:	c002f400 	call	c002f40 <MAXreg_wr>
 c0033fc:	010300b4 	movhi	r4,3074
 c003400:	21365404 	addi	r4,r4,-9904
 c003404:	c0050e40 	call	c0050e4 <puts>
 c003408:	00000606 	br	c003424 <MAX_busprobe+0xb4>
 c00340c:	014032c4 	movi	r5,203
 c003410:	01003604 	movi	r4,216
 c003414:	c002f400 	call	c002f40 <MAXreg_wr>
 c003418:	010300b4 	movhi	r4,3074
 c00341c:	21365a04 	addi	r4,r4,-9880
 c003420:	c0050e40 	call	c0050e4 <puts>
 c003424:	00800404 	movi	r2,16
 c003428:	d0a00505 	stb	r2,-32748(gp)
 c00342c:	00002906 	br	c0034d4 <MAX_busprobe+0x164>
 c003430:	d0a00503 	ldbu	r2,-32748(gp)
 c003434:	10803fcc 	andi	r2,r2,255
 c003438:	108004e0 	cmpeqi	r2,r2,19
 c00343c:	1000271e 	bne	r2,zero,c0034dc <MAX_busprobe+0x16c>
 c003440:	01003604 	movi	r4,216
 c003444:	c0031300 	call	c003130 <MAXreg_rd>
 c003448:	10803fcc 	andi	r2,r2,255
 c00344c:	1080008c 	andi	r2,r2,2
 c003450:	1000071e 	bne	r2,zero,c003470 <MAX_busprobe+0x100>
 c003454:	014032c4 	movi	r5,203
 c003458:	01003604 	movi	r4,216
 c00345c:	c002f400 	call	c002f40 <MAXreg_wr>
 c003460:	010300b4 	movhi	r4,3074
 c003464:	21365a04 	addi	r4,r4,-9880
 c003468:	c0050e40 	call	c0050e4 <puts>
 c00346c:	00000606 	br	c003488 <MAX_busprobe+0x118>
 c003470:	01403244 	movi	r5,201
 c003474:	01003604 	movi	r4,216
 c003478:	c002f400 	call	c002f40 <MAXreg_wr>
 c00347c:	010300b4 	movhi	r4,3074
 c003480:	21365404 	addi	r4,r4,-9904
 c003484:	c0050e40 	call	c0050e4 <puts>
 c003488:	00800404 	movi	r2,16
 c00348c:	d0a00505 	stb	r2,-32748(gp)
 c003490:	00001206 	br	c0034dc <MAX_busprobe+0x16c>
 c003494:	00800104 	movi	r2,4
 c003498:	d0a00505 	stb	r2,-32748(gp)
 c00349c:	00001006 	br	c0034e0 <MAX_busprobe+0x170>
 c0034a0:	d0a00503 	ldbu	r2,-32748(gp)
 c0034a4:	10803fcc 	andi	r2,r2,255
 c0034a8:	10803c0c 	andi	r2,r2,240
 c0034ac:	10000326 	beq	r2,zero,c0034bc <MAX_busprobe+0x14c>
 c0034b0:	00800044 	movi	r2,1
 c0034b4:	d0a00505 	stb	r2,-32748(gp)
 c0034b8:	00000906 	br	c0034e0 <MAX_busprobe+0x170>
 c0034bc:	01403244 	movi	r5,201
 c0034c0:	01003604 	movi	r4,216
 c0034c4:	c002f400 	call	c002f40 <MAXreg_wr>
 c0034c8:	008000c4 	movi	r2,3
 c0034cc:	d0a00505 	stb	r2,-32748(gp)
 c0034d0:	00000306 	br	c0034e0 <MAX_busprobe+0x170>
 c0034d4:	0001883a 	nop
 c0034d8:	00000106 	br	c0034e0 <MAX_busprobe+0x170>
 c0034dc:	0001883a 	nop
 c0034e0:	0001883a 	nop
 c0034e4:	e037883a 	mov	sp,fp
 c0034e8:	dfc00117 	ldw	ra,4(sp)
 c0034ec:	df000017 	ldw	fp,0(sp)
 c0034f0:	dec00204 	addi	sp,sp,8
 c0034f4:	f800283a 	ret

0c0034f8 <MAX3421E_init>:
 c0034f8:	defffe04 	addi	sp,sp,-8
 c0034fc:	dfc00115 	stw	ra,4(sp)
 c003500:	df000015 	stw	fp,0(sp)
 c003504:	d839883a 	mov	fp,sp
 c003508:	01400684 	movi	r5,26
 c00350c:	01002204 	movi	r4,136
 c003510:	c002f400 	call	c002f40 <MAXreg_wr>
 c003514:	c0032ac0 	call	c0032ac <MAX3421E_reset>
 c003518:	0009883a 	mov	r4,zero
 c00351c:	c00334c0 	call	c00334c <Vbus_power>
 c003520:	01402004 	movi	r5,128
 c003524:	01002e04 	movi	r4,184
 c003528:	c002f400 	call	c002f40 <MAXreg_wr>
 c00352c:	01000044 	movi	r4,1
 c003530:	c00334c0 	call	c00334c <Vbus_power>
 c003534:	01403444 	movi	r5,209
 c003538:	01003604 	movi	r4,216
 c00353c:	c002f400 	call	c002f40 <MAXreg_wr>
 c003540:	01400804 	movi	r5,32
 c003544:	01003404 	movi	r4,208
 c003548:	c002f400 	call	c002f40 <MAXreg_wr>
 c00354c:	01400104 	movi	r5,4
 c003550:	01003a04 	movi	r4,232
 c003554:	c002f400 	call	c002f40 <MAXreg_wr>
 c003558:	c0033700 	call	c003370 <MAX_busprobe>
 c00355c:	01400804 	movi	r5,32
 c003560:	01003204 	movi	r4,200
 c003564:	c002f400 	call	c002f40 <MAXreg_wr>
 c003568:	01400044 	movi	r5,1
 c00356c:	01002004 	movi	r4,128
 c003570:	c002f400 	call	c002f40 <MAXreg_wr>
 c003574:	0001883a 	nop
 c003578:	e037883a 	mov	sp,fp
 c00357c:	dfc00117 	ldw	ra,4(sp)
 c003580:	df000017 	ldw	fp,0(sp)
 c003584:	dec00204 	addi	sp,sp,8
 c003588:	f800283a 	ret

0c00358c <MAX3421E_Task>:
 c00358c:	defffe04 	addi	sp,sp,-8
 c003590:	dfc00115 	stw	ra,4(sp)
 c003594:	df000015 	stw	fp,0(sp)
 c003598:	d839883a 	mov	fp,sp
 c00359c:	00806404 	movi	r2,400
 c0035a0:	10800037 	ldwio	r2,0(r2)
 c0035a4:	1000041e 	bne	r2,zero,c0035b8 <MAX3421E_Task+0x2c>
 c0035a8:	010300b4 	movhi	r4,3074
 c0035ac:	21366004 	addi	r4,r4,-9856
 c0035b0:	c004fc80 	call	c004fc8 <printf>
 c0035b4:	c0035f00 	call	c0035f0 <MaxIntHandler>
 c0035b8:	00806004 	movi	r2,384
 c0035bc:	10800037 	ldwio	r2,0(r2)
 c0035c0:	10800058 	cmpnei	r2,r2,1
 c0035c4:	1000041e 	bne	r2,zero,c0035d8 <MAX3421E_Task+0x4c>
 c0035c8:	010300b4 	movhi	r4,3074
 c0035cc:	21366404 	addi	r4,r4,-9840
 c0035d0:	c004fc80 	call	c004fc8 <printf>
 c0035d4:	c0036bc0 	call	c0036bc <MaxGpxHandler>
 c0035d8:	0001883a 	nop
 c0035dc:	e037883a 	mov	sp,fp
 c0035e0:	dfc00117 	ldw	ra,4(sp)
 c0035e4:	df000017 	ldw	fp,0(sp)
 c0035e8:	dec00204 	addi	sp,sp,8
 c0035ec:	f800283a 	ret

0c0035f0 <MaxIntHandler>:
 c0035f0:	defffd04 	addi	sp,sp,-12
 c0035f4:	dfc00215 	stw	ra,8(sp)
 c0035f8:	df000115 	stw	fp,4(sp)
 c0035fc:	df000104 	addi	fp,sp,4
 c003600:	e03fff05 	stb	zero,-4(fp)
 c003604:	01003204 	movi	r4,200
 c003608:	c0031300 	call	c003130 <MAXreg_rd>
 c00360c:	e0bfff45 	stb	r2,-3(fp)
 c003610:	e0bfff43 	ldbu	r2,-3(fp)
 c003614:	100b883a 	mov	r5,r2
 c003618:	010300b4 	movhi	r4,3074
 c00361c:	21366804 	addi	r4,r4,-9824
 c003620:	c004fc80 	call	c004fc8 <printf>
 c003624:	e0bfff43 	ldbu	r2,-3(fp)
 c003628:	1080100c 	andi	r2,r2,64
 c00362c:	10000326 	beq	r2,zero,c00363c <MaxIntHandler+0x4c>
 c003630:	e0bfff03 	ldbu	r2,-4(fp)
 c003634:	10801014 	ori	r2,r2,64
 c003638:	e0bfff05 	stb	r2,-4(fp)
 c00363c:	e0bfff43 	ldbu	r2,-3(fp)
 c003640:	1080080c 	andi	r2,r2,32
 c003644:	10000426 	beq	r2,zero,c003658 <MaxIntHandler+0x68>
 c003648:	c0033700 	call	c003370 <MAX_busprobe>
 c00364c:	e0bfff03 	ldbu	r2,-4(fp)
 c003650:	10800814 	ori	r2,r2,32
 c003654:	e0bfff05 	stb	r2,-4(fp)
 c003658:	e0bfff43 	ldbu	r2,-3(fp)
 c00365c:	1080020c 	andi	r2,r2,8
 c003660:	10000326 	beq	r2,zero,c003670 <MaxIntHandler+0x80>
 c003664:	000b883a 	mov	r5,zero
 c003668:	01000e04 	movi	r4,56
 c00366c:	c002f400 	call	c002f40 <MAXreg_wr>
 c003670:	e0bfff43 	ldbu	r2,-3(fp)
 c003674:	1080004c 	andi	r2,r2,1
 c003678:	10000626 	beq	r2,zero,c003694 <MaxIntHandler+0xa4>
 c00367c:	d0a00503 	ldbu	r2,-32748(gp)
 c003680:	10800044 	addi	r2,r2,1
 c003684:	d0a00505 	stb	r2,-32748(gp)
 c003688:	e0bfff03 	ldbu	r2,-4(fp)
 c00368c:	10800054 	ori	r2,r2,1
 c003690:	e0bfff05 	stb	r2,-4(fp)
 c003694:	e0bfff03 	ldbu	r2,-4(fp)
 c003698:	100b883a 	mov	r5,r2
 c00369c:	01003204 	movi	r4,200
 c0036a0:	c002f400 	call	c002f40 <MAXreg_wr>
 c0036a4:	0001883a 	nop
 c0036a8:	e037883a 	mov	sp,fp
 c0036ac:	dfc00117 	ldw	ra,4(sp)
 c0036b0:	df000017 	ldw	fp,0(sp)
 c0036b4:	dec00204 	addi	sp,sp,8
 c0036b8:	f800283a 	ret

0c0036bc <MaxGpxHandler>:
 c0036bc:	defffd04 	addi	sp,sp,-12
 c0036c0:	dfc00215 	stw	ra,8(sp)
 c0036c4:	df000115 	stw	fp,4(sp)
 c0036c8:	df000104 	addi	fp,sp,4
 c0036cc:	01002c04 	movi	r4,176
 c0036d0:	c0031300 	call	c003130 <MAXreg_rd>
 c0036d4:	e0bfff05 	stb	r2,-4(fp)
 c0036d8:	0001883a 	nop
 c0036dc:	e037883a 	mov	sp,fp
 c0036e0:	dfc00117 	ldw	ra,4(sp)
 c0036e4:	df000017 	ldw	fp,0(sp)
 c0036e8:	dec00204 	addi	sp,sp,8
 c0036ec:	f800283a 	ret

0c0036f0 <XferCtrlReq>:
 c0036f0:	defff104 	addi	sp,sp,-60
 c0036f4:	dfc00e15 	stw	ra,56(sp)
 c0036f8:	df000d15 	stw	fp,52(sp)
 c0036fc:	df000d04 	addi	fp,sp,52
 c003700:	2015883a 	mov	r10,r4
 c003704:	2813883a 	mov	r9,r5
 c003708:	3011883a 	mov	r8,r6
 c00370c:	380d883a 	mov	r6,r7
 c003710:	e1400217 	ldw	r5,8(fp)
 c003714:	e1000317 	ldw	r4,12(fp)
 c003718:	e0c00417 	ldw	r3,16(fp)
 c00371c:	e0800517 	ldw	r2,20(fp)
 c003720:	e2bff805 	stb	r10,-32(fp)
 c003724:	e27ff905 	stb	r9,-28(fp)
 c003728:	e23ffa05 	stb	r8,-24(fp)
 c00372c:	e1bffb05 	stb	r6,-20(fp)
 c003730:	e17ffc05 	stb	r5,-16(fp)
 c003734:	e13ffd05 	stb	r4,-12(fp)
 c003738:	e0fffe0d 	sth	r3,-8(fp)
 c00373c:	e0bfff0d 	sth	r2,-4(fp)
 c003740:	e03ff415 	stw	zero,-48(fp)
 c003744:	00800044 	movi	r2,1
 c003748:	e0bff505 	stb	r2,-44(fp)
 c00374c:	e0800617 	ldw	r2,24(fp)
 c003750:	1000011e 	bne	r2,zero,c003758 <XferCtrlReq+0x68>
 c003754:	e03ff505 	stb	zero,-44(fp)
 c003758:	e0bff803 	ldbu	r2,-32(fp)
 c00375c:	100b883a 	mov	r5,r2
 c003760:	01003804 	movi	r4,224
 c003764:	c002f400 	call	c002f40 <MAXreg_wr>
 c003768:	e0bffa03 	ldbu	r2,-24(fp)
 c00376c:	10803fcc 	andi	r2,r2,255
 c003770:	1080201c 	xori	r2,r2,128
 c003774:	10bfe004 	addi	r2,r2,-128
 c003778:	1000020e 	bge	r2,zero,c003784 <XferCtrlReq+0x94>
 c00377c:	00800044 	movi	r2,1
 c003780:	e0bff415 	stw	r2,-48(fp)
 c003784:	e0bffa03 	ldbu	r2,-24(fp)
 c003788:	e0bff585 	stb	r2,-42(fp)
 c00378c:	e0bffb03 	ldbu	r2,-20(fp)
 c003790:	e0bff5c5 	stb	r2,-41(fp)
 c003794:	e0bffc03 	ldbu	r2,-16(fp)
 c003798:	e0bff605 	stb	r2,-40(fp)
 c00379c:	e0bffd03 	ldbu	r2,-12(fp)
 c0037a0:	e0bff645 	stb	r2,-39(fp)
 c0037a4:	e0bffe0b 	ldhu	r2,-8(fp)
 c0037a8:	e0bff68d 	sth	r2,-38(fp)
 c0037ac:	e0bfff0b 	ldhu	r2,-4(fp)
 c0037b0:	e0bff70d 	sth	r2,-36(fp)
 c0037b4:	e0bff584 	addi	r2,fp,-42
 c0037b8:	100d883a 	mov	r6,r2
 c0037bc:	01400204 	movi	r5,8
 c0037c0:	01000804 	movi	r4,32
 c0037c4:	c002fc80 	call	c002fc8 <MAXbytes_wr>
 c0037c8:	e0bff903 	ldbu	r2,-28(fp)
 c0037cc:	100b883a 	mov	r5,r2
 c0037d0:	01000404 	movi	r4,16
 c0037d4:	c0039980 	call	c003998 <XferDispatchPkt>
 c0037d8:	e0bff545 	stb	r2,-43(fp)
 c0037dc:	e0bff543 	ldbu	r2,-43(fp)
 c0037e0:	10000226 	beq	r2,zero,c0037ec <XferCtrlReq+0xfc>
 c0037e4:	e0bff543 	ldbu	r2,-43(fp)
 c0037e8:	00000f06 	br	c003828 <XferCtrlReq+0x138>
 c0037ec:	e0bff503 	ldbu	r2,-44(fp)
 c0037f0:	1085883a 	add	r2,r2,r2
 c0037f4:	1087883a 	add	r3,r2,r2
 c0037f8:	d0a00304 	addi	r2,gp,-32756
 c0037fc:	1885883a 	add	r2,r3,r2
 c003800:	10800017 	ldw	r2,0(r2)
 c003804:	e13ff803 	ldbu	r4,-32(fp)
 c003808:	e17ff903 	ldbu	r5,-28(fp)
 c00380c:	e1bfff0b 	ldhu	r6,-4(fp)
 c003810:	e0fff417 	ldw	r3,-48(fp)
 c003814:	d8c00015 	stw	r3,0(sp)
 c003818:	e1c00617 	ldw	r7,24(fp)
 c00381c:	103ee83a 	callr	r2
 c003820:	e0bff545 	stb	r2,-43(fp)
 c003824:	e0bff543 	ldbu	r2,-43(fp)
 c003828:	e037883a 	mov	sp,fp
 c00382c:	dfc00117 	ldw	ra,4(sp)
 c003830:	df000017 	ldw	fp,0(sp)
 c003834:	dec00204 	addi	sp,sp,8
 c003838:	f800283a 	ret

0c00383c <XferCtrlData>:
 c00383c:	defff804 	addi	sp,sp,-32
 c003840:	dfc00715 	stw	ra,28(sp)
 c003844:	df000615 	stw	fp,24(sp)
 c003848:	df000604 	addi	fp,sp,24
 c00384c:	2807883a 	mov	r3,r5
 c003850:	3005883a 	mov	r2,r6
 c003854:	e1ffff15 	stw	r7,-4(fp)
 c003858:	e13ffc05 	stb	r4,-16(fp)
 c00385c:	e0fffd05 	stb	r3,-12(fp)
 c003860:	e0bffe0d 	sth	r2,-8(fp)
 c003864:	e0800217 	ldw	r2,8(fp)
 c003868:	10002826 	beq	r2,zero,c00390c <XferCtrlData+0xd0>
 c00386c:	e0fffc03 	ldbu	r3,-16(fp)
 c003870:	008300b4 	movhi	r2,3074
 c003874:	1087c004 	addi	r2,r2,7936
 c003878:	180690fa 	slli	r3,r3,3
 c00387c:	10c5883a 	add	r2,r2,r3
 c003880:	10c00017 	ldw	r3,0(r2)
 c003884:	e0bffd03 	ldbu	r2,-12(fp)
 c003888:	100490fa 	slli	r2,r2,3
 c00388c:	1885883a 	add	r2,r3,r2
 c003890:	00c00804 	movi	r3,32
 c003894:	10c00185 	stb	r3,6(r2)
 c003898:	e13ffc03 	ldbu	r4,-16(fp)
 c00389c:	e17ffd03 	ldbu	r5,-12(fp)
 c0038a0:	e1bffe0b 	ldhu	r6,-8(fp)
 c0038a4:	e0fffc03 	ldbu	r3,-16(fp)
 c0038a8:	008300b4 	movhi	r2,3074
 c0038ac:	1087c004 	addi	r2,r2,7936
 c0038b0:	180690fa 	slli	r3,r3,3
 c0038b4:	10c5883a 	add	r2,r2,r3
 c0038b8:	10c00017 	ldw	r3,0(r2)
 c0038bc:	e0bffd03 	ldbu	r2,-12(fp)
 c0038c0:	100490fa 	slli	r2,r2,3
 c0038c4:	1885883a 	add	r2,r3,r2
 c0038c8:	1080008b 	ldhu	r2,2(r2)
 c0038cc:	10803fcc 	andi	r2,r2,255
 c0038d0:	d8800015 	stw	r2,0(sp)
 c0038d4:	e1ffff17 	ldw	r7,-4(fp)
 c0038d8:	c003b140 	call	c003b14 <XferInTransfer>
 c0038dc:	e0bffb05 	stb	r2,-20(fp)
 c0038e0:	e0bffb03 	ldbu	r2,-20(fp)
 c0038e4:	10000226 	beq	r2,zero,c0038f0 <XferCtrlData+0xb4>
 c0038e8:	e0bffb03 	ldbu	r2,-20(fp)
 c0038ec:	00000806 	br	c003910 <XferCtrlData+0xd4>
 c0038f0:	e0bffd03 	ldbu	r2,-12(fp)
 c0038f4:	100b883a 	mov	r5,r2
 c0038f8:	01002804 	movi	r4,160
 c0038fc:	c0039980 	call	c003998 <XferDispatchPkt>
 c003900:	e0bffb05 	stb	r2,-20(fp)
 c003904:	e0bffb03 	ldbu	r2,-20(fp)
 c003908:	00000106 	br	c003910 <XferCtrlData+0xd4>
 c00390c:	00bfffc4 	movi	r2,-1
 c003910:	e037883a 	mov	sp,fp
 c003914:	dfc00117 	ldw	ra,4(sp)
 c003918:	df000017 	ldw	fp,0(sp)
 c00391c:	dec00204 	addi	sp,sp,8
 c003920:	f800283a 	ret

0c003924 <XferCtrlND>:
 c003924:	defff904 	addi	sp,sp,-28
 c003928:	dfc00615 	stw	ra,24(sp)
 c00392c:	df000515 	stw	fp,20(sp)
 c003930:	df000504 	addi	fp,sp,20
 c003934:	2807883a 	mov	r3,r5
 c003938:	3005883a 	mov	r2,r6
 c00393c:	e1ffff15 	stw	r7,-4(fp)
 c003940:	e13ffc05 	stb	r4,-16(fp)
 c003944:	e0fffd05 	stb	r3,-12(fp)
 c003948:	e0bffe0d 	sth	r2,-8(fp)
 c00394c:	e0800217 	ldw	r2,8(fp)
 c003950:	10000626 	beq	r2,zero,c00396c <XferCtrlND+0x48>
 c003954:	e0bffd03 	ldbu	r2,-12(fp)
 c003958:	100b883a 	mov	r5,r2
 c00395c:	01002804 	movi	r4,160
 c003960:	c0039980 	call	c003998 <XferDispatchPkt>
 c003964:	e0bffb05 	stb	r2,-20(fp)
 c003968:	00000506 	br	c003980 <XferCtrlND+0x5c>
 c00396c:	e0bffd03 	ldbu	r2,-12(fp)
 c003970:	100b883a 	mov	r5,r2
 c003974:	01002004 	movi	r4,128
 c003978:	c0039980 	call	c003998 <XferDispatchPkt>
 c00397c:	e0bffb05 	stb	r2,-20(fp)
 c003980:	e0bffb03 	ldbu	r2,-20(fp)
 c003984:	e037883a 	mov	sp,fp
 c003988:	dfc00117 	ldw	ra,4(sp)
 c00398c:	df000017 	ldw	fp,0(sp)
 c003990:	dec00204 	addi	sp,sp,8
 c003994:	f800283a 	ret

0c003998 <XferDispatchPkt>:
 c003998:	defff904 	addi	sp,sp,-28
 c00399c:	dfc00615 	stw	ra,24(sp)
 c0039a0:	df000515 	stw	fp,20(sp)
 c0039a4:	df000504 	addi	fp,sp,20
 c0039a8:	2007883a 	mov	r3,r4
 c0039ac:	2805883a 	mov	r2,r5
 c0039b0:	e0fffe05 	stb	r3,-8(fp)
 c0039b4:	e0bfff05 	stb	r2,-4(fp)
 c0039b8:	d0a7b017 	ldw	r2,-24896(gp)
 c0039bc:	0140fa04 	movi	r5,1000
 c0039c0:	1009883a 	mov	r4,r2
 c0039c4:	c00473c0 	call	c00473c <__mulsi3>
 c0039c8:	1007883a 	mov	r3,r2
 c0039cc:	d0a7af17 	ldw	r2,-24900(gp)
 c0039d0:	100b883a 	mov	r5,r2
 c0039d4:	1809883a 	mov	r4,r3
 c0039d8:	c0046800 	call	c004680 <__udivsi3>
 c0039dc:	1084e204 	addi	r2,r2,5000
 c0039e0:	e0bffc15 	stw	r2,-16(fp)
 c0039e4:	e03ffb45 	stb	zero,-19(fp)
 c0039e8:	e03ffb85 	stb	zero,-18(fp)
 c0039ec:	e0fffe03 	ldbu	r3,-8(fp)
 c0039f0:	e0bfff03 	ldbu	r2,-4(fp)
 c0039f4:	1884b03a 	or	r2,r3,r2
 c0039f8:	10803fcc 	andi	r2,r2,255
 c0039fc:	100b883a 	mov	r5,r2
 c003a00:	01003c04 	movi	r4,240
 c003a04:	c002f400 	call	c002f40 <MAXreg_wr>
 c003a08:	00bfffc4 	movi	r2,-1
 c003a0c:	e0bffb05 	stb	r2,-20(fp)
 c003a10:	00000d06 	br	c003a48 <XferDispatchPkt+0xb0>
 c003a14:	01003204 	movi	r4,200
 c003a18:	c0031300 	call	c003130 <MAXreg_rd>
 c003a1c:	e0bffd05 	stb	r2,-12(fp)
 c003a20:	e0bffd03 	ldbu	r2,-12(fp)
 c003a24:	10803fcc 	andi	r2,r2,255
 c003a28:	1080201c 	xori	r2,r2,128
 c003a2c:	10bfe004 	addi	r2,r2,-128
 c003a30:	1000050e 	bge	r2,zero,c003a48 <XferDispatchPkt+0xb0>
 c003a34:	01402004 	movi	r5,128
 c003a38:	01003204 	movi	r4,200
 c003a3c:	c002f400 	call	c002f40 <MAXreg_wr>
 c003a40:	e03ffb05 	stb	zero,-20(fp)
 c003a44:	00000c06 	br	c003a78 <XferDispatchPkt+0xe0>
 c003a48:	d0a7b017 	ldw	r2,-24896(gp)
 c003a4c:	0140fa04 	movi	r5,1000
 c003a50:	1009883a 	mov	r4,r2
 c003a54:	c00473c0 	call	c00473c <__mulsi3>
 c003a58:	1007883a 	mov	r3,r2
 c003a5c:	d0a7af17 	ldw	r2,-24900(gp)
 c003a60:	100b883a 	mov	r5,r2
 c003a64:	1809883a 	mov	r4,r3
 c003a68:	c0046800 	call	c004680 <__udivsi3>
 c003a6c:	1007883a 	mov	r3,r2
 c003a70:	e0bffc17 	ldw	r2,-16(fp)
 c003a74:	18bfe736 	bltu	r3,r2,c003a14 <__alt_data_end+0xfc003a14>
 c003a78:	e0bffb03 	ldbu	r2,-20(fp)
 c003a7c:	10000226 	beq	r2,zero,c003a88 <XferDispatchPkt+0xf0>
 c003a80:	e0bffb03 	ldbu	r2,-20(fp)
 c003a84:	00001e06 	br	c003b00 <XferDispatchPkt+0x168>
 c003a88:	01003e04 	movi	r4,248
 c003a8c:	c0031300 	call	c003130 <MAXreg_rd>
 c003a90:	108003cc 	andi	r2,r2,15
 c003a94:	e0bffb05 	stb	r2,-20(fp)
 c003a98:	e0bffb03 	ldbu	r2,-20(fp)
 c003a9c:	10800118 	cmpnei	r2,r2,4
 c003aa0:	1000071e 	bne	r2,zero,c003ac0 <XferDispatchPkt+0x128>
 c003aa4:	e0bffb83 	ldbu	r2,-18(fp)
 c003aa8:	10800044 	addi	r2,r2,1
 c003aac:	e0bffb85 	stb	r2,-18(fp)
 c003ab0:	e0bffb83 	ldbu	r2,-18(fp)
 c003ab4:	10803218 	cmpnei	r2,r2,200
 c003ab8:	10000b1e 	bne	r2,zero,c003ae8 <XferDispatchPkt+0x150>
 c003abc:	00000f06 	br	c003afc <XferDispatchPkt+0x164>
 c003ac0:	e0bffb03 	ldbu	r2,-20(fp)
 c003ac4:	10800398 	cmpnei	r2,r2,14
 c003ac8:	1000091e 	bne	r2,zero,c003af0 <XferDispatchPkt+0x158>
 c003acc:	e0bffb43 	ldbu	r2,-19(fp)
 c003ad0:	10800044 	addi	r2,r2,1
 c003ad4:	e0bffb45 	stb	r2,-19(fp)
 c003ad8:	e0bffb47 	ldb	r2,-19(fp)
 c003adc:	108000d8 	cmpnei	r2,r2,3
 c003ae0:	10000526 	beq	r2,zero,c003af8 <XferDispatchPkt+0x160>
 c003ae4:	00000106 	br	c003aec <XferDispatchPkt+0x154>
 c003ae8:	0001883a 	nop
 c003aec:	003fbf06 	br	c0039ec <__alt_data_end+0xfc0039ec>
 c003af0:	0001883a 	nop
 c003af4:	00000106 	br	c003afc <XferDispatchPkt+0x164>
 c003af8:	0001883a 	nop
 c003afc:	e0bffb03 	ldbu	r2,-20(fp)
 c003b00:	e037883a 	mov	sp,fp
 c003b04:	dfc00117 	ldw	ra,4(sp)
 c003b08:	df000017 	ldw	fp,0(sp)
 c003b0c:	dec00204 	addi	sp,sp,8
 c003b10:	f800283a 	ret

0c003b14 <XferInTransfer>:
 c003b14:	defff804 	addi	sp,sp,-32
 c003b18:	dfc00715 	stw	ra,28(sp)
 c003b1c:	df000615 	stw	fp,24(sp)
 c003b20:	df000604 	addi	fp,sp,24
 c003b24:	2011883a 	mov	r8,r4
 c003b28:	2809883a 	mov	r4,r5
 c003b2c:	3007883a 	mov	r3,r6
 c003b30:	e1fffe15 	stw	r7,-8(fp)
 c003b34:	e0800217 	ldw	r2,8(fp)
 c003b38:	e23ffb05 	stb	r8,-20(fp)
 c003b3c:	e13ffc05 	stb	r4,-16(fp)
 c003b40:	e0fffd0d 	sth	r3,-12(fp)
 c003b44:	e0bfff05 	stb	r2,-4(fp)
 c003b48:	e03ffa0d 	sth	zero,-24(fp)
 c003b4c:	e0fffb03 	ldbu	r3,-20(fp)
 c003b50:	008300b4 	movhi	r2,3074
 c003b54:	1087c004 	addi	r2,r2,7936
 c003b58:	180690fa 	slli	r3,r3,3
 c003b5c:	10c5883a 	add	r2,r2,r3
 c003b60:	10c00017 	ldw	r3,0(r2)
 c003b64:	e0bffc03 	ldbu	r2,-16(fp)
 c003b68:	100490fa 	slli	r2,r2,3
 c003b6c:	1885883a 	add	r2,r3,r2
 c003b70:	10800183 	ldbu	r2,6(r2)
 c003b74:	10803fcc 	andi	r2,r2,255
 c003b78:	100b883a 	mov	r5,r2
 c003b7c:	01003a04 	movi	r4,232
 c003b80:	c002f400 	call	c002f40 <MAXreg_wr>
 c003b84:	e0bffc03 	ldbu	r2,-16(fp)
 c003b88:	100b883a 	mov	r5,r2
 c003b8c:	0009883a 	mov	r4,zero
 c003b90:	c0039980 	call	c003998 <XferDispatchPkt>
 c003b94:	e0bffa85 	stb	r2,-22(fp)
 c003b98:	e0bffa83 	ldbu	r2,-22(fp)
 c003b9c:	10000226 	beq	r2,zero,c003ba8 <XferInTransfer+0x94>
 c003ba0:	e0bffa83 	ldbu	r2,-22(fp)
 c003ba4:	00003a06 	br	c003c90 <XferInTransfer+0x17c>
 c003ba8:	01003204 	movi	r4,200
 c003bac:	c0031300 	call	c003130 <MAXreg_rd>
 c003bb0:	10803fcc 	andi	r2,r2,255
 c003bb4:	1080010c 	andi	r2,r2,4
 c003bb8:	1000021e 	bne	r2,zero,c003bc4 <XferInTransfer+0xb0>
 c003bbc:	00bffc04 	movi	r2,-16
 c003bc0:	00003306 	br	c003c90 <XferInTransfer+0x17c>
 c003bc4:	01000c04 	movi	r4,48
 c003bc8:	c0031300 	call	c003130 <MAXreg_rd>
 c003bcc:	e0bffac5 	stb	r2,-21(fp)
 c003bd0:	e0bffac3 	ldbu	r2,-21(fp)
 c003bd4:	e1bffe17 	ldw	r6,-8(fp)
 c003bd8:	100b883a 	mov	r5,r2
 c003bdc:	01000204 	movi	r4,8
 c003be0:	c0031a40 	call	c0031a4 <MAXbytes_rd>
 c003be4:	e0bffe15 	stw	r2,-8(fp)
 c003be8:	01400104 	movi	r5,4
 c003bec:	01003204 	movi	r4,200
 c003bf0:	c002f400 	call	c002f40 <MAXreg_wr>
 c003bf4:	e0fffac3 	ldbu	r3,-21(fp)
 c003bf8:	e0bffa0b 	ldhu	r2,-24(fp)
 c003bfc:	1885883a 	add	r2,r3,r2
 c003c00:	e0bffa0d 	sth	r2,-24(fp)
 c003c04:	e0fffac3 	ldbu	r3,-21(fp)
 c003c08:	e0bfff03 	ldbu	r2,-4(fp)
 c003c0c:	18800336 	bltu	r3,r2,c003c1c <XferInTransfer+0x108>
 c003c10:	e0fffa0b 	ldhu	r3,-24(fp)
 c003c14:	e0bffd0b 	ldhu	r2,-12(fp)
 c003c18:	18bfda36 	bltu	r3,r2,c003b84 <__alt_data_end+0xfc003b84>
 c003c1c:	01003e04 	movi	r4,248
 c003c20:	c0031300 	call	c003130 <MAXreg_rd>
 c003c24:	10803fcc 	andi	r2,r2,255
 c003c28:	1080040c 	andi	r2,r2,16
 c003c2c:	10000c26 	beq	r2,zero,c003c60 <XferInTransfer+0x14c>
 c003c30:	e0fffb03 	ldbu	r3,-20(fp)
 c003c34:	008300b4 	movhi	r2,3074
 c003c38:	1087c004 	addi	r2,r2,7936
 c003c3c:	180690fa 	slli	r3,r3,3
 c003c40:	10c5883a 	add	r2,r2,r3
 c003c44:	10c00017 	ldw	r3,0(r2)
 c003c48:	e0bffc03 	ldbu	r2,-16(fp)
 c003c4c:	100490fa 	slli	r2,r2,3
 c003c50:	1885883a 	add	r2,r3,r2
 c003c54:	00c00804 	movi	r3,32
 c003c58:	10c00185 	stb	r3,6(r2)
 c003c5c:	00000b06 	br	c003c8c <XferInTransfer+0x178>
 c003c60:	e0fffb03 	ldbu	r3,-20(fp)
 c003c64:	008300b4 	movhi	r2,3074
 c003c68:	1087c004 	addi	r2,r2,7936
 c003c6c:	180690fa 	slli	r3,r3,3
 c003c70:	10c5883a 	add	r2,r2,r3
 c003c74:	10c00017 	ldw	r3,0(r2)
 c003c78:	e0bffc03 	ldbu	r2,-16(fp)
 c003c7c:	100490fa 	slli	r2,r2,3
 c003c80:	1885883a 	add	r2,r3,r2
 c003c84:	00c00404 	movi	r3,16
 c003c88:	10c00185 	stb	r3,6(r2)
 c003c8c:	0005883a 	mov	r2,zero
 c003c90:	e037883a 	mov	sp,fp
 c003c94:	dfc00117 	ldw	ra,4(sp)
 c003c98:	df000017 	ldw	fp,0(sp)
 c003c9c:	dec00204 	addi	sp,sp,8
 c003ca0:	f800283a 	ret

0c003ca4 <USB_init>:
 c003ca4:	defffe04 	addi	sp,sp,-8
 c003ca8:	df000115 	stw	fp,4(sp)
 c003cac:	df000104 	addi	fp,sp,4
 c003cb0:	e03fff05 	stb	zero,-4(fp)
 c003cb4:	00001006 	br	c003cf8 <USB_init+0x54>
 c003cb8:	e0ffff03 	ldbu	r3,-4(fp)
 c003cbc:	008300b4 	movhi	r2,3074
 c003cc0:	1087c004 	addi	r2,r2,7936
 c003cc4:	180690fa 	slli	r3,r3,3
 c003cc8:	10c5883a 	add	r2,r2,r3
 c003ccc:	10000015 	stw	zero,0(r2)
 c003cd0:	e0ffff03 	ldbu	r3,-4(fp)
 c003cd4:	008300b4 	movhi	r2,3074
 c003cd8:	1087c004 	addi	r2,r2,7936
 c003cdc:	180690fa 	slli	r3,r3,3
 c003ce0:	10c5883a 	add	r2,r2,r3
 c003ce4:	10800104 	addi	r2,r2,4
 c003ce8:	10000005 	stb	zero,0(r2)
 c003cec:	e0bfff03 	ldbu	r2,-4(fp)
 c003cf0:	10800044 	addi	r2,r2,1
 c003cf4:	e0bfff05 	stb	r2,-4(fp)
 c003cf8:	e0bfff03 	ldbu	r2,-4(fp)
 c003cfc:	10800270 	cmpltui	r2,r2,9
 c003d00:	103fed1e 	bne	r2,zero,c003cb8 <__alt_data_end+0xfc003cb8>
 c003d04:	008300b4 	movhi	r2,3074
 c003d08:	1087c004 	addi	r2,r2,7936
 c003d0c:	d0e7a004 	addi	r3,gp,-24960
 c003d10:	10c00015 	stw	r3,0(r2)
 c003d14:	d027a08d 	sth	zero,-24958(gp)
 c003d18:	00801004 	movi	r2,64
 c003d1c:	d0a7a145 	stb	r2,-24955(gp)
 c003d20:	00800404 	movi	r2,16
 c003d24:	d0a7a185 	stb	r2,-24954(gp)
 c003d28:	0001883a 	nop
 c003d2c:	e037883a 	mov	sp,fp
 c003d30:	df000017 	ldw	fp,0(sp)
 c003d34:	dec00104 	addi	sp,sp,4
 c003d38:	f800283a 	ret

0c003d3c <USB_Task>:
 c003d3c:	deffb204 	addi	sp,sp,-312
 c003d40:	dfc04d15 	stw	ra,308(sp)
 c003d44:	df004c15 	stw	fp,304(sp)
 c003d48:	dc004b15 	stw	r16,300(sp)
 c003d4c:	df004c04 	addi	fp,sp,304
 c003d50:	d0a00503 	ldbu	r2,-32748(gp)
 c003d54:	10803fcc 	andi	r2,r2,255
 c003d58:	10803c0c 	andi	r2,r2,240
 c003d5c:	10c00820 	cmpeqi	r3,r2,32
 c003d60:	1801121e 	bne	r3,zero,c0041ac <USB_Task+0x470>
 c003d64:	10c00848 	cmpgei	r3,r2,33
 c003d68:	1800041e 	bne	r3,zero,c003d7c <USB_Task+0x40>
 c003d6c:	10000a26 	beq	r2,zero,c003d98 <USB_Task+0x5c>
 c003d70:	10800420 	cmpeqi	r2,r2,16
 c003d74:	10001b1e 	bne	r2,zero,c003de4 <USB_Task+0xa8>
 c003d78:	00017a06 	br	c004364 <USB_Task+0x628>
 c003d7c:	10c01020 	cmpeqi	r3,r2,64
 c003d80:	18016f1e 	bne	r3,zero,c004340 <USB_Task+0x604>
 c003d84:	10c03fe0 	cmpeqi	r3,r2,255
 c003d88:	18016f1e 	bne	r3,zero,c004348 <USB_Task+0x60c>
 c003d8c:	10800c20 	cmpeqi	r2,r2,48
 c003d90:	1001441e 	bne	r2,zero,c0042a4 <USB_Task+0x568>
 c003d94:	00017306 	br	c004364 <USB_Task+0x628>
 c003d98:	d0a00503 	ldbu	r2,-32748(gp)
 c003d9c:	10803fcc 	andi	r2,r2,255
 c003da0:	10c000e0 	cmpeqi	r3,r2,3
 c003da4:	1800091e 	bne	r3,zero,c003dcc <USB_Task+0x90>
 c003da8:	10c00120 	cmpeqi	r3,r2,4
 c003dac:	18000b1e 	bne	r3,zero,c003ddc <USB_Task+0xa0>
 c003db0:	10800060 	cmpeqi	r2,r2,1
 c003db4:	1000011e 	bne	r2,zero,c003dbc <USB_Task+0x80>
 c003db8:	00016a06 	br	c004364 <USB_Task+0x628>
 c003dbc:	c003ca40 	call	c003ca4 <USB_init>
 c003dc0:	008000c4 	movi	r2,3
 c003dc4:	d0a00505 	stb	r2,-32748(gp)
 c003dc8:	00000506 	br	c003de0 <USB_Task+0xa4>
 c003dcc:	01400104 	movi	r5,4
 c003dd0:	01003a04 	movi	r4,232
 c003dd4:	c002f400 	call	c002f40 <MAXreg_wr>
 c003dd8:	00000106 	br	c003de0 <USB_Task+0xa4>
 c003ddc:	0001883a 	nop
 c003de0:	00016006 	br	c004364 <USB_Task+0x628>
 c003de4:	d0a00503 	ldbu	r2,-32748(gp)
 c003de8:	10803fcc 	andi	r2,r2,255
 c003dec:	10bffc04 	addi	r2,r2,-16
 c003df0:	10c001a8 	cmpgeui	r3,r2,6
 c003df4:	1801561e 	bne	r3,zero,c004350 <USB_Task+0x614>
 c003df8:	100690ba 	slli	r3,r2,2
 c003dfc:	00830034 	movhi	r2,3072
 c003e00:	108f8404 	addi	r2,r2,15888
 c003e04:	1885883a 	add	r2,r3,r2
 c003e08:	10800017 	ldw	r2,0(r2)
 c003e0c:	1000683a 	jmp	r2
 c003e10:	0c003e28 	cmpgeui	r16,at,248
 c003e14:	0c003e60 	cmpeqi	r16,at,249
 c003e18:	0c003e9c 	xori	r16,at,250
 c003e1c:	0c003ec0 	call	c003ec <__alt_mem_onchip_memory2_0+0xc003ec>
 c003e20:	0c003f00 	call	c003f0 <__alt_mem_onchip_memory2_0+0xc003f0>
 c003e24:	0c003f14 	ori	r16,at,252
 c003e28:	d0a7b017 	ldw	r2,-24896(gp)
 c003e2c:	0140fa04 	movi	r5,1000
 c003e30:	1009883a 	mov	r4,r2
 c003e34:	c00473c0 	call	c00473c <__mulsi3>
 c003e38:	1007883a 	mov	r3,r2
 c003e3c:	d0a7af17 	ldw	r2,-24900(gp)
 c003e40:	100b883a 	mov	r5,r2
 c003e44:	1809883a 	mov	r4,r3
 c003e48:	c0046800 	call	c004680 <__udivsi3>
 c003e4c:	10803204 	addi	r2,r2,200
 c003e50:	d0a7a315 	stw	r2,-24948(gp)
 c003e54:	00800444 	movi	r2,17
 c003e58:	d0a00505 	stb	r2,-32748(gp)
 c003e5c:	0000d206 	br	c0041a8 <USB_Task+0x46c>
 c003e60:	d0a7b017 	ldw	r2,-24896(gp)
 c003e64:	0140fa04 	movi	r5,1000
 c003e68:	1009883a 	mov	r4,r2
 c003e6c:	c00473c0 	call	c00473c <__mulsi3>
 c003e70:	1007883a 	mov	r3,r2
 c003e74:	d0a7af17 	ldw	r2,-24900(gp)
 c003e78:	100b883a 	mov	r5,r2
 c003e7c:	1809883a 	mov	r4,r3
 c003e80:	c0046800 	call	c004680 <__udivsi3>
 c003e84:	1007883a 	mov	r3,r2
 c003e88:	d0a7a317 	ldw	r2,-24948(gp)
 c003e8c:	10c0c32e 	bgeu	r2,r3,c00419c <USB_Task+0x460>
 c003e90:	00800484 	movi	r2,18
 c003e94:	d0a00505 	stb	r2,-32748(gp)
 c003e98:	0000c006 	br	c00419c <USB_Task+0x460>
 c003e9c:	01400044 	movi	r5,1
 c003ea0:	01003204 	movi	r4,200
 c003ea4:	c002f400 	call	c002f40 <MAXreg_wr>
 c003ea8:	01400044 	movi	r5,1
 c003eac:	01003a04 	movi	r4,232
 c003eb0:	c002f400 	call	c002f40 <MAXreg_wr>
 c003eb4:	008004c4 	movi	r2,19
 c003eb8:	d0a00505 	stb	r2,-32748(gp)
 c003ebc:	0000ba06 	br	c0041a8 <USB_Task+0x46c>
 c003ec0:	01003a04 	movi	r4,232
 c003ec4:	c0031300 	call	c003130 <MAXreg_rd>
 c003ec8:	10803fcc 	andi	r2,r2,255
 c003ecc:	1080004c 	andi	r2,r2,1
 c003ed0:	1000b41e 	bne	r2,zero,c0041a4 <USB_Task+0x468>
 c003ed4:	01003604 	movi	r4,216
 c003ed8:	c0031300 	call	c003130 <MAXreg_rd>
 c003edc:	10800214 	ori	r2,r2,8
 c003ee0:	e0bfb945 	stb	r2,-283(fp)
 c003ee4:	e0bfb943 	ldbu	r2,-283(fp)
 c003ee8:	100b883a 	mov	r5,r2
 c003eec:	01003604 	movi	r4,216
 c003ef0:	c002f400 	call	c002f40 <MAXreg_wr>
 c003ef4:	00800504 	movi	r2,20
 c003ef8:	d0a00505 	stb	r2,-32748(gp)
 c003efc:	0000a906 	br	c0041a4 <USB_Task+0x468>
 c003f00:	01003204 	movi	r4,200
 c003f04:	c0031300 	call	c003130 <MAXreg_rd>
 c003f08:	00800544 	movi	r2,21
 c003f0c:	d0a00505 	stb	r2,-32748(gp)
 c003f10:	0000a506 	br	c0041a8 <USB_Task+0x46c>
 c003f14:	008300b4 	movhi	r2,3074
 c003f18:	1087c004 	addi	r2,r2,7936
 c003f1c:	10800017 	ldw	r2,0(r2)
 c003f20:	00c00204 	movi	r3,8
 c003f24:	10c0008d 	sth	r3,2(r2)
 c003f28:	e0bfba04 	addi	r2,fp,-280
 c003f2c:	d8800415 	stw	r2,16(sp)
 c003f30:	00800204 	movi	r2,8
 c003f34:	d8800315 	stw	r2,12(sp)
 c003f38:	d8000215 	stw	zero,8(sp)
 c003f3c:	00800044 	movi	r2,1
 c003f40:	d8800115 	stw	r2,4(sp)
 c003f44:	d8000015 	stw	zero,0(sp)
 c003f48:	01c00184 	movi	r7,6
 c003f4c:	01802004 	movi	r6,128
 c003f50:	000b883a 	mov	r5,zero
 c003f54:	0009883a 	mov	r4,zero
 c003f58:	c0036f00 	call	c0036f0 <XferCtrlReq>
 c003f5c:	e0bfb985 	stb	r2,-282(fp)
 c003f60:	e0bfb983 	ldbu	r2,-282(fp)
 c003f64:	1000861e 	bne	r2,zero,c004180 <USB_Task+0x444>
 c003f68:	008300b4 	movhi	r2,3074
 c003f6c:	1087c004 	addi	r2,r2,7936
 c003f70:	10800017 	ldw	r2,0(r2)
 c003f74:	e0ffbbc3 	ldbu	r3,-273(fp)
 c003f78:	18c03fcc 	andi	r3,r3,255
 c003f7c:	10c0008d 	sth	r3,2(r2)
 c003f80:	e0bfba03 	ldbu	r2,-280(fp)
 c003f84:	10803fcc 	andi	r2,r2,255
 c003f88:	e0ffba04 	addi	r3,fp,-280
 c003f8c:	d8c00415 	stw	r3,16(sp)
 c003f90:	d8800315 	stw	r2,12(sp)
 c003f94:	d8000215 	stw	zero,8(sp)
 c003f98:	00800044 	movi	r2,1
 c003f9c:	d8800115 	stw	r2,4(sp)
 c003fa0:	d8000015 	stw	zero,0(sp)
 c003fa4:	01c00184 	movi	r7,6
 c003fa8:	01802004 	movi	r6,128
 c003fac:	000b883a 	mov	r5,zero
 c003fb0:	0009883a 	mov	r4,zero
 c003fb4:	c0036f00 	call	c0036f0 <XferCtrlReq>
 c003fb8:	e0bfb985 	stb	r2,-282(fp)
 c003fbc:	e0bfbd83 	ldbu	r2,-266(fp)
 c003fc0:	10803fcc 	andi	r2,r2,255
 c003fc4:	10003426 	beq	r2,zero,c004098 <USB_Task+0x35c>
 c003fc8:	e0bfbd83 	ldbu	r2,-266(fp)
 c003fcc:	10803fcc 	andi	r2,r2,255
 c003fd0:	e0ffbe84 	addi	r3,fp,-262
 c003fd4:	d8c00415 	stw	r3,16(sp)
 c003fd8:	00c00084 	movi	r3,2
 c003fdc:	d8c00315 	stw	r3,12(sp)
 c003fe0:	00c10244 	movi	r3,1033
 c003fe4:	d8c00215 	stw	r3,8(sp)
 c003fe8:	00c000c4 	movi	r3,3
 c003fec:	d8c00115 	stw	r3,4(sp)
 c003ff0:	d8800015 	stw	r2,0(sp)
 c003ff4:	01c00184 	movi	r7,6
 c003ff8:	01802004 	movi	r6,128
 c003ffc:	000b883a 	mov	r5,zero
 c004000:	0009883a 	mov	r4,zero
 c004004:	c0036f00 	call	c0036f0 <XferCtrlReq>
 c004008:	e0bfb985 	stb	r2,-282(fp)
 c00400c:	e0bfbd83 	ldbu	r2,-266(fp)
 c004010:	10803fcc 	andi	r2,r2,255
 c004014:	e0ffbe83 	ldbu	r3,-262(fp)
 c004018:	18c03fcc 	andi	r3,r3,255
 c00401c:	e13fbe84 	addi	r4,fp,-262
 c004020:	d9000415 	stw	r4,16(sp)
 c004024:	d8c00315 	stw	r3,12(sp)
 c004028:	00c10244 	movi	r3,1033
 c00402c:	d8c00215 	stw	r3,8(sp)
 c004030:	00c000c4 	movi	r3,3
 c004034:	d8c00115 	stw	r3,4(sp)
 c004038:	d8800015 	stw	r2,0(sp)
 c00403c:	01c00184 	movi	r7,6
 c004040:	01802004 	movi	r6,128
 c004044:	000b883a 	mov	r5,zero
 c004048:	0009883a 	mov	r4,zero
 c00404c:	c0036f00 	call	c0036f0 <XferCtrlReq>
 c004050:	e0bfb985 	stb	r2,-282(fp)
 c004054:	e0bfbd83 	ldbu	r2,-266(fp)
 c004058:	14003fcc 	andi	r16,r2,255
 c00405c:	e0bfbe83 	ldbu	r2,-262(fp)
 c004060:	10803fcc 	andi	r2,r2,255
 c004064:	1004d07a 	srli	r2,r2,1
 c004068:	10bfffc4 	addi	r2,r2,-1
 c00406c:	10c03fcc 	andi	r3,r2,255
 c004070:	e0bfbe84 	addi	r2,fp,-262
 c004074:	10800084 	addi	r2,r2,2
 c004078:	180b883a 	mov	r5,r3
 c00407c:	1009883a 	mov	r4,r2
 c004080:	c0045040 	call	c004504 <ConvUTF8ToStr>
 c004084:	100d883a 	mov	r6,r2
 c004088:	800b883a 	mov	r5,r16
 c00408c:	010300b4 	movhi	r4,3074
 c004090:	21366b04 	addi	r4,r4,-9812
 c004094:	c004fc80 	call	c004fc8 <printf>
 c004098:	e0bfbdc3 	ldbu	r2,-265(fp)
 c00409c:	10803fcc 	andi	r2,r2,255
 c0040a0:	10003426 	beq	r2,zero,c004174 <USB_Task+0x438>
 c0040a4:	e0bfbdc3 	ldbu	r2,-265(fp)
 c0040a8:	10803fcc 	andi	r2,r2,255
 c0040ac:	e0ffbe84 	addi	r3,fp,-262
 c0040b0:	d8c00415 	stw	r3,16(sp)
 c0040b4:	00c00084 	movi	r3,2
 c0040b8:	d8c00315 	stw	r3,12(sp)
 c0040bc:	00c10244 	movi	r3,1033
 c0040c0:	d8c00215 	stw	r3,8(sp)
 c0040c4:	00c000c4 	movi	r3,3
 c0040c8:	d8c00115 	stw	r3,4(sp)
 c0040cc:	d8800015 	stw	r2,0(sp)
 c0040d0:	01c00184 	movi	r7,6
 c0040d4:	01802004 	movi	r6,128
 c0040d8:	000b883a 	mov	r5,zero
 c0040dc:	0009883a 	mov	r4,zero
 c0040e0:	c0036f00 	call	c0036f0 <XferCtrlReq>
 c0040e4:	e0bfb985 	stb	r2,-282(fp)
 c0040e8:	e0bfbdc3 	ldbu	r2,-265(fp)
 c0040ec:	10803fcc 	andi	r2,r2,255
 c0040f0:	e0ffbe83 	ldbu	r3,-262(fp)
 c0040f4:	18c03fcc 	andi	r3,r3,255
 c0040f8:	e13fbe84 	addi	r4,fp,-262
 c0040fc:	d9000415 	stw	r4,16(sp)
 c004100:	d8c00315 	stw	r3,12(sp)
 c004104:	00c10244 	movi	r3,1033
 c004108:	d8c00215 	stw	r3,8(sp)
 c00410c:	00c000c4 	movi	r3,3
 c004110:	d8c00115 	stw	r3,4(sp)
 c004114:	d8800015 	stw	r2,0(sp)
 c004118:	01c00184 	movi	r7,6
 c00411c:	01802004 	movi	r6,128
 c004120:	000b883a 	mov	r5,zero
 c004124:	0009883a 	mov	r4,zero
 c004128:	c0036f00 	call	c0036f0 <XferCtrlReq>
 c00412c:	e0bfb985 	stb	r2,-282(fp)
 c004130:	e0bfbdc3 	ldbu	r2,-265(fp)
 c004134:	14003fcc 	andi	r16,r2,255
 c004138:	e0bfbe83 	ldbu	r2,-262(fp)
 c00413c:	10803fcc 	andi	r2,r2,255
 c004140:	1004d07a 	srli	r2,r2,1
 c004144:	10bfffc4 	addi	r2,r2,-1
 c004148:	10c03fcc 	andi	r3,r2,255
 c00414c:	e0bfbe84 	addi	r2,fp,-262
 c004150:	10800084 	addi	r2,r2,2
 c004154:	180b883a 	mov	r5,r3
 c004158:	1009883a 	mov	r4,r2
 c00415c:	c0045040 	call	c004504 <ConvUTF8ToStr>
 c004160:	100d883a 	mov	r6,r2
 c004164:	800b883a 	mov	r5,r16
 c004168:	010300b4 	movhi	r4,3074
 c00416c:	21367104 	addi	r4,r4,-9788
 c004170:	c004fc80 	call	c004fc8 <printf>
 c004174:	00800804 	movi	r2,32
 c004178:	d0a00505 	stb	r2,-32748(gp)
 c00417c:	00000a06 	br	c0041a8 <USB_Task+0x46c>
 c004180:	e0bfb983 	ldbu	r2,-282(fp)
 c004184:	d0a7a445 	stb	r2,-24943(gp)
 c004188:	d0a00503 	ldbu	r2,-32748(gp)
 c00418c:	d0a7a205 	stb	r2,-24952(gp)
 c004190:	00bfffc4 	movi	r2,-1
 c004194:	d0a00505 	stb	r2,-32748(gp)
 c004198:	00000306 	br	c0041a8 <USB_Task+0x46c>
 c00419c:	0001883a 	nop
 c0041a0:	00006b06 	br	c004350 <USB_Task+0x614>
 c0041a4:	0001883a 	nop
 c0041a8:	00006906 	br	c004350 <USB_Task+0x614>
 c0041ac:	00800044 	movi	r2,1
 c0041b0:	e0bfb905 	stb	r2,-284(fp)
 c0041b4:	00002d06 	br	c00426c <USB_Task+0x530>
 c0041b8:	e0ffb903 	ldbu	r3,-284(fp)
 c0041bc:	008300b4 	movhi	r2,3074
 c0041c0:	1087c004 	addi	r2,r2,7936
 c0041c4:	180690fa 	slli	r3,r3,3
 c0041c8:	10c5883a 	add	r2,r2,r3
 c0041cc:	10800017 	ldw	r2,0(r2)
 c0041d0:	1000231e 	bne	r2,zero,c004260 <USB_Task+0x524>
 c0041d4:	e13fb903 	ldbu	r4,-284(fp)
 c0041d8:	008300b4 	movhi	r2,3074
 c0041dc:	1087c004 	addi	r2,r2,7936
 c0041e0:	10c00017 	ldw	r3,0(r2)
 c0041e4:	008300b4 	movhi	r2,3074
 c0041e8:	1087c004 	addi	r2,r2,7936
 c0041ec:	200890fa 	slli	r4,r4,3
 c0041f0:	1105883a 	add	r2,r2,r4
 c0041f4:	10c00015 	stw	r3,0(r2)
 c0041f8:	e0bfb903 	ldbu	r2,-284(fp)
 c0041fc:	d8000415 	stw	zero,16(sp)
 c004200:	d8000315 	stw	zero,12(sp)
 c004204:	d8000215 	stw	zero,8(sp)
 c004208:	d8000115 	stw	zero,4(sp)
 c00420c:	d8800015 	stw	r2,0(sp)
 c004210:	01c00144 	movi	r7,5
 c004214:	000d883a 	mov	r6,zero
 c004218:	000b883a 	mov	r5,zero
 c00421c:	0009883a 	mov	r4,zero
 c004220:	c0036f00 	call	c0036f0 <XferCtrlReq>
 c004224:	e0bfb985 	stb	r2,-282(fp)
 c004228:	e0bfb983 	ldbu	r2,-282(fp)
 c00422c:	1000051e 	bne	r2,zero,c004244 <USB_Task+0x508>
 c004230:	e0bfb903 	ldbu	r2,-284(fp)
 c004234:	d0a7a405 	stb	r2,-24944(gp)
 c004238:	00800c04 	movi	r2,48
 c00423c:	d0a00505 	stb	r2,-32748(gp)
 c004240:	00000d06 	br	c004278 <USB_Task+0x53c>
 c004244:	e0bfb983 	ldbu	r2,-282(fp)
 c004248:	d0a7a445 	stb	r2,-24943(gp)
 c00424c:	d0a00503 	ldbu	r2,-32748(gp)
 c004250:	d0a7a205 	stb	r2,-24952(gp)
 c004254:	00bfffc4 	movi	r2,-1
 c004258:	d0a00505 	stb	r2,-32748(gp)
 c00425c:	00000606 	br	c004278 <USB_Task+0x53c>
 c004260:	e0bfb903 	ldbu	r2,-284(fp)
 c004264:	10800044 	addi	r2,r2,1
 c004268:	e0bfb905 	stb	r2,-284(fp)
 c00426c:	e0bfb903 	ldbu	r2,-284(fp)
 c004270:	10800230 	cmpltui	r2,r2,8
 c004274:	103fd01e 	bne	r2,zero,c0041b8 <__alt_data_end+0xfc0041b8>
 c004278:	d0a00503 	ldbu	r2,-32748(gp)
 c00427c:	10803fcc 	andi	r2,r2,255
 c004280:	10800818 	cmpnei	r2,r2,32
 c004284:	1000341e 	bne	r2,zero,c004358 <USB_Task+0x61c>
 c004288:	00bfff84 	movi	r2,-2
 c00428c:	d0a7a445 	stb	r2,-24943(gp)
 c004290:	d0a00503 	ldbu	r2,-32748(gp)
 c004294:	d0a7a205 	stb	r2,-24952(gp)
 c004298:	00bfffc4 	movi	r2,-1
 c00429c:	d0a00505 	stb	r2,-32748(gp)
 c0042a0:	00002d06 	br	c004358 <USB_Task+0x61c>
 c0042a4:	e03fb905 	stb	zero,-284(fp)
 c0042a8:	00001706 	br	c004308 <USB_Task+0x5cc>
 c0042ac:	e0bfb903 	ldbu	r2,-284(fp)
 c0042b0:	040300b4 	movhi	r16,3074
 c0042b4:	84390204 	addi	r16,r16,-7160
 c0042b8:	01400304 	movi	r5,12
 c0042bc:	1009883a 	mov	r4,r2
 c0042c0:	c00473c0 	call	c00473c <__mulsi3>
 c0042c4:	8085883a 	add	r2,r16,r2
 c0042c8:	10800017 	ldw	r2,0(r2)
 c0042cc:	d0e7a403 	ldbu	r3,-24944(gp)
 c0042d0:	18c03fcc 	andi	r3,r3,255
 c0042d4:	000b883a 	mov	r5,zero
 c0042d8:	1809883a 	mov	r4,r3
 c0042dc:	103ee83a 	callr	r2
 c0042e0:	e0bfb985 	stb	r2,-282(fp)
 c0042e4:	e0bfb983 	ldbu	r2,-282(fp)
 c0042e8:	10800058 	cmpnei	r2,r2,1
 c0042ec:	1000031e 	bne	r2,zero,c0042fc <USB_Task+0x5c0>
 c0042f0:	00801004 	movi	r2,64
 c0042f4:	d0a00505 	stb	r2,-32748(gp)
 c0042f8:	00000606 	br	c004314 <USB_Task+0x5d8>
 c0042fc:	e0bfb903 	ldbu	r2,-284(fp)
 c004300:	10800044 	addi	r2,r2,1
 c004304:	e0bfb905 	stb	r2,-284(fp)
 c004308:	e0bfb903 	ldbu	r2,-284(fp)
 c00430c:	10800130 	cmpltui	r2,r2,4
 c004310:	103fe61e 	bne	r2,zero,c0042ac <__alt_data_end+0xfc0042ac>
 c004314:	d0a00503 	ldbu	r2,-32748(gp)
 c004318:	10803fcc 	andi	r2,r2,255
 c00431c:	10800c18 	cmpnei	r2,r2,48
 c004320:	10000f1e 	bne	r2,zero,c004360 <USB_Task+0x624>
 c004324:	00bfff44 	movi	r2,-3
 c004328:	d0a7a445 	stb	r2,-24943(gp)
 c00432c:	d0a00503 	ldbu	r2,-32748(gp)
 c004330:	d0a7a205 	stb	r2,-24952(gp)
 c004334:	00bfffc4 	movi	r2,-1
 c004338:	d0a00505 	stb	r2,-32748(gp)
 c00433c:	00000806 	br	c004360 <USB_Task+0x624>
 c004340:	0001883a 	nop
 c004344:	00000706 	br	c004364 <USB_Task+0x628>
 c004348:	0001883a 	nop
 c00434c:	00000506 	br	c004364 <USB_Task+0x628>
 c004350:	0001883a 	nop
 c004354:	00000306 	br	c004364 <USB_Task+0x628>
 c004358:	0001883a 	nop
 c00435c:	00000106 	br	c004364 <USB_Task+0x628>
 c004360:	0001883a 	nop
 c004364:	0001883a 	nop
 c004368:	e6ffff04 	addi	sp,fp,-4
 c00436c:	dfc00217 	ldw	ra,8(sp)
 c004370:	df000117 	ldw	fp,4(sp)
 c004374:	dc000017 	ldw	r16,0(sp)
 c004378:	dec00304 	addi	sp,sp,12
 c00437c:	f800283a 	ret

0c004380 <MSDProbe>:
 c004380:	defffd04 	addi	sp,sp,-12
 c004384:	df000215 	stw	fp,8(sp)
 c004388:	df000204 	addi	fp,sp,8
 c00438c:	2005883a 	mov	r2,r4
 c004390:	e17fff15 	stw	r5,-4(fp)
 c004394:	e0bffe05 	stb	r2,-8(fp)
 c004398:	0005883a 	mov	r2,zero
 c00439c:	e037883a 	mov	sp,fp
 c0043a0:	df000017 	ldw	fp,0(sp)
 c0043a4:	dec00104 	addi	sp,sp,4
 c0043a8:	f800283a 	ret

0c0043ac <MSDEventHandler>:
 c0043ac:	defffb04 	addi	sp,sp,-20
 c0043b0:	df000415 	stw	fp,16(sp)
 c0043b4:	df000404 	addi	fp,sp,16
 c0043b8:	2007883a 	mov	r3,r4
 c0043bc:	2805883a 	mov	r2,r5
 c0043c0:	e1bffe15 	stw	r6,-8(fp)
 c0043c4:	e1ffff15 	stw	r7,-4(fp)
 c0043c8:	e0fffc05 	stb	r3,-16(fp)
 c0043cc:	e0bffd05 	stb	r2,-12(fp)
 c0043d0:	0005883a 	mov	r2,zero
 c0043d4:	e037883a 	mov	sp,fp
 c0043d8:	df000017 	ldw	fp,0(sp)
 c0043dc:	dec00104 	addi	sp,sp,4
 c0043e0:	f800283a 	ret

0c0043e4 <CDCProbe>:
 c0043e4:	defffd04 	addi	sp,sp,-12
 c0043e8:	df000215 	stw	fp,8(sp)
 c0043ec:	df000204 	addi	fp,sp,8
 c0043f0:	2005883a 	mov	r2,r4
 c0043f4:	e17fff15 	stw	r5,-4(fp)
 c0043f8:	e0bffe05 	stb	r2,-8(fp)
 c0043fc:	0005883a 	mov	r2,zero
 c004400:	e037883a 	mov	sp,fp
 c004404:	df000017 	ldw	fp,0(sp)
 c004408:	dec00104 	addi	sp,sp,4
 c00440c:	f800283a 	ret

0c004410 <CDCEventHandler>:
 c004410:	defffb04 	addi	sp,sp,-20
 c004414:	df000415 	stw	fp,16(sp)
 c004418:	df000404 	addi	fp,sp,16
 c00441c:	2007883a 	mov	r3,r4
 c004420:	2805883a 	mov	r2,r5
 c004424:	e1bffe15 	stw	r6,-8(fp)
 c004428:	e1ffff15 	stw	r7,-4(fp)
 c00442c:	e0fffc05 	stb	r3,-16(fp)
 c004430:	e0bffd05 	stb	r2,-12(fp)
 c004434:	0005883a 	mov	r2,zero
 c004438:	e037883a 	mov	sp,fp
 c00443c:	df000017 	ldw	fp,0(sp)
 c004440:	dec00104 	addi	sp,sp,4
 c004444:	f800283a 	ret

0c004448 <DummyProbe>:
 c004448:	defffd04 	addi	sp,sp,-12
 c00444c:	df000215 	stw	fp,8(sp)
 c004450:	df000204 	addi	fp,sp,8
 c004454:	2005883a 	mov	r2,r4
 c004458:	e17fff15 	stw	r5,-4(fp)
 c00445c:	e0bffe05 	stb	r2,-8(fp)
 c004460:	0005883a 	mov	r2,zero
 c004464:	e037883a 	mov	sp,fp
 c004468:	df000017 	ldw	fp,0(sp)
 c00446c:	dec00104 	addi	sp,sp,4
 c004470:	f800283a 	ret

0c004474 <DummyEventHandler>:
 c004474:	defffb04 	addi	sp,sp,-20
 c004478:	df000415 	stw	fp,16(sp)
 c00447c:	df000404 	addi	fp,sp,16
 c004480:	2007883a 	mov	r3,r4
 c004484:	2805883a 	mov	r2,r5
 c004488:	e1bffe15 	stw	r6,-8(fp)
 c00448c:	e1ffff15 	stw	r7,-4(fp)
 c004490:	e0fffc05 	stb	r3,-16(fp)
 c004494:	e0bffd05 	stb	r2,-12(fp)
 c004498:	0005883a 	mov	r2,zero
 c00449c:	e037883a 	mov	sp,fp
 c0044a0:	df000017 	ldw	fp,0(sp)
 c0044a4:	dec00104 	addi	sp,sp,4
 c0044a8:	f800283a 	ret

0c0044ac <GetUsbTaskState>:
 c0044ac:	deffff04 	addi	sp,sp,-4
 c0044b0:	df000015 	stw	fp,0(sp)
 c0044b4:	d839883a 	mov	fp,sp
 c0044b8:	d0a00503 	ldbu	r2,-32748(gp)
 c0044bc:	e037883a 	mov	sp,fp
 c0044c0:	df000017 	ldw	fp,0(sp)
 c0044c4:	dec00104 	addi	sp,sp,4
 c0044c8:	f800283a 	ret

0c0044cc <GetDevtable>:
 c0044cc:	defffe04 	addi	sp,sp,-8
 c0044d0:	df000115 	stw	fp,4(sp)
 c0044d4:	df000104 	addi	fp,sp,4
 c0044d8:	2005883a 	mov	r2,r4
 c0044dc:	e0bfff05 	stb	r2,-4(fp)
 c0044e0:	e0bfff03 	ldbu	r2,-4(fp)
 c0044e4:	100690fa 	slli	r3,r2,3
 c0044e8:	008300b4 	movhi	r2,3074
 c0044ec:	1087c004 	addi	r2,r2,7936
 c0044f0:	1885883a 	add	r2,r3,r2
 c0044f4:	e037883a 	mov	sp,fp
 c0044f8:	df000017 	ldw	fp,0(sp)
 c0044fc:	dec00104 	addi	sp,sp,4
 c004500:	f800283a 	ret

0c004504 <ConvUTF8ToStr>:
 c004504:	defffc04 	addi	sp,sp,-16
 c004508:	df000315 	stw	fp,12(sp)
 c00450c:	df000304 	addi	fp,sp,12
 c004510:	e13ffe15 	stw	r4,-8(fp)
 c004514:	2805883a 	mov	r2,r5
 c004518:	e0bfff05 	stb	r2,-4(fp)
 c00451c:	e03ffd05 	stb	zero,-12(fp)
 c004520:	00000d06 	br	c004558 <ConvUTF8ToStr+0x54>
 c004524:	e0bffd03 	ldbu	r2,-12(fp)
 c004528:	e0fffe17 	ldw	r3,-8(fp)
 c00452c:	1887883a 	add	r3,r3,r2
 c004530:	e0bffd03 	ldbu	r2,-12(fp)
 c004534:	1085883a 	add	r2,r2,r2
 c004538:	1009883a 	mov	r4,r2
 c00453c:	e0bffe17 	ldw	r2,-8(fp)
 c004540:	1105883a 	add	r2,r2,r4
 c004544:	10800003 	ldbu	r2,0(r2)
 c004548:	18800005 	stb	r2,0(r3)
 c00454c:	e0bffd03 	ldbu	r2,-12(fp)
 c004550:	10800044 	addi	r2,r2,1
 c004554:	e0bffd05 	stb	r2,-12(fp)
 c004558:	e0fffd03 	ldbu	r3,-12(fp)
 c00455c:	e0bfff03 	ldbu	r2,-4(fp)
 c004560:	18bff036 	bltu	r3,r2,c004524 <__alt_data_end+0xfc004524>
 c004564:	e0bfff03 	ldbu	r2,-4(fp)
 c004568:	e0fffe17 	ldw	r3,-8(fp)
 c00456c:	1885883a 	add	r2,r3,r2
 c004570:	10000005 	stb	zero,0(r2)
 c004574:	e0bffe17 	ldw	r2,-8(fp)
 c004578:	e037883a 	mov	sp,fp
 c00457c:	df000017 	ldw	fp,0(sp)
 c004580:	dec00104 	addi	sp,sp,4
 c004584:	f800283a 	ret

0c004588 <__divsi3>:
 c004588:	20001b16 	blt	r4,zero,c0045f8 <__divsi3+0x70>
 c00458c:	000f883a 	mov	r7,zero
 c004590:	28001616 	blt	r5,zero,c0045ec <__divsi3+0x64>
 c004594:	200d883a 	mov	r6,r4
 c004598:	29001a2e 	bgeu	r5,r4,c004604 <__divsi3+0x7c>
 c00459c:	00800804 	movi	r2,32
 c0045a0:	00c00044 	movi	r3,1
 c0045a4:	00000106 	br	c0045ac <__divsi3+0x24>
 c0045a8:	10000d26 	beq	r2,zero,c0045e0 <__divsi3+0x58>
 c0045ac:	294b883a 	add	r5,r5,r5
 c0045b0:	10bfffc4 	addi	r2,r2,-1
 c0045b4:	18c7883a 	add	r3,r3,r3
 c0045b8:	293ffb36 	bltu	r5,r4,c0045a8 <__alt_data_end+0xfc0045a8>
 c0045bc:	0005883a 	mov	r2,zero
 c0045c0:	18000726 	beq	r3,zero,c0045e0 <__divsi3+0x58>
 c0045c4:	0005883a 	mov	r2,zero
 c0045c8:	31400236 	bltu	r6,r5,c0045d4 <__divsi3+0x4c>
 c0045cc:	314dc83a 	sub	r6,r6,r5
 c0045d0:	10c4b03a 	or	r2,r2,r3
 c0045d4:	1806d07a 	srli	r3,r3,1
 c0045d8:	280ad07a 	srli	r5,r5,1
 c0045dc:	183ffa1e 	bne	r3,zero,c0045c8 <__alt_data_end+0xfc0045c8>
 c0045e0:	38000126 	beq	r7,zero,c0045e8 <__divsi3+0x60>
 c0045e4:	0085c83a 	sub	r2,zero,r2
 c0045e8:	f800283a 	ret
 c0045ec:	014bc83a 	sub	r5,zero,r5
 c0045f0:	39c0005c 	xori	r7,r7,1
 c0045f4:	003fe706 	br	c004594 <__alt_data_end+0xfc004594>
 c0045f8:	0109c83a 	sub	r4,zero,r4
 c0045fc:	01c00044 	movi	r7,1
 c004600:	003fe306 	br	c004590 <__alt_data_end+0xfc004590>
 c004604:	00c00044 	movi	r3,1
 c004608:	003fee06 	br	c0045c4 <__alt_data_end+0xfc0045c4>

0c00460c <__modsi3>:
 c00460c:	20001716 	blt	r4,zero,c00466c <__modsi3+0x60>
 c004610:	000f883a 	mov	r7,zero
 c004614:	2005883a 	mov	r2,r4
 c004618:	28001216 	blt	r5,zero,c004664 <__modsi3+0x58>
 c00461c:	2900162e 	bgeu	r5,r4,c004678 <__modsi3+0x6c>
 c004620:	01800804 	movi	r6,32
 c004624:	00c00044 	movi	r3,1
 c004628:	00000106 	br	c004630 <__modsi3+0x24>
 c00462c:	30000a26 	beq	r6,zero,c004658 <__modsi3+0x4c>
 c004630:	294b883a 	add	r5,r5,r5
 c004634:	31bfffc4 	addi	r6,r6,-1
 c004638:	18c7883a 	add	r3,r3,r3
 c00463c:	293ffb36 	bltu	r5,r4,c00462c <__alt_data_end+0xfc00462c>
 c004640:	18000526 	beq	r3,zero,c004658 <__modsi3+0x4c>
 c004644:	1806d07a 	srli	r3,r3,1
 c004648:	11400136 	bltu	r2,r5,c004650 <__modsi3+0x44>
 c00464c:	1145c83a 	sub	r2,r2,r5
 c004650:	280ad07a 	srli	r5,r5,1
 c004654:	183ffb1e 	bne	r3,zero,c004644 <__alt_data_end+0xfc004644>
 c004658:	38000126 	beq	r7,zero,c004660 <__modsi3+0x54>
 c00465c:	0085c83a 	sub	r2,zero,r2
 c004660:	f800283a 	ret
 c004664:	014bc83a 	sub	r5,zero,r5
 c004668:	003fec06 	br	c00461c <__alt_data_end+0xfc00461c>
 c00466c:	0109c83a 	sub	r4,zero,r4
 c004670:	01c00044 	movi	r7,1
 c004674:	003fe706 	br	c004614 <__alt_data_end+0xfc004614>
 c004678:	00c00044 	movi	r3,1
 c00467c:	003ff106 	br	c004644 <__alt_data_end+0xfc004644>

0c004680 <__udivsi3>:
 c004680:	200d883a 	mov	r6,r4
 c004684:	2900152e 	bgeu	r5,r4,c0046dc <__udivsi3+0x5c>
 c004688:	28001416 	blt	r5,zero,c0046dc <__udivsi3+0x5c>
 c00468c:	00800804 	movi	r2,32
 c004690:	00c00044 	movi	r3,1
 c004694:	00000206 	br	c0046a0 <__udivsi3+0x20>
 c004698:	10000e26 	beq	r2,zero,c0046d4 <__udivsi3+0x54>
 c00469c:	28000516 	blt	r5,zero,c0046b4 <__udivsi3+0x34>
 c0046a0:	294b883a 	add	r5,r5,r5
 c0046a4:	10bfffc4 	addi	r2,r2,-1
 c0046a8:	18c7883a 	add	r3,r3,r3
 c0046ac:	293ffa36 	bltu	r5,r4,c004698 <__alt_data_end+0xfc004698>
 c0046b0:	18000826 	beq	r3,zero,c0046d4 <__udivsi3+0x54>
 c0046b4:	0005883a 	mov	r2,zero
 c0046b8:	31400236 	bltu	r6,r5,c0046c4 <__udivsi3+0x44>
 c0046bc:	314dc83a 	sub	r6,r6,r5
 c0046c0:	10c4b03a 	or	r2,r2,r3
 c0046c4:	1806d07a 	srli	r3,r3,1
 c0046c8:	280ad07a 	srli	r5,r5,1
 c0046cc:	183ffa1e 	bne	r3,zero,c0046b8 <__alt_data_end+0xfc0046b8>
 c0046d0:	f800283a 	ret
 c0046d4:	0005883a 	mov	r2,zero
 c0046d8:	f800283a 	ret
 c0046dc:	00c00044 	movi	r3,1
 c0046e0:	003ff406 	br	c0046b4 <__alt_data_end+0xfc0046b4>

0c0046e4 <__umodsi3>:
 c0046e4:	2005883a 	mov	r2,r4
 c0046e8:	2900122e 	bgeu	r5,r4,c004734 <__umodsi3+0x50>
 c0046ec:	28001116 	blt	r5,zero,c004734 <__umodsi3+0x50>
 c0046f0:	01800804 	movi	r6,32
 c0046f4:	00c00044 	movi	r3,1
 c0046f8:	00000206 	br	c004704 <__umodsi3+0x20>
 c0046fc:	30000c26 	beq	r6,zero,c004730 <__umodsi3+0x4c>
 c004700:	28000516 	blt	r5,zero,c004718 <__umodsi3+0x34>
 c004704:	294b883a 	add	r5,r5,r5
 c004708:	31bfffc4 	addi	r6,r6,-1
 c00470c:	18c7883a 	add	r3,r3,r3
 c004710:	293ffa36 	bltu	r5,r4,c0046fc <__alt_data_end+0xfc0046fc>
 c004714:	18000626 	beq	r3,zero,c004730 <__umodsi3+0x4c>
 c004718:	1806d07a 	srli	r3,r3,1
 c00471c:	11400136 	bltu	r2,r5,c004724 <__umodsi3+0x40>
 c004720:	1145c83a 	sub	r2,r2,r5
 c004724:	280ad07a 	srli	r5,r5,1
 c004728:	183ffb1e 	bne	r3,zero,c004718 <__alt_data_end+0xfc004718>
 c00472c:	f800283a 	ret
 c004730:	f800283a 	ret
 c004734:	00c00044 	movi	r3,1
 c004738:	003ff706 	br	c004718 <__alt_data_end+0xfc004718>

0c00473c <__mulsi3>:
 c00473c:	0005883a 	mov	r2,zero
 c004740:	20000726 	beq	r4,zero,c004760 <__mulsi3+0x24>
 c004744:	20c0004c 	andi	r3,r4,1
 c004748:	2008d07a 	srli	r4,r4,1
 c00474c:	18000126 	beq	r3,zero,c004754 <__mulsi3+0x18>
 c004750:	1145883a 	add	r2,r2,r5
 c004754:	294b883a 	add	r5,r5,r5
 c004758:	203ffa1e 	bne	r4,zero,c004744 <__alt_data_end+0xfc004744>
 c00475c:	f800283a 	ret
 c004760:	f800283a 	ret

0c004764 <malloc>:
 c004764:	008300b4 	movhi	r2,3074
 c004768:	10bfc304 	addi	r2,r2,-244
 c00476c:	200b883a 	mov	r5,r4
 c004770:	11000017 	ldw	r4,0(r2)
 c004774:	c00478c1 	jmpi	c00478c <_malloc_r>

0c004778 <free>:
 c004778:	008300b4 	movhi	r2,3074
 c00477c:	10bfc304 	addi	r2,r2,-244
 c004780:	200b883a 	mov	r5,r4
 c004784:	11000017 	ldw	r4,0(r2)
 c004788:	c00d84c1 	jmpi	c00d84c <_free_r>

0c00478c <_malloc_r>:
 c00478c:	defff504 	addi	sp,sp,-44
 c004790:	dc800315 	stw	r18,12(sp)
 c004794:	dfc00a15 	stw	ra,40(sp)
 c004798:	df000915 	stw	fp,36(sp)
 c00479c:	ddc00815 	stw	r23,32(sp)
 c0047a0:	dd800715 	stw	r22,28(sp)
 c0047a4:	dd400615 	stw	r21,24(sp)
 c0047a8:	dd000515 	stw	r20,20(sp)
 c0047ac:	dcc00415 	stw	r19,16(sp)
 c0047b0:	dc400215 	stw	r17,8(sp)
 c0047b4:	dc000115 	stw	r16,4(sp)
 c0047b8:	288002c4 	addi	r2,r5,11
 c0047bc:	00c00584 	movi	r3,22
 c0047c0:	2025883a 	mov	r18,r4
 c0047c4:	18807f2e 	bgeu	r3,r2,c0049c4 <_malloc_r+0x238>
 c0047c8:	047ffe04 	movi	r17,-8
 c0047cc:	1462703a 	and	r17,r2,r17
 c0047d0:	8800a316 	blt	r17,zero,c004a60 <_malloc_r+0x2d4>
 c0047d4:	8940a236 	bltu	r17,r5,c004a60 <_malloc_r+0x2d4>
 c0047d8:	c01ae800 	call	c01ae80 <__malloc_lock>
 c0047dc:	00807dc4 	movi	r2,503
 c0047e0:	1441e92e 	bgeu	r2,r17,c004f88 <_malloc_r+0x7fc>
 c0047e4:	8804d27a 	srli	r2,r17,9
 c0047e8:	1000a126 	beq	r2,zero,c004a70 <_malloc_r+0x2e4>
 c0047ec:	00c00104 	movi	r3,4
 c0047f0:	18811e36 	bltu	r3,r2,c004c6c <_malloc_r+0x4e0>
 c0047f4:	8804d1ba 	srli	r2,r17,6
 c0047f8:	12000e44 	addi	r8,r2,57
 c0047fc:	11c00e04 	addi	r7,r2,56
 c004800:	4209883a 	add	r4,r8,r8
 c004804:	04c300b4 	movhi	r19,3074
 c004808:	2109883a 	add	r4,r4,r4
 c00480c:	9cf90e04 	addi	r19,r19,-7112
 c004810:	2109883a 	add	r4,r4,r4
 c004814:	9909883a 	add	r4,r19,r4
 c004818:	24000117 	ldw	r16,4(r4)
 c00481c:	213ffe04 	addi	r4,r4,-8
 c004820:	24009726 	beq	r4,r16,c004a80 <_malloc_r+0x2f4>
 c004824:	80800117 	ldw	r2,4(r16)
 c004828:	01bfff04 	movi	r6,-4
 c00482c:	014003c4 	movi	r5,15
 c004830:	1184703a 	and	r2,r2,r6
 c004834:	1447c83a 	sub	r3,r2,r17
 c004838:	28c00716 	blt	r5,r3,c004858 <_malloc_r+0xcc>
 c00483c:	1800920e 	bge	r3,zero,c004a88 <_malloc_r+0x2fc>
 c004840:	84000317 	ldw	r16,12(r16)
 c004844:	24008e26 	beq	r4,r16,c004a80 <_malloc_r+0x2f4>
 c004848:	80800117 	ldw	r2,4(r16)
 c00484c:	1184703a 	and	r2,r2,r6
 c004850:	1447c83a 	sub	r3,r2,r17
 c004854:	28fff90e 	bge	r5,r3,c00483c <__alt_data_end+0xfc00483c>
 c004858:	3809883a 	mov	r4,r7
 c00485c:	018300b4 	movhi	r6,3074
 c004860:	9c000417 	ldw	r16,16(r19)
 c004864:	31b90e04 	addi	r6,r6,-7112
 c004868:	32000204 	addi	r8,r6,8
 c00486c:	82013426 	beq	r16,r8,c004d40 <_malloc_r+0x5b4>
 c004870:	80c00117 	ldw	r3,4(r16)
 c004874:	00bfff04 	movi	r2,-4
 c004878:	188e703a 	and	r7,r3,r2
 c00487c:	3c45c83a 	sub	r2,r7,r17
 c004880:	00c003c4 	movi	r3,15
 c004884:	18811f16 	blt	r3,r2,c004d04 <_malloc_r+0x578>
 c004888:	32000515 	stw	r8,20(r6)
 c00488c:	32000415 	stw	r8,16(r6)
 c004890:	10007f0e 	bge	r2,zero,c004a90 <_malloc_r+0x304>
 c004894:	00807fc4 	movi	r2,511
 c004898:	11c0fd36 	bltu	r2,r7,c004c90 <_malloc_r+0x504>
 c00489c:	3806d0fa 	srli	r3,r7,3
 c0048a0:	01c00044 	movi	r7,1
 c0048a4:	30800117 	ldw	r2,4(r6)
 c0048a8:	19400044 	addi	r5,r3,1
 c0048ac:	294b883a 	add	r5,r5,r5
 c0048b0:	1807d0ba 	srai	r3,r3,2
 c0048b4:	294b883a 	add	r5,r5,r5
 c0048b8:	294b883a 	add	r5,r5,r5
 c0048bc:	298b883a 	add	r5,r5,r6
 c0048c0:	38c6983a 	sll	r3,r7,r3
 c0048c4:	29c00017 	ldw	r7,0(r5)
 c0048c8:	2a7ffe04 	addi	r9,r5,-8
 c0048cc:	1886b03a 	or	r3,r3,r2
 c0048d0:	82400315 	stw	r9,12(r16)
 c0048d4:	81c00215 	stw	r7,8(r16)
 c0048d8:	30c00115 	stw	r3,4(r6)
 c0048dc:	2c000015 	stw	r16,0(r5)
 c0048e0:	3c000315 	stw	r16,12(r7)
 c0048e4:	2005d0ba 	srai	r2,r4,2
 c0048e8:	01400044 	movi	r5,1
 c0048ec:	288a983a 	sll	r5,r5,r2
 c0048f0:	19406f36 	bltu	r3,r5,c004ab0 <_malloc_r+0x324>
 c0048f4:	28c4703a 	and	r2,r5,r3
 c0048f8:	10000a1e 	bne	r2,zero,c004924 <_malloc_r+0x198>
 c0048fc:	00bfff04 	movi	r2,-4
 c004900:	294b883a 	add	r5,r5,r5
 c004904:	2088703a 	and	r4,r4,r2
 c004908:	28c4703a 	and	r2,r5,r3
 c00490c:	21000104 	addi	r4,r4,4
 c004910:	1000041e 	bne	r2,zero,c004924 <_malloc_r+0x198>
 c004914:	294b883a 	add	r5,r5,r5
 c004918:	28c4703a 	and	r2,r5,r3
 c00491c:	21000104 	addi	r4,r4,4
 c004920:	103ffc26 	beq	r2,zero,c004914 <__alt_data_end+0xfc004914>
 c004924:	02bfff04 	movi	r10,-4
 c004928:	024003c4 	movi	r9,15
 c00492c:	21800044 	addi	r6,r4,1
 c004930:	318d883a 	add	r6,r6,r6
 c004934:	318d883a 	add	r6,r6,r6
 c004938:	318d883a 	add	r6,r6,r6
 c00493c:	998d883a 	add	r6,r19,r6
 c004940:	333ffe04 	addi	r12,r6,-8
 c004944:	2017883a 	mov	r11,r4
 c004948:	31800104 	addi	r6,r6,4
 c00494c:	34000017 	ldw	r16,0(r6)
 c004950:	31fffd04 	addi	r7,r6,-12
 c004954:	81c0041e 	bne	r16,r7,c004968 <_malloc_r+0x1dc>
 c004958:	0000fb06 	br	c004d48 <_malloc_r+0x5bc>
 c00495c:	1801030e 	bge	r3,zero,c004d6c <_malloc_r+0x5e0>
 c004960:	84000317 	ldw	r16,12(r16)
 c004964:	81c0f826 	beq	r16,r7,c004d48 <_malloc_r+0x5bc>
 c004968:	80800117 	ldw	r2,4(r16)
 c00496c:	1284703a 	and	r2,r2,r10
 c004970:	1447c83a 	sub	r3,r2,r17
 c004974:	48fff90e 	bge	r9,r3,c00495c <__alt_data_end+0xfc00495c>
 c004978:	80800317 	ldw	r2,12(r16)
 c00497c:	81000217 	ldw	r4,8(r16)
 c004980:	89400054 	ori	r5,r17,1
 c004984:	81400115 	stw	r5,4(r16)
 c004988:	20800315 	stw	r2,12(r4)
 c00498c:	11000215 	stw	r4,8(r2)
 c004990:	8463883a 	add	r17,r16,r17
 c004994:	9c400515 	stw	r17,20(r19)
 c004998:	9c400415 	stw	r17,16(r19)
 c00499c:	18800054 	ori	r2,r3,1
 c0049a0:	88800115 	stw	r2,4(r17)
 c0049a4:	8a000315 	stw	r8,12(r17)
 c0049a8:	8a000215 	stw	r8,8(r17)
 c0049ac:	88e3883a 	add	r17,r17,r3
 c0049b0:	88c00015 	stw	r3,0(r17)
 c0049b4:	9009883a 	mov	r4,r18
 c0049b8:	c01aea40 	call	c01aea4 <__malloc_unlock>
 c0049bc:	80800204 	addi	r2,r16,8
 c0049c0:	00001b06 	br	c004a30 <_malloc_r+0x2a4>
 c0049c4:	04400404 	movi	r17,16
 c0049c8:	89402536 	bltu	r17,r5,c004a60 <_malloc_r+0x2d4>
 c0049cc:	c01ae800 	call	c01ae80 <__malloc_lock>
 c0049d0:	00800184 	movi	r2,6
 c0049d4:	01000084 	movi	r4,2
 c0049d8:	04c300b4 	movhi	r19,3074
 c0049dc:	1085883a 	add	r2,r2,r2
 c0049e0:	9cf90e04 	addi	r19,r19,-7112
 c0049e4:	1085883a 	add	r2,r2,r2
 c0049e8:	9885883a 	add	r2,r19,r2
 c0049ec:	14000117 	ldw	r16,4(r2)
 c0049f0:	10fffe04 	addi	r3,r2,-8
 c0049f4:	80c0d926 	beq	r16,r3,c004d5c <_malloc_r+0x5d0>
 c0049f8:	80c00117 	ldw	r3,4(r16)
 c0049fc:	81000317 	ldw	r4,12(r16)
 c004a00:	00bfff04 	movi	r2,-4
 c004a04:	1884703a 	and	r2,r3,r2
 c004a08:	81400217 	ldw	r5,8(r16)
 c004a0c:	8085883a 	add	r2,r16,r2
 c004a10:	10c00117 	ldw	r3,4(r2)
 c004a14:	29000315 	stw	r4,12(r5)
 c004a18:	21400215 	stw	r5,8(r4)
 c004a1c:	18c00054 	ori	r3,r3,1
 c004a20:	10c00115 	stw	r3,4(r2)
 c004a24:	9009883a 	mov	r4,r18
 c004a28:	c01aea40 	call	c01aea4 <__malloc_unlock>
 c004a2c:	80800204 	addi	r2,r16,8
 c004a30:	dfc00a17 	ldw	ra,40(sp)
 c004a34:	df000917 	ldw	fp,36(sp)
 c004a38:	ddc00817 	ldw	r23,32(sp)
 c004a3c:	dd800717 	ldw	r22,28(sp)
 c004a40:	dd400617 	ldw	r21,24(sp)
 c004a44:	dd000517 	ldw	r20,20(sp)
 c004a48:	dcc00417 	ldw	r19,16(sp)
 c004a4c:	dc800317 	ldw	r18,12(sp)
 c004a50:	dc400217 	ldw	r17,8(sp)
 c004a54:	dc000117 	ldw	r16,4(sp)
 c004a58:	dec00b04 	addi	sp,sp,44
 c004a5c:	f800283a 	ret
 c004a60:	00800304 	movi	r2,12
 c004a64:	90800015 	stw	r2,0(r18)
 c004a68:	0005883a 	mov	r2,zero
 c004a6c:	003ff006 	br	c004a30 <__alt_data_end+0xfc004a30>
 c004a70:	01002004 	movi	r4,128
 c004a74:	02001004 	movi	r8,64
 c004a78:	01c00fc4 	movi	r7,63
 c004a7c:	003f6106 	br	c004804 <__alt_data_end+0xfc004804>
 c004a80:	4009883a 	mov	r4,r8
 c004a84:	003f7506 	br	c00485c <__alt_data_end+0xfc00485c>
 c004a88:	81000317 	ldw	r4,12(r16)
 c004a8c:	003fde06 	br	c004a08 <__alt_data_end+0xfc004a08>
 c004a90:	81c5883a 	add	r2,r16,r7
 c004a94:	11400117 	ldw	r5,4(r2)
 c004a98:	9009883a 	mov	r4,r18
 c004a9c:	29400054 	ori	r5,r5,1
 c004aa0:	11400115 	stw	r5,4(r2)
 c004aa4:	c01aea40 	call	c01aea4 <__malloc_unlock>
 c004aa8:	80800204 	addi	r2,r16,8
 c004aac:	003fe006 	br	c004a30 <__alt_data_end+0xfc004a30>
 c004ab0:	9c000217 	ldw	r16,8(r19)
 c004ab4:	00bfff04 	movi	r2,-4
 c004ab8:	85800117 	ldw	r22,4(r16)
 c004abc:	b0ac703a 	and	r22,r22,r2
 c004ac0:	b4400336 	bltu	r22,r17,c004ad0 <_malloc_r+0x344>
 c004ac4:	b445c83a 	sub	r2,r22,r17
 c004ac8:	00c003c4 	movi	r3,15
 c004acc:	18805d16 	blt	r3,r2,c004c44 <_malloc_r+0x4b8>
 c004ad0:	05c300b4 	movhi	r23,3074
 c004ad4:	008300b4 	movhi	r2,3074
 c004ad8:	10876004 	addi	r2,r2,7552
 c004adc:	bdffbf04 	addi	r23,r23,-260
 c004ae0:	15400017 	ldw	r21,0(r2)
 c004ae4:	b8c00017 	ldw	r3,0(r23)
 c004ae8:	00bfffc4 	movi	r2,-1
 c004aec:	858d883a 	add	r6,r16,r22
 c004af0:	8d6b883a 	add	r21,r17,r21
 c004af4:	1880ea26 	beq	r3,r2,c004ea0 <_malloc_r+0x714>
 c004af8:	ad4403c4 	addi	r21,r21,4111
 c004afc:	00bc0004 	movi	r2,-4096
 c004b00:	a8aa703a 	and	r21,r21,r2
 c004b04:	a80b883a 	mov	r5,r21
 c004b08:	9009883a 	mov	r4,r18
 c004b0c:	d9800015 	stw	r6,0(sp)
 c004b10:	c0051740 	call	c005174 <_sbrk_r>
 c004b14:	1029883a 	mov	r20,r2
 c004b18:	00bfffc4 	movi	r2,-1
 c004b1c:	d9800017 	ldw	r6,0(sp)
 c004b20:	a080e826 	beq	r20,r2,c004ec4 <_malloc_r+0x738>
 c004b24:	a180a636 	bltu	r20,r6,c004dc0 <_malloc_r+0x634>
 c004b28:	070300b4 	movhi	fp,3074
 c004b2c:	e7077604 	addi	fp,fp,7640
 c004b30:	e0800017 	ldw	r2,0(fp)
 c004b34:	a887883a 	add	r3,r21,r2
 c004b38:	e0c00015 	stw	r3,0(fp)
 c004b3c:	3500e626 	beq	r6,r20,c004ed8 <_malloc_r+0x74c>
 c004b40:	b9000017 	ldw	r4,0(r23)
 c004b44:	00bfffc4 	movi	r2,-1
 c004b48:	2080ee26 	beq	r4,r2,c004f04 <_malloc_r+0x778>
 c004b4c:	a185c83a 	sub	r2,r20,r6
 c004b50:	10c5883a 	add	r2,r2,r3
 c004b54:	e0800015 	stw	r2,0(fp)
 c004b58:	a0c001cc 	andi	r3,r20,7
 c004b5c:	1800bc26 	beq	r3,zero,c004e50 <_malloc_r+0x6c4>
 c004b60:	a0e9c83a 	sub	r20,r20,r3
 c004b64:	00840204 	movi	r2,4104
 c004b68:	a5000204 	addi	r20,r20,8
 c004b6c:	10c7c83a 	sub	r3,r2,r3
 c004b70:	a545883a 	add	r2,r20,r21
 c004b74:	1083ffcc 	andi	r2,r2,4095
 c004b78:	18abc83a 	sub	r21,r3,r2
 c004b7c:	a80b883a 	mov	r5,r21
 c004b80:	9009883a 	mov	r4,r18
 c004b84:	c0051740 	call	c005174 <_sbrk_r>
 c004b88:	00ffffc4 	movi	r3,-1
 c004b8c:	10c0e126 	beq	r2,r3,c004f14 <_malloc_r+0x788>
 c004b90:	1505c83a 	sub	r2,r2,r20
 c004b94:	1545883a 	add	r2,r2,r21
 c004b98:	10800054 	ori	r2,r2,1
 c004b9c:	e0c00017 	ldw	r3,0(fp)
 c004ba0:	9d000215 	stw	r20,8(r19)
 c004ba4:	a0800115 	stw	r2,4(r20)
 c004ba8:	a8c7883a 	add	r3,r21,r3
 c004bac:	e0c00015 	stw	r3,0(fp)
 c004bb0:	84c00e26 	beq	r16,r19,c004bec <_malloc_r+0x460>
 c004bb4:	018003c4 	movi	r6,15
 c004bb8:	3580a72e 	bgeu	r6,r22,c004e58 <_malloc_r+0x6cc>
 c004bbc:	81400117 	ldw	r5,4(r16)
 c004bc0:	013ffe04 	movi	r4,-8
 c004bc4:	b0bffd04 	addi	r2,r22,-12
 c004bc8:	1104703a 	and	r2,r2,r4
 c004bcc:	2900004c 	andi	r4,r5,1
 c004bd0:	2088b03a 	or	r4,r4,r2
 c004bd4:	81000115 	stw	r4,4(r16)
 c004bd8:	01400144 	movi	r5,5
 c004bdc:	8089883a 	add	r4,r16,r2
 c004be0:	21400115 	stw	r5,4(r4)
 c004be4:	21400215 	stw	r5,8(r4)
 c004be8:	3080cd36 	bltu	r6,r2,c004f20 <_malloc_r+0x794>
 c004bec:	008300b4 	movhi	r2,3074
 c004bf0:	10875f04 	addi	r2,r2,7548
 c004bf4:	11000017 	ldw	r4,0(r2)
 c004bf8:	20c0012e 	bgeu	r4,r3,c004c00 <_malloc_r+0x474>
 c004bfc:	10c00015 	stw	r3,0(r2)
 c004c00:	008300b4 	movhi	r2,3074
 c004c04:	10875e04 	addi	r2,r2,7544
 c004c08:	11000017 	ldw	r4,0(r2)
 c004c0c:	9c000217 	ldw	r16,8(r19)
 c004c10:	20c0012e 	bgeu	r4,r3,c004c18 <_malloc_r+0x48c>
 c004c14:	10c00015 	stw	r3,0(r2)
 c004c18:	80c00117 	ldw	r3,4(r16)
 c004c1c:	00bfff04 	movi	r2,-4
 c004c20:	1886703a 	and	r3,r3,r2
 c004c24:	1c45c83a 	sub	r2,r3,r17
 c004c28:	1c400236 	bltu	r3,r17,c004c34 <_malloc_r+0x4a8>
 c004c2c:	00c003c4 	movi	r3,15
 c004c30:	18800416 	blt	r3,r2,c004c44 <_malloc_r+0x4b8>
 c004c34:	9009883a 	mov	r4,r18
 c004c38:	c01aea40 	call	c01aea4 <__malloc_unlock>
 c004c3c:	0005883a 	mov	r2,zero
 c004c40:	003f7b06 	br	c004a30 <__alt_data_end+0xfc004a30>
 c004c44:	88c00054 	ori	r3,r17,1
 c004c48:	80c00115 	stw	r3,4(r16)
 c004c4c:	8463883a 	add	r17,r16,r17
 c004c50:	10800054 	ori	r2,r2,1
 c004c54:	9c400215 	stw	r17,8(r19)
 c004c58:	88800115 	stw	r2,4(r17)
 c004c5c:	9009883a 	mov	r4,r18
 c004c60:	c01aea40 	call	c01aea4 <__malloc_unlock>
 c004c64:	80800204 	addi	r2,r16,8
 c004c68:	003f7106 	br	c004a30 <__alt_data_end+0xfc004a30>
 c004c6c:	00c00504 	movi	r3,20
 c004c70:	18804a2e 	bgeu	r3,r2,c004d9c <_malloc_r+0x610>
 c004c74:	00c01504 	movi	r3,84
 c004c78:	18806e36 	bltu	r3,r2,c004e34 <_malloc_r+0x6a8>
 c004c7c:	8804d33a 	srli	r2,r17,12
 c004c80:	12001bc4 	addi	r8,r2,111
 c004c84:	11c01b84 	addi	r7,r2,110
 c004c88:	4209883a 	add	r4,r8,r8
 c004c8c:	003edd06 	br	c004804 <__alt_data_end+0xfc004804>
 c004c90:	3804d27a 	srli	r2,r7,9
 c004c94:	00c00104 	movi	r3,4
 c004c98:	1880442e 	bgeu	r3,r2,c004dac <_malloc_r+0x620>
 c004c9c:	00c00504 	movi	r3,20
 c004ca0:	18808136 	bltu	r3,r2,c004ea8 <_malloc_r+0x71c>
 c004ca4:	11401704 	addi	r5,r2,92
 c004ca8:	10c016c4 	addi	r3,r2,91
 c004cac:	294b883a 	add	r5,r5,r5
 c004cb0:	294b883a 	add	r5,r5,r5
 c004cb4:	294b883a 	add	r5,r5,r5
 c004cb8:	994b883a 	add	r5,r19,r5
 c004cbc:	28800017 	ldw	r2,0(r5)
 c004cc0:	018300b4 	movhi	r6,3074
 c004cc4:	297ffe04 	addi	r5,r5,-8
 c004cc8:	31b90e04 	addi	r6,r6,-7112
 c004ccc:	28806526 	beq	r5,r2,c004e64 <_malloc_r+0x6d8>
 c004cd0:	01bfff04 	movi	r6,-4
 c004cd4:	10c00117 	ldw	r3,4(r2)
 c004cd8:	1986703a 	and	r3,r3,r6
 c004cdc:	38c0022e 	bgeu	r7,r3,c004ce8 <_malloc_r+0x55c>
 c004ce0:	10800217 	ldw	r2,8(r2)
 c004ce4:	28bffb1e 	bne	r5,r2,c004cd4 <__alt_data_end+0xfc004cd4>
 c004ce8:	11400317 	ldw	r5,12(r2)
 c004cec:	98c00117 	ldw	r3,4(r19)
 c004cf0:	81400315 	stw	r5,12(r16)
 c004cf4:	80800215 	stw	r2,8(r16)
 c004cf8:	2c000215 	stw	r16,8(r5)
 c004cfc:	14000315 	stw	r16,12(r2)
 c004d00:	003ef806 	br	c0048e4 <__alt_data_end+0xfc0048e4>
 c004d04:	88c00054 	ori	r3,r17,1
 c004d08:	80c00115 	stw	r3,4(r16)
 c004d0c:	8463883a 	add	r17,r16,r17
 c004d10:	34400515 	stw	r17,20(r6)
 c004d14:	34400415 	stw	r17,16(r6)
 c004d18:	10c00054 	ori	r3,r2,1
 c004d1c:	8a000315 	stw	r8,12(r17)
 c004d20:	8a000215 	stw	r8,8(r17)
 c004d24:	88c00115 	stw	r3,4(r17)
 c004d28:	88a3883a 	add	r17,r17,r2
 c004d2c:	88800015 	stw	r2,0(r17)
 c004d30:	9009883a 	mov	r4,r18
 c004d34:	c01aea40 	call	c01aea4 <__malloc_unlock>
 c004d38:	80800204 	addi	r2,r16,8
 c004d3c:	003f3c06 	br	c004a30 <__alt_data_end+0xfc004a30>
 c004d40:	30c00117 	ldw	r3,4(r6)
 c004d44:	003ee706 	br	c0048e4 <__alt_data_end+0xfc0048e4>
 c004d48:	5ac00044 	addi	r11,r11,1
 c004d4c:	588000cc 	andi	r2,r11,3
 c004d50:	31800204 	addi	r6,r6,8
 c004d54:	103efd1e 	bne	r2,zero,c00494c <__alt_data_end+0xfc00494c>
 c004d58:	00002406 	br	c004dec <_malloc_r+0x660>
 c004d5c:	14000317 	ldw	r16,12(r2)
 c004d60:	143f251e 	bne	r2,r16,c0049f8 <__alt_data_end+0xfc0049f8>
 c004d64:	21000084 	addi	r4,r4,2
 c004d68:	003ebc06 	br	c00485c <__alt_data_end+0xfc00485c>
 c004d6c:	8085883a 	add	r2,r16,r2
 c004d70:	10c00117 	ldw	r3,4(r2)
 c004d74:	81000317 	ldw	r4,12(r16)
 c004d78:	81400217 	ldw	r5,8(r16)
 c004d7c:	18c00054 	ori	r3,r3,1
 c004d80:	10c00115 	stw	r3,4(r2)
 c004d84:	29000315 	stw	r4,12(r5)
 c004d88:	21400215 	stw	r5,8(r4)
 c004d8c:	9009883a 	mov	r4,r18
 c004d90:	c01aea40 	call	c01aea4 <__malloc_unlock>
 c004d94:	80800204 	addi	r2,r16,8
 c004d98:	003f2506 	br	c004a30 <__alt_data_end+0xfc004a30>
 c004d9c:	12001704 	addi	r8,r2,92
 c004da0:	11c016c4 	addi	r7,r2,91
 c004da4:	4209883a 	add	r4,r8,r8
 c004da8:	003e9606 	br	c004804 <__alt_data_end+0xfc004804>
 c004dac:	3804d1ba 	srli	r2,r7,6
 c004db0:	11400e44 	addi	r5,r2,57
 c004db4:	10c00e04 	addi	r3,r2,56
 c004db8:	294b883a 	add	r5,r5,r5
 c004dbc:	003fbc06 	br	c004cb0 <__alt_data_end+0xfc004cb0>
 c004dc0:	84ff5926 	beq	r16,r19,c004b28 <__alt_data_end+0xfc004b28>
 c004dc4:	008300b4 	movhi	r2,3074
 c004dc8:	10b90e04 	addi	r2,r2,-7112
 c004dcc:	14000217 	ldw	r16,8(r2)
 c004dd0:	00bfff04 	movi	r2,-4
 c004dd4:	80c00117 	ldw	r3,4(r16)
 c004dd8:	1886703a 	and	r3,r3,r2
 c004ddc:	003f9106 	br	c004c24 <__alt_data_end+0xfc004c24>
 c004de0:	60800217 	ldw	r2,8(r12)
 c004de4:	213fffc4 	addi	r4,r4,-1
 c004de8:	1300651e 	bne	r2,r12,c004f80 <_malloc_r+0x7f4>
 c004dec:	208000cc 	andi	r2,r4,3
 c004df0:	633ffe04 	addi	r12,r12,-8
 c004df4:	103ffa1e 	bne	r2,zero,c004de0 <__alt_data_end+0xfc004de0>
 c004df8:	98800117 	ldw	r2,4(r19)
 c004dfc:	0146303a 	nor	r3,zero,r5
 c004e00:	1884703a 	and	r2,r3,r2
 c004e04:	98800115 	stw	r2,4(r19)
 c004e08:	294b883a 	add	r5,r5,r5
 c004e0c:	117f2836 	bltu	r2,r5,c004ab0 <__alt_data_end+0xfc004ab0>
 c004e10:	283f2726 	beq	r5,zero,c004ab0 <__alt_data_end+0xfc004ab0>
 c004e14:	2886703a 	and	r3,r5,r2
 c004e18:	5809883a 	mov	r4,r11
 c004e1c:	183ec31e 	bne	r3,zero,c00492c <__alt_data_end+0xfc00492c>
 c004e20:	294b883a 	add	r5,r5,r5
 c004e24:	2886703a 	and	r3,r5,r2
 c004e28:	21000104 	addi	r4,r4,4
 c004e2c:	183ffc26 	beq	r3,zero,c004e20 <__alt_data_end+0xfc004e20>
 c004e30:	003ebe06 	br	c00492c <__alt_data_end+0xfc00492c>
 c004e34:	00c05504 	movi	r3,340
 c004e38:	18801236 	bltu	r3,r2,c004e84 <_malloc_r+0x6f8>
 c004e3c:	8804d3fa 	srli	r2,r17,15
 c004e40:	12001e04 	addi	r8,r2,120
 c004e44:	11c01dc4 	addi	r7,r2,119
 c004e48:	4209883a 	add	r4,r8,r8
 c004e4c:	003e6d06 	br	c004804 <__alt_data_end+0xfc004804>
 c004e50:	00c40004 	movi	r3,4096
 c004e54:	003f4606 	br	c004b70 <__alt_data_end+0xfc004b70>
 c004e58:	00800044 	movi	r2,1
 c004e5c:	a0800115 	stw	r2,4(r20)
 c004e60:	003f7406 	br	c004c34 <__alt_data_end+0xfc004c34>
 c004e64:	1805d0ba 	srai	r2,r3,2
 c004e68:	01c00044 	movi	r7,1
 c004e6c:	30c00117 	ldw	r3,4(r6)
 c004e70:	388e983a 	sll	r7,r7,r2
 c004e74:	2805883a 	mov	r2,r5
 c004e78:	38c6b03a 	or	r3,r7,r3
 c004e7c:	30c00115 	stw	r3,4(r6)
 c004e80:	003f9b06 	br	c004cf0 <__alt_data_end+0xfc004cf0>
 c004e84:	00c15504 	movi	r3,1364
 c004e88:	18801a36 	bltu	r3,r2,c004ef4 <_malloc_r+0x768>
 c004e8c:	8804d4ba 	srli	r2,r17,18
 c004e90:	12001f44 	addi	r8,r2,125
 c004e94:	11c01f04 	addi	r7,r2,124
 c004e98:	4209883a 	add	r4,r8,r8
 c004e9c:	003e5906 	br	c004804 <__alt_data_end+0xfc004804>
 c004ea0:	ad400404 	addi	r21,r21,16
 c004ea4:	003f1706 	br	c004b04 <__alt_data_end+0xfc004b04>
 c004ea8:	00c01504 	movi	r3,84
